
HPPC.elf:     file format elf32-littlearm

Sections:
Idx Name          Size      VMA       LMA       File off  Algn
  0 .text         00006aa0  10001000  10001000  00001000  2**3
                  CONTENTS, ALLOC, LOAD, READONLY, CODE
  1 .eh_frame     00000000  10007aa0  10007aa0  00007aa0  2**2
                  CONTENTS, ALLOC, LOAD, READONLY, DATA
  2 .VENEER_Code  00000138  2000000c  10007aa0  0000800c  2**2
                  CONTENTS, ALLOC, LOAD, READONLY, CODE
  3 Stack         00000404  20000144  00000000  00000144  2**0
                  ALLOC
  4 .data         0000021c  20000548  10007bd8  00008548  2**2
                  CONTENTS, ALLOC, LOAD, DATA
  5 .bss          00000224  20000764  00000620  00008764  2**2
                  ALLOC
  6 .no_init      00000004  20003ffc  00003eb8  00000144  2**2
                  ALLOC
  7 .debug_frame  000009c0  00000000  00000000  00008764  2**2
                  CONTENTS, READONLY, DEBUGGING
  8 .build_attributes 00000da4  00000000  00000000  00009124  2**0
                  CONTENTS, READONLY

Disassembly of section .text:

10001000 <__Vectors>:
10001000:	48 05 00 20 19 10 00 10 00 00 00 00 99 10 00 10     H.. ............
10001010:	00 04 01 00 00 01 00 00                             ........

10001018 <Reset_Handler>:
10001018:	4911      	ldr	r1, [pc, #68]	; (10001060 <__copy_data+0xe>)
1000101a:	4a12      	ldr	r2, [pc, #72]	; (10001064 <__copy_data+0x12>)
1000101c:	4b12      	ldr	r3, [pc, #72]	; (10001068 <__copy_data+0x16>)
1000101e:	f000 f818 	bl	10001052 <__copy_data>
10001022:	4812      	ldr	r0, [pc, #72]	; (1000106c <__copy_data+0x1a>)
10001024:	4780      	blx	r0
10001026:	4912      	ldr	r1, [pc, #72]	; (10001070 <__copy_data+0x1e>)
10001028:	4a12      	ldr	r2, [pc, #72]	; (10001074 <__copy_data+0x22>)
1000102a:	4b13      	ldr	r3, [pc, #76]	; (10001078 <__copy_data+0x26>)
1000102c:	f000 f811 	bl	10001052 <__copy_data>
10001030:	4912      	ldr	r1, [pc, #72]	; (1000107c <__copy_data+0x2a>)
10001032:	4a13      	ldr	r2, [pc, #76]	; (10001080 <__copy_data+0x2e>)
10001034:	4b13      	ldr	r3, [pc, #76]	; (10001084 <__copy_data+0x32>)
10001036:	f000 f80c 	bl	10001052 <__copy_data>
1000103a:	4913      	ldr	r1, [pc, #76]	; (10001088 <__copy_data+0x36>)
1000103c:	4a13      	ldr	r2, [pc, #76]	; (1000108c <__copy_data+0x3a>)
1000103e:	2000      	movs	r0, #0
10001040:	1a52      	subs	r2, r2, r1
10001042:	dd02      	ble.n	1000104a <Reset_Handler+0x32>
10001044:	3a04      	subs	r2, #4
10001046:	5088      	str	r0, [r1, r2]
10001048:	dcfc      	bgt.n	10001044 <Reset_Handler+0x2c>
1000104a:	4811      	ldr	r0, [pc, #68]	; (10001090 <__copy_data+0x3e>)
1000104c:	4780      	blx	r0
1000104e:	4811      	ldr	r0, [pc, #68]	; (10001094 <__copy_data+0x42>)
10001050:	4780      	blx	r0

10001052 <__copy_data>:
10001052:	1a9b      	subs	r3, r3, r2
10001054:	dd03      	ble.n	1000105e <__copy_data+0xc>
10001056:	3b04      	subs	r3, #4
10001058:	58c8      	ldr	r0, [r1, r3]
1000105a:	50d0      	str	r0, [r2, r3]
1000105c:	dcfb      	bgt.n	10001056 <__copy_data+0x4>
1000105e:	4770      	bx	lr
10001060:	10007aa0 	.word	0x10007aa0
10001064:	2000000c 	.word	0x2000000c
10001068:	20000144 	.word	0x20000144
1000106c:	100010e9 	.word	0x100010e9
10001070:	10007bd8 	.word	0x10007bd8
10001074:	20000548 	.word	0x20000548
10001078:	20000764 	.word	0x20000764
1000107c:	10007df4 	.word	0x10007df4
10001080:	20000764 	.word	0x20000764
10001084:	20000764 	.word	0x20000764
10001088:	20000764 	.word	0x20000764
1000108c:	20000988 	.word	0x20000988
10001090:	100037ad 	.word	0x100037ad
10001094:	100031ad 	.word	0x100031ad

10001098 <BCCU0_0_IRQHandler>:
10001098:	e7fe      	b.n	10001098 <BCCU0_0_IRQHandler>
	...

1000109c <SystemCoreClockUpdate>:
1000109c:	4a0c      	ldr	r2, [pc, #48]	; (100010d0 <SystemCoreClockUpdate+0x34>)
1000109e:	b508      	push	{r3, lr}
100010a0:	6813      	ldr	r3, [r2, #0]
100010a2:	490c      	ldr	r1, [pc, #48]	; (100010d4 <SystemCoreClockUpdate+0x38>)
100010a4:	041b      	lsls	r3, r3, #16
100010a6:	0e1b      	lsrs	r3, r3, #24
100010a8:	600b      	str	r3, [r1, #0]
100010aa:	21ff      	movs	r1, #255	; 0xff
100010ac:	6812      	ldr	r2, [r2, #0]
100010ae:	4011      	ands	r1, r2
100010b0:	4a09      	ldr	r2, [pc, #36]	; (100010d8 <SystemCoreClockUpdate+0x3c>)
100010b2:	6011      	str	r1, [r2, #0]
100010b4:	2b00      	cmp	r3, #0
100010b6:	d103      	bne.n	100010c0 <SystemCoreClockUpdate+0x24>
100010b8:	4808      	ldr	r0, [pc, #32]	; (100010dc <SystemCoreClockUpdate+0x40>)
100010ba:	4b09      	ldr	r3, [pc, #36]	; (100010e0 <SystemCoreClockUpdate+0x44>)
100010bc:	6018      	str	r0, [r3, #0]
100010be:	bd08      	pop	{r3, pc}
100010c0:	021b      	lsls	r3, r3, #8
100010c2:	1859      	adds	r1, r3, r1
100010c4:	4807      	ldr	r0, [pc, #28]	; (100010e4 <SystemCoreClockUpdate+0x48>)
100010c6:	f002 f9cb 	bl	10003460 <__aeabi_uidiv>
100010ca:	0040      	lsls	r0, r0, #1
100010cc:	e7f5      	b.n	100010ba <SystemCoreClockUpdate+0x1e>
100010ce:	46c0      	nop			; (mov r8, r8)
100010d0:	40010300 	.word	0x40010300
100010d4:	20000768 	.word	0x20000768
100010d8:	20000764 	.word	0x20000764
100010dc:	01e84800 	.word	0x01e84800
100010e0:	20003ffc 	.word	0x20003ffc
100010e4:	f4240000 	.word	0xf4240000

100010e8 <SystemInit>:
100010e8:	b508      	push	{r3, lr}
100010ea:	f001 fc3b 	bl	10002964 <SystemCoreSetup>
100010ee:	f001 fc43 	bl	10002978 <SystemCoreClockSetup>
100010f2:	bd08      	pop	{r3, pc}

100010f4 <XMC_GPIO_Init>:
100010f4:	b5f0      	push	{r4, r5, r6, r7, lr}
100010f6:	2503      	movs	r5, #3
100010f8:	1c2c      	adds	r4, r5, #0
100010fa:	400c      	ands	r4, r1
100010fc:	00e4      	lsls	r4, r4, #3
100010fe:	4647      	mov	r7, r8
10001100:	46a0      	mov	r8, r4
10001102:	24f8      	movs	r4, #248	; 0xf8
10001104:	4646      	mov	r6, r8
10001106:	40b4      	lsls	r4, r6
10001108:	088b      	lsrs	r3, r1, #2
1000110a:	009b      	lsls	r3, r3, #2
1000110c:	18c3      	adds	r3, r0, r3
1000110e:	b480      	push	{r7}
10001110:	691f      	ldr	r7, [r3, #16]
10001112:	2604      	movs	r6, #4
10001114:	43a7      	bics	r7, r4
10001116:	611f      	str	r7, [r3, #16]
10001118:	004f      	lsls	r7, r1, #1
1000111a:	40bd      	lsls	r5, r7
1000111c:	6f44      	ldr	r4, [r0, #116]	; 0x74
1000111e:	43ac      	bics	r4, r5
10001120:	2507      	movs	r5, #7
10001122:	400d      	ands	r5, r1
10001124:	00ad      	lsls	r5, r5, #2
10001126:	40ae      	lsls	r6, r5
10001128:	6744      	str	r4, [r0, #116]	; 0x74
1000112a:	08cc      	lsrs	r4, r1, #3
1000112c:	00a4      	lsls	r4, r4, #2
1000112e:	1904      	adds	r4, r0, r4
10001130:	6c27      	ldr	r7, [r4, #64]	; 0x40
10001132:	43b7      	bics	r7, r6
10001134:	6427      	str	r7, [r4, #64]	; 0x40
10001136:	7856      	ldrb	r6, [r2, #1]
10001138:	6c27      	ldr	r7, [r4, #64]	; 0x40
1000113a:	40ae      	lsls	r6, r5
1000113c:	1c35      	adds	r5, r6, #0
1000113e:	433d      	orrs	r5, r7
10001140:	6425      	str	r5, [r4, #64]	; 0x40
10001142:	4c0c      	ldr	r4, [pc, #48]	; (10001174 <XMC_GPIO_Init+0x80>)
10001144:	42a0      	cmp	r0, r4
10001146:	d00e      	beq.n	10001166 <XMC_GPIO_Init+0x72>
10001148:	7814      	ldrb	r4, [r2, #0]
1000114a:	b265      	sxtb	r5, r4
1000114c:	2d00      	cmp	r5, #0
1000114e:	da02      	bge.n	10001156 <XMC_GPIO_Init+0x62>
10001150:	6852      	ldr	r2, [r2, #4]
10001152:	408a      	lsls	r2, r1
10001154:	6042      	str	r2, [r0, #4]
10001156:	4641      	mov	r1, r8
10001158:	408c      	lsls	r4, r1
1000115a:	691a      	ldr	r2, [r3, #16]
1000115c:	4314      	orrs	r4, r2
1000115e:	611c      	str	r4, [r3, #16]
10001160:	bc04      	pop	{r2}
10001162:	4690      	mov	r8, r2
10001164:	bdf0      	pop	{r4, r5, r6, r7, pc}
10001166:	2501      	movs	r5, #1
10001168:	408d      	lsls	r5, r1
1000116a:	6e04      	ldr	r4, [r0, #96]	; 0x60
1000116c:	43ac      	bics	r4, r5
1000116e:	6604      	str	r4, [r0, #96]	; 0x60
10001170:	e7ea      	b.n	10001148 <XMC_GPIO_Init+0x54>
10001172:	46c0      	nop			; (mov r8, r8)
10001174:	40040200 	.word	0x40040200

10001178 <XMC_SCU_CLOCK_UngatePeripheralClock>:
10001178:	23c0      	movs	r3, #192	; 0xc0
1000117a:	2104      	movs	r1, #4
1000117c:	4a08      	ldr	r2, [pc, #32]	; (100011a0 <XMC_SCU_CLOCK_UngatePeripheralClock+0x28>)
1000117e:	6253      	str	r3, [r2, #36]	; 0x24
10001180:	6a53      	ldr	r3, [r2, #36]	; 0x24
10001182:	4219      	tst	r1, r3
10001184:	d1fc      	bne.n	10001180 <XMC_SCU_CLOCK_UngatePeripheralClock+0x8>
10001186:	2180      	movs	r1, #128	; 0x80
10001188:	4a06      	ldr	r2, [pc, #24]	; (100011a4 <XMC_SCU_CLOCK_UngatePeripheralClock+0x2c>)
1000118a:	05c9      	lsls	r1, r1, #23
1000118c:	6913      	ldr	r3, [r2, #16]
1000118e:	4318      	orrs	r0, r3
10001190:	6110      	str	r0, [r2, #16]
10001192:	6813      	ldr	r3, [r2, #0]
10001194:	420b      	tst	r3, r1
10001196:	d1fc      	bne.n	10001192 <XMC_SCU_CLOCK_UngatePeripheralClock+0x1a>
10001198:	22c3      	movs	r2, #195	; 0xc3
1000119a:	4b01      	ldr	r3, [pc, #4]	; (100011a0 <XMC_SCU_CLOCK_UngatePeripheralClock+0x28>)
1000119c:	625a      	str	r2, [r3, #36]	; 0x24
1000119e:	4770      	bx	lr
100011a0:	40010000 	.word	0x40010000
100011a4:	40010300 	.word	0x40010300

100011a8 <XMC_SCU_CLOCK_IsPeripheralClockGated>:
100011a8:	4b03      	ldr	r3, [pc, #12]	; (100011b8 <XMC_SCU_CLOCK_IsPeripheralClockGated+0x10>)
100011aa:	689b      	ldr	r3, [r3, #8]
100011ac:	4018      	ands	r0, r3
100011ae:	1e43      	subs	r3, r0, #1
100011b0:	4198      	sbcs	r0, r3
100011b2:	b2c0      	uxtb	r0, r0
100011b4:	4770      	bx	lr
100011b6:	46c0      	nop			; (mov r8, r8)
100011b8:	40010300 	.word	0x40010300

100011bc <XMC_SCU_CLOCK_ScaleMCLKFrequency>:
100011bc:	b5f8      	push	{r3, r4, r5, r6, r7, lr}
100011be:	23c0      	movs	r3, #192	; 0xc0
100011c0:	2404      	movs	r4, #4
100011c2:	4a2d      	ldr	r2, [pc, #180]	; (10001278 <XMC_SCU_CLOCK_ScaleMCLKFrequency+0xbc>)
100011c4:	6253      	str	r3, [r2, #36]	; 0x24
100011c6:	6a53      	ldr	r3, [r2, #36]	; 0x24
100011c8:	421c      	tst	r4, r3
100011ca:	d1fc      	bne.n	100011c6 <XMC_SCU_CLOCK_ScaleMCLKFrequency+0xa>
100011cc:	4a2b      	ldr	r2, [pc, #172]	; (1000127c <XMC_SCU_CLOCK_ScaleMCLKFrequency+0xc0>)
100011ce:	4d2c      	ldr	r5, [pc, #176]	; (10001280 <XMC_SCU_CLOCK_ScaleMCLKFrequency+0xc4>)
100011d0:	6814      	ldr	r4, [r2, #0]
100011d2:	6813      	ldr	r3, [r2, #0]
100011d4:	0424      	lsls	r4, r4, #16
100011d6:	401d      	ands	r5, r3
100011d8:	4b2a      	ldr	r3, [pc, #168]	; (10001284 <XMC_SCU_CLOCK_ScaleMCLKFrequency+0xc8>)
100011da:	0e24      	lsrs	r4, r4, #24
100011dc:	432b      	orrs	r3, r5
100011de:	430b      	orrs	r3, r1
100011e0:	2180      	movs	r1, #128	; 0x80
100011e2:	6013      	str	r3, [r2, #0]
100011e4:	05c9      	lsls	r1, r1, #23
100011e6:	6813      	ldr	r3, [r2, #0]
100011e8:	420b      	tst	r3, r1
100011ea:	d1fc      	bne.n	100011e6 <XMC_SCU_CLOCK_ScaleMCLKFrequency+0x2a>
100011ec:	4284      	cmp	r4, r0
100011ee:	d929      	bls.n	10001244 <XMC_SCU_CLOCK_ScaleMCLKFrequency+0x88>
100011f0:	2180      	movs	r1, #128	; 0x80
100011f2:	4b25      	ldr	r3, [pc, #148]	; (10001288 <XMC_SCU_CLOCK_ScaleMCLKFrequency+0xcc>)
100011f4:	0086      	lsls	r6, r0, #2
100011f6:	4a21      	ldr	r2, [pc, #132]	; (1000127c <XMC_SCU_CLOCK_ScaleMCLKFrequency+0xc0>)
100011f8:	469c      	mov	ip, r3
100011fa:	4f22      	ldr	r7, [pc, #136]	; (10001284 <XMC_SCU_CLOCK_ScaleMCLKFrequency+0xc8>)
100011fc:	05c9      	lsls	r1, r1, #23
100011fe:	42b4      	cmp	r4, r6
10001200:	d90c      	bls.n	1000121c <XMC_SCU_CLOCK_ScaleMCLKFrequency+0x60>
10001202:	4665      	mov	r5, ip
10001204:	6813      	ldr	r3, [r2, #0]
10001206:	08a4      	lsrs	r4, r4, #2
10001208:	402b      	ands	r3, r5
1000120a:	433b      	orrs	r3, r7
1000120c:	0225      	lsls	r5, r4, #8
1000120e:	432b      	orrs	r3, r5
10001210:	6013      	str	r3, [r2, #0]
10001212:	6813      	ldr	r3, [r2, #0]
10001214:	420b      	tst	r3, r1
10001216:	d1fc      	bne.n	10001212 <XMC_SCU_CLOCK_ScaleMCLKFrequency+0x56>
10001218:	42b4      	cmp	r4, r6
1000121a:	d8f2      	bhi.n	10001202 <XMC_SCU_CLOCK_ScaleMCLKFrequency+0x46>
1000121c:	4a17      	ldr	r2, [pc, #92]	; (1000127c <XMC_SCU_CLOCK_ScaleMCLKFrequency+0xc0>)
1000121e:	4b1a      	ldr	r3, [pc, #104]	; (10001288 <XMC_SCU_CLOCK_ScaleMCLKFrequency+0xcc>)
10001220:	6811      	ldr	r1, [r2, #0]
10001222:	0200      	lsls	r0, r0, #8
10001224:	400b      	ands	r3, r1
10001226:	4917      	ldr	r1, [pc, #92]	; (10001284 <XMC_SCU_CLOCK_ScaleMCLKFrequency+0xc8>)
10001228:	430b      	orrs	r3, r1
1000122a:	2180      	movs	r1, #128	; 0x80
1000122c:	4303      	orrs	r3, r0
1000122e:	6013      	str	r3, [r2, #0]
10001230:	05c9      	lsls	r1, r1, #23
10001232:	6813      	ldr	r3, [r2, #0]
10001234:	420b      	tst	r3, r1
10001236:	d1fc      	bne.n	10001232 <XMC_SCU_CLOCK_ScaleMCLKFrequency+0x76>
10001238:	22c3      	movs	r2, #195	; 0xc3
1000123a:	4b0f      	ldr	r3, [pc, #60]	; (10001278 <XMC_SCU_CLOCK_ScaleMCLKFrequency+0xbc>)
1000123c:	625a      	str	r2, [r3, #36]	; 0x24
1000123e:	f7ff ff2d 	bl	1000109c <SystemCoreClockUpdate>
10001242:	bdf8      	pop	{r3, r4, r5, r6, r7, pc}
10001244:	2180      	movs	r1, #128	; 0x80
10001246:	4a0d      	ldr	r2, [pc, #52]	; (1000127c <XMC_SCU_CLOCK_ScaleMCLKFrequency+0xc0>)
10001248:	4f0f      	ldr	r7, [pc, #60]	; (10001288 <XMC_SCU_CLOCK_ScaleMCLKFrequency+0xcc>)
1000124a:	4e0e      	ldr	r6, [pc, #56]	; (10001284 <XMC_SCU_CLOCK_ScaleMCLKFrequency+0xc8>)
1000124c:	05c9      	lsls	r1, r1, #23
1000124e:	00a3      	lsls	r3, r4, #2
10001250:	4298      	cmp	r0, r3
10001252:	d9e3      	bls.n	1000121c <XMC_SCU_CLOCK_ScaleMCLKFrequency+0x60>
10001254:	2c00      	cmp	r4, #0
10001256:	d00a      	beq.n	1000126e <XMC_SCU_CLOCK_ScaleMCLKFrequency+0xb2>
10001258:	02a5      	lsls	r5, r4, #10
1000125a:	1c1c      	adds	r4, r3, #0
1000125c:	6813      	ldr	r3, [r2, #0]
1000125e:	403b      	ands	r3, r7
10001260:	4333      	orrs	r3, r6
10001262:	432b      	orrs	r3, r5
10001264:	6013      	str	r3, [r2, #0]
10001266:	6813      	ldr	r3, [r2, #0]
10001268:	420b      	tst	r3, r1
1000126a:	d1fc      	bne.n	10001266 <XMC_SCU_CLOCK_ScaleMCLKFrequency+0xaa>
1000126c:	e7ef      	b.n	1000124e <XMC_SCU_CLOCK_ScaleMCLKFrequency+0x92>
1000126e:	2580      	movs	r5, #128	; 0x80
10001270:	2404      	movs	r4, #4
10001272:	00ed      	lsls	r5, r5, #3
10001274:	e7f2      	b.n	1000125c <XMC_SCU_CLOCK_ScaleMCLKFrequency+0xa0>
10001276:	46c0      	nop			; (mov r8, r8)
10001278:	40010000 	.word	0x40010000
1000127c:	40010300 	.word	0x40010300
10001280:	c00fff00 	.word	0xc00fff00
10001284:	3ff00000 	.word	0x3ff00000
10001288:	c00f00ff 	.word	0xc00f00ff

1000128c <XMC_SCU_CLOCK_Init>:
1000128c:	23c0      	movs	r3, #192	; 0xc0
1000128e:	2104      	movs	r1, #4
10001290:	4a0b      	ldr	r2, [pc, #44]	; (100012c0 <XMC_SCU_CLOCK_Init+0x34>)
10001292:	b510      	push	{r4, lr}
10001294:	6253      	str	r3, [r2, #36]	; 0x24
10001296:	6a53      	ldr	r3, [r2, #36]	; 0x24
10001298:	4219      	tst	r1, r3
1000129a:	d1fc      	bne.n	10001296 <XMC_SCU_CLOCK_Init+0xa>
1000129c:	6882      	ldr	r2, [r0, #8]
1000129e:	6841      	ldr	r1, [r0, #4]
100012a0:	4c08      	ldr	r4, [pc, #32]	; (100012c4 <XMC_SCU_CLOCK_Init+0x38>)
100012a2:	4311      	orrs	r1, r2
100012a4:	6823      	ldr	r3, [r4, #0]
100012a6:	4a08      	ldr	r2, [pc, #32]	; (100012c8 <XMC_SCU_CLOCK_Init+0x3c>)
100012a8:	4013      	ands	r3, r2
100012aa:	22c3      	movs	r2, #195	; 0xc3
100012ac:	430b      	orrs	r3, r1
100012ae:	6023      	str	r3, [r4, #0]
100012b0:	4b03      	ldr	r3, [pc, #12]	; (100012c0 <XMC_SCU_CLOCK_Init+0x34>)
100012b2:	625a      	str	r2, [r3, #36]	; 0x24
100012b4:	7843      	ldrb	r3, [r0, #1]
100012b6:	7801      	ldrb	r1, [r0, #0]
100012b8:	1c18      	adds	r0, r3, #0
100012ba:	f7ff ff7f 	bl	100011bc <XMC_SCU_CLOCK_ScaleMCLKFrequency>
100012be:	bd10      	pop	{r4, pc}
100012c0:	40010000 	.word	0x40010000
100012c4:	40010300 	.word	0x40010300
100012c8:	fff0ffff 	.word	0xfff0ffff

100012cc <XMC_SCU_CLOCK_GetPeripheralClockFrequency>:
100012cc:	4b01      	ldr	r3, [pc, #4]	; (100012d4 <XMC_SCU_CLOCK_GetPeripheralClockFrequency+0x8>)
100012ce:	6818      	ldr	r0, [r3, #0]
100012d0:	4770      	bx	lr
100012d2:	46c0      	nop			; (mov r8, r8)
100012d4:	20003ffc 	.word	0x20003ffc

100012d8 <XMC_CCU4_Init>:
100012d8:	b538      	push	{r3, r4, r5, lr}
100012da:	4b09      	ldr	r3, [pc, #36]	; (10001300 <XMC_CCU4_Init+0x28>)
100012dc:	1c04      	adds	r4, r0, #0
100012de:	1c0d      	adds	r5, r1, #0
100012e0:	4298      	cmp	r0, r3
100012e2:	d009      	beq.n	100012f8 <XMC_CCU4_Init+0x20>
100012e4:	2380      	movs	r3, #128	; 0x80
100012e6:	005b      	lsls	r3, r3, #1
100012e8:	60e3      	str	r3, [r4, #12]
100012ea:	6821      	ldr	r1, [r4, #0]
100012ec:	4b05      	ldr	r3, [pc, #20]	; (10001304 <XMC_CCU4_Init+0x2c>)
100012ee:	400b      	ands	r3, r1
100012f0:	03a9      	lsls	r1, r5, #14
100012f2:	4319      	orrs	r1, r3
100012f4:	6021      	str	r1, [r4, #0]
100012f6:	bd38      	pop	{r3, r4, r5, pc}
100012f8:	2004      	movs	r0, #4
100012fa:	f7ff ff3d 	bl	10001178 <XMC_SCU_CLOCK_UngatePeripheralClock>
100012fe:	e7f1      	b.n	100012e4 <XMC_CCU4_Init+0xc>
10001300:	48040000 	.word	0x48040000
10001304:	ffff3fff 	.word	0xffff3fff

10001308 <XMC_CCU4_SLICE_CompareInit>:
10001308:	680b      	ldr	r3, [r1, #0]
1000130a:	6143      	str	r3, [r0, #20]
1000130c:	794b      	ldrb	r3, [r1, #5]
1000130e:	069b      	lsls	r3, r3, #26
10001310:	0fdb      	lsrs	r3, r3, #31
10001312:	051b      	lsls	r3, r3, #20
10001314:	6043      	str	r3, [r0, #4]
10001316:	790b      	ldrb	r3, [r1, #4]
10001318:	071b      	lsls	r3, r3, #28
1000131a:	0f1b      	lsrs	r3, r3, #28
1000131c:	6243      	str	r3, [r0, #36]	; 0x24
1000131e:	794b      	ldrb	r3, [r1, #5]
10001320:	071b      	lsls	r3, r3, #28
10001322:	0f1b      	lsrs	r3, r3, #28
10001324:	6203      	str	r3, [r0, #32]
10001326:	794b      	ldrb	r3, [r1, #5]
10001328:	06db      	lsls	r3, r3, #27
1000132a:	0fdb      	lsrs	r3, r3, #31
1000132c:	6183      	str	r3, [r0, #24]
1000132e:	790b      	ldrb	r3, [r1, #4]
10001330:	091b      	lsrs	r3, r3, #4
10001332:	62c3      	str	r3, [r0, #44]	; 0x2c
10001334:	4770      	bx	lr
10001336:	46c0      	nop			; (mov r8, r8)

10001338 <XMC_CCU4_SLICE_SetInterruptNode>:
10001338:	b530      	push	{r4, r5, lr}
1000133a:	290b      	cmp	r1, #11
1000133c:	d80c      	bhi.n	10001358 <XMC_CCU4_SLICE_SetInterruptNode+0x20>
1000133e:	4b07      	ldr	r3, [pc, #28]	; (1000135c <XMC_CCU4_SLICE_SetInterruptNode+0x24>)
10001340:	0089      	lsls	r1, r1, #2
10001342:	58cd      	ldr	r5, [r1, r3]
10001344:	4b06      	ldr	r3, [pc, #24]	; (10001360 <XMC_CCU4_SLICE_SetInterruptNode+0x28>)
10001346:	58cc      	ldr	r4, [r1, r3]
10001348:	2c00      	cmp	r4, #0
1000134a:	d005      	beq.n	10001358 <XMC_CCU4_SLICE_SetInterruptNode+0x20>
1000134c:	21a8      	movs	r1, #168	; 0xa8
1000134e:	40aa      	lsls	r2, r5
10001350:	5843      	ldr	r3, [r0, r1]
10001352:	43a3      	bics	r3, r4
10001354:	431a      	orrs	r2, r3
10001356:	5042      	str	r2, [r0, r1]
10001358:	bd30      	pop	{r4, r5, pc}
1000135a:	46c0      	nop			; (mov r8, r8)
1000135c:	100075fc 	.word	0x100075fc
10001360:	1000762c 	.word	0x1000762c

10001364 <XMC_CCU8_Init>:
10001364:	b538      	push	{r3, r4, r5, lr}
10001366:	23a0      	movs	r3, #160	; 0xa0
10001368:	1c04      	adds	r4, r0, #0
1000136a:	1c0d      	adds	r5, r1, #0
1000136c:	05db      	lsls	r3, r3, #23
1000136e:	4298      	cmp	r0, r3
10001370:	d009      	beq.n	10001386 <XMC_CCU8_Init+0x22>
10001372:	2380      	movs	r3, #128	; 0x80
10001374:	005b      	lsls	r3, r3, #1
10001376:	60e3      	str	r3, [r4, #12]
10001378:	6821      	ldr	r1, [r4, #0]
1000137a:	4b05      	ldr	r3, [pc, #20]	; (10001390 <XMC_CCU8_Init+0x2c>)
1000137c:	400b      	ands	r3, r1
1000137e:	03a9      	lsls	r1, r5, #14
10001380:	4319      	orrs	r1, r3
10001382:	6021      	str	r1, [r4, #0]
10001384:	bd38      	pop	{r3, r4, r5, pc}
10001386:	2002      	movs	r0, #2
10001388:	f7ff fef6 	bl	10001178 <XMC_SCU_CLOCK_UngatePeripheralClock>
1000138c:	e7f1      	b.n	10001372 <XMC_CCU8_Init+0xe>
1000138e:	46c0      	nop			; (mov r8, r8)
10001390:	ffff3fff 	.word	0xffff3fff

10001394 <XMC_CCU8_SLICE_CompareInit>:
10001394:	2301      	movs	r3, #1
10001396:	2214      	movs	r2, #20
10001398:	6103      	str	r3, [r0, #16]
1000139a:	680b      	ldr	r3, [r1, #0]
1000139c:	6143      	str	r3, [r0, #20]
1000139e:	7b4b      	ldrb	r3, [r1, #13]
100013a0:	06db      	lsls	r3, r3, #27
100013a2:	0fdb      	lsrs	r3, r3, #31
100013a4:	051b      	lsls	r3, r3, #20
100013a6:	6043      	str	r3, [r0, #4]
100013a8:	7b0b      	ldrb	r3, [r1, #12]
100013aa:	071b      	lsls	r3, r3, #28
100013ac:	0f1b      	lsrs	r3, r3, #28
100013ae:	6243      	str	r3, [r0, #36]	; 0x24
100013b0:	7b0b      	ldrb	r3, [r1, #12]
100013b2:	091b      	lsrs	r3, r3, #4
100013b4:	62c3      	str	r3, [r0, #44]	; 0x2c
100013b6:	7b4b      	ldrb	r3, [r1, #13]
100013b8:	071b      	lsls	r3, r3, #28
100013ba:	0f1b      	lsrs	r3, r3, #28
100013bc:	6203      	str	r3, [r0, #32]
100013be:	684b      	ldr	r3, [r1, #4]
100013c0:	6183      	str	r3, [r0, #24]
100013c2:	688b      	ldr	r3, [r1, #8]
100013c4:	4053      	eors	r3, r2
100013c6:	6483      	str	r3, [r0, #72]	; 0x48
100013c8:	4770      	bx	lr
100013ca:	46c0      	nop			; (mov r8, r8)

100013cc <XMC_CCU8_SetMultiChannelShadowTransferMode>:
100013cc:	6803      	ldr	r3, [r0, #0]
100013ce:	0c0a      	lsrs	r2, r1, #16
100013d0:	0409      	lsls	r1, r1, #16
100013d2:	4393      	bics	r3, r2
100013d4:	0c09      	lsrs	r1, r1, #16
100013d6:	4319      	orrs	r1, r3
100013d8:	6001      	str	r1, [r0, #0]
100013da:	4770      	bx	lr

100013dc <XMC_CCU8_SLICE_StartConfig>:
100013dc:	b510      	push	{r4, lr}
100013de:	2403      	movs	r4, #3
100013e0:	6843      	ldr	r3, [r0, #4]
100013e2:	43a3      	bics	r3, r4
100013e4:	4319      	orrs	r1, r3
100013e6:	6041      	str	r1, [r0, #4]
100013e8:	6943      	ldr	r3, [r0, #20]
100013ea:	2a01      	cmp	r2, #1
100013ec:	d003      	beq.n	100013f6 <XMC_CCU8_SLICE_StartConfig+0x1a>
100013ee:	4a04      	ldr	r2, [pc, #16]	; (10001400 <XMC_CCU8_SLICE_StartConfig+0x24>)
100013f0:	4013      	ands	r3, r2
100013f2:	6143      	str	r3, [r0, #20]
100013f4:	bd10      	pop	{r4, pc}
100013f6:	2280      	movs	r2, #128	; 0x80
100013f8:	00d2      	lsls	r2, r2, #3
100013fa:	4313      	orrs	r3, r2
100013fc:	e7f9      	b.n	100013f2 <XMC_CCU8_SLICE_StartConfig+0x16>
100013fe:	46c0      	nop			; (mov r8, r8)
10001400:	fffffbff 	.word	0xfffffbff

10001404 <XMC_CCU8_SLICE_StopConfig>:
10001404:	b510      	push	{r4, lr}
10001406:	240c      	movs	r4, #12
10001408:	6843      	ldr	r3, [r0, #4]
1000140a:	0089      	lsls	r1, r1, #2
1000140c:	43a3      	bics	r3, r4
1000140e:	4319      	orrs	r1, r3
10001410:	6041      	str	r1, [r0, #4]
10001412:	6941      	ldr	r1, [r0, #20]
10001414:	4b02      	ldr	r3, [pc, #8]	; (10001420 <XMC_CCU8_SLICE_StopConfig+0x1c>)
10001416:	0212      	lsls	r2, r2, #8
10001418:	400b      	ands	r3, r1
1000141a:	431a      	orrs	r2, r3
1000141c:	6142      	str	r2, [r0, #20]
1000141e:	bd10      	pop	{r4, pc}
10001420:	fffffcff 	.word	0xfffffcff

10001424 <XMC_CCU8_SLICE_LoadConfig>:
10001424:	6842      	ldr	r2, [r0, #4]
10001426:	4b03      	ldr	r3, [pc, #12]	; (10001434 <XMC_CCU8_SLICE_LoadConfig+0x10>)
10001428:	0309      	lsls	r1, r1, #12
1000142a:	4013      	ands	r3, r2
1000142c:	4319      	orrs	r1, r3
1000142e:	6041      	str	r1, [r0, #4]
10001430:	4770      	bx	lr
10001432:	46c0      	nop			; (mov r8, r8)
10001434:	ffffcfff 	.word	0xffffcfff

10001438 <XMC_CCU8_SLICE_LoadSelector>:
10001438:	2280      	movs	r2, #128	; 0x80
1000143a:	6943      	ldr	r3, [r0, #20]
1000143c:	01c9      	lsls	r1, r1, #7
1000143e:	4393      	bics	r3, r2
10001440:	4319      	orrs	r1, r3
10001442:	6141      	str	r1, [r0, #20]
10001444:	4770      	bx	lr
10001446:	46c0      	nop			; (mov r8, r8)

10001448 <XMC_CCU8_SLICE_ModulationConfig>:
10001448:	b570      	push	{r4, r5, r6, lr}
1000144a:	ac04      	add	r4, sp, #16
1000144c:	6846      	ldr	r6, [r0, #4]
1000144e:	7825      	ldrb	r5, [r4, #0]
10001450:	4c0d      	ldr	r4, [pc, #52]	; (10001488 <XMC_CCU8_SLICE_ModulationConfig+0x40>)
10001452:	0489      	lsls	r1, r1, #18
10001454:	4034      	ands	r4, r6
10001456:	4321      	orrs	r1, r4
10001458:	6041      	str	r1, [r0, #4]
1000145a:	6941      	ldr	r1, [r0, #20]
1000145c:	2a01      	cmp	r2, #1
1000145e:	d00f      	beq.n	10001480 <XMC_CCU8_SLICE_ModulationConfig+0x38>
10001460:	4a0a      	ldr	r2, [pc, #40]	; (1000148c <XMC_CCU8_SLICE_ModulationConfig+0x44>)
10001462:	400a      	ands	r2, r1
10001464:	2d00      	cmp	r5, #0
10001466:	d107      	bne.n	10001478 <XMC_CCU8_SLICE_ModulationConfig+0x30>
10001468:	4909      	ldr	r1, [pc, #36]	; (10001490 <XMC_CCU8_SLICE_ModulationConfig+0x48>)
1000146a:	400a      	ands	r2, r1
1000146c:	4909      	ldr	r1, [pc, #36]	; (10001494 <XMC_CCU8_SLICE_ModulationConfig+0x4c>)
1000146e:	06db      	lsls	r3, r3, #27
10001470:	400a      	ands	r2, r1
10001472:	4313      	orrs	r3, r2
10001474:	6143      	str	r3, [r0, #20]
10001476:	bd70      	pop	{r4, r5, r6, pc}
10001478:	2180      	movs	r1, #128	; 0x80
1000147a:	0409      	lsls	r1, r1, #16
1000147c:	430a      	orrs	r2, r1
1000147e:	e7f5      	b.n	1000146c <XMC_CCU8_SLICE_ModulationConfig+0x24>
10001480:	2280      	movs	r2, #128	; 0x80
10001482:	0452      	lsls	r2, r2, #17
10001484:	430a      	orrs	r2, r1
10001486:	e7ed      	b.n	10001464 <XMC_CCU8_SLICE_ModulationConfig+0x1c>
10001488:	fff3ffff 	.word	0xfff3ffff
1000148c:	feffffff 	.word	0xfeffffff
10001490:	ff7fffff 	.word	0xff7fffff
10001494:	e7ffffff 	.word	0xe7ffffff

10001498 <XMC_CCU8_SLICE_CountConfig>:
10001498:	6842      	ldr	r2, [r0, #4]
1000149a:	4b03      	ldr	r3, [pc, #12]	; (100014a8 <XMC_CCU8_SLICE_CountConfig+0x10>)
1000149c:	0389      	lsls	r1, r1, #14
1000149e:	4013      	ands	r3, r2
100014a0:	4319      	orrs	r1, r3
100014a2:	6041      	str	r1, [r0, #4]
100014a4:	4770      	bx	lr
100014a6:	46c0      	nop			; (mov r8, r8)
100014a8:	ffff3fff 	.word	0xffff3fff

100014ac <XMC_CCU8_SLICE_GateConfig>:
100014ac:	6842      	ldr	r2, [r0, #4]
100014ae:	4b03      	ldr	r3, [pc, #12]	; (100014bc <XMC_CCU8_SLICE_GateConfig+0x10>)
100014b0:	0209      	lsls	r1, r1, #8
100014b2:	4013      	ands	r3, r2
100014b4:	4319      	orrs	r1, r3
100014b6:	6041      	str	r1, [r0, #4]
100014b8:	4770      	bx	lr
100014ba:	46c0      	nop			; (mov r8, r8)
100014bc:	fffffcff 	.word	0xfffffcff

100014c0 <XMC_CCU8_SLICE_DirectionConfig>:
100014c0:	6842      	ldr	r2, [r0, #4]
100014c2:	4b03      	ldr	r3, [pc, #12]	; (100014d0 <XMC_CCU8_SLICE_DirectionConfig+0x10>)
100014c4:	0289      	lsls	r1, r1, #10
100014c6:	4013      	ands	r3, r2
100014c8:	4319      	orrs	r1, r3
100014ca:	6041      	str	r1, [r0, #4]
100014cc:	4770      	bx	lr
100014ce:	46c0      	nop			; (mov r8, r8)
100014d0:	fffff3ff 	.word	0xfffff3ff

100014d4 <XMC_CCU8_SLICE_StatusBitOverrideConfig>:
100014d4:	2380      	movs	r3, #128	; 0x80
100014d6:	6842      	ldr	r2, [r0, #4]
100014d8:	025b      	lsls	r3, r3, #9
100014da:	4313      	orrs	r3, r2
100014dc:	6043      	str	r3, [r0, #4]
100014de:	4770      	bx	lr

100014e0 <XMC_CCU8_SLICE_TrapConfig>:
100014e0:	2380      	movs	r3, #128	; 0x80
100014e2:	b510      	push	{r4, lr}
100014e4:	6844      	ldr	r4, [r0, #4]
100014e6:	029b      	lsls	r3, r3, #10
100014e8:	4323      	orrs	r3, r4
100014ea:	6043      	str	r3, [r0, #4]
100014ec:	6943      	ldr	r3, [r0, #20]
100014ee:	2a00      	cmp	r2, #0
100014f0:	d008      	beq.n	10001504 <XMC_CCU8_SLICE_TrapConfig+0x24>
100014f2:	2280      	movs	r2, #128	; 0x80
100014f4:	0392      	lsls	r2, r2, #14
100014f6:	4313      	orrs	r3, r2
100014f8:	2901      	cmp	r1, #1
100014fa:	d007      	beq.n	1000150c <XMC_CCU8_SLICE_TrapConfig+0x2c>
100014fc:	4a05      	ldr	r2, [pc, #20]	; (10001514 <XMC_CCU8_SLICE_TrapConfig+0x34>)
100014fe:	4013      	ands	r3, r2
10001500:	6143      	str	r3, [r0, #20]
10001502:	bd10      	pop	{r4, pc}
10001504:	4a04      	ldr	r2, [pc, #16]	; (10001518 <XMC_CCU8_SLICE_TrapConfig+0x38>)
10001506:	4013      	ands	r3, r2
10001508:	2901      	cmp	r1, #1
1000150a:	d1f7      	bne.n	100014fc <XMC_CCU8_SLICE_TrapConfig+0x1c>
1000150c:	2280      	movs	r2, #128	; 0x80
1000150e:	03d2      	lsls	r2, r2, #15
10001510:	4313      	orrs	r3, r2
10001512:	e7f5      	b.n	10001500 <XMC_CCU8_SLICE_TrapConfig+0x20>
10001514:	ffbfffff 	.word	0xffbfffff
10001518:	ffdfffff 	.word	0xffdfffff

1000151c <XMC_CCU8_SLICE_ConfigureStatusBitOverrideEvent>:
1000151c:	b510      	push	{r4, lr}
1000151e:	4b15      	ldr	r3, [pc, #84]	; (10001574 <XMC_CCU8_SLICE_ConfigureStatusBitOverrideEvent+0x58>)
10001520:	6804      	ldr	r4, [r0, #0]
10001522:	401c      	ands	r4, r3
10001524:	784b      	ldrb	r3, [r1, #1]
10001526:	049b      	lsls	r3, r3, #18
10001528:	4323      	orrs	r3, r4
1000152a:	4c13      	ldr	r4, [pc, #76]	; (10001578 <XMC_CCU8_SLICE_ConfigureStatusBitOverrideEvent+0x5c>)
1000152c:	4023      	ands	r3, r4
1000152e:	7854      	ldrb	r4, [r2, #1]
10001530:	0524      	lsls	r4, r4, #20
10001532:	4323      	orrs	r3, r4
10001534:	4c11      	ldr	r4, [pc, #68]	; (1000157c <XMC_CCU8_SLICE_ConfigureStatusBitOverrideEvent+0x60>)
10001536:	4023      	ands	r3, r4
10001538:	788c      	ldrb	r4, [r1, #2]
1000153a:	05e4      	lsls	r4, r4, #23
1000153c:	4323      	orrs	r3, r4
1000153e:	4c10      	ldr	r4, [pc, #64]	; (10001580 <XMC_CCU8_SLICE_ConfigureStatusBitOverrideEvent+0x64>)
10001540:	4023      	ands	r3, r4
10001542:	7894      	ldrb	r4, [r2, #2]
10001544:	0624      	lsls	r4, r4, #24
10001546:	4323      	orrs	r3, r4
10001548:	4c0e      	ldr	r4, [pc, #56]	; (10001584 <XMC_CCU8_SLICE_ConfigureStatusBitOverrideEvent+0x68>)
1000154a:	4023      	ands	r3, r4
1000154c:	78cc      	ldrb	r4, [r1, #3]
1000154e:	7809      	ldrb	r1, [r1, #0]
10001550:	06e4      	lsls	r4, r4, #27
10001552:	4323      	orrs	r3, r4
10001554:	4c0c      	ldr	r4, [pc, #48]	; (10001588 <XMC_CCU8_SLICE_ConfigureStatusBitOverrideEvent+0x6c>)
10001556:	0109      	lsls	r1, r1, #4
10001558:	4023      	ands	r3, r4
1000155a:	78d4      	ldrb	r4, [r2, #3]
1000155c:	7812      	ldrb	r2, [r2, #0]
1000155e:	0764      	lsls	r4, r4, #29
10001560:	4323      	orrs	r3, r4
10001562:	24f0      	movs	r4, #240	; 0xf0
10001564:	43a3      	bics	r3, r4
10001566:	430b      	orrs	r3, r1
10001568:	4908      	ldr	r1, [pc, #32]	; (1000158c <XMC_CCU8_SLICE_ConfigureStatusBitOverrideEvent+0x70>)
1000156a:	0212      	lsls	r2, r2, #8
1000156c:	400b      	ands	r3, r1
1000156e:	4313      	orrs	r3, r2
10001570:	6003      	str	r3, [r0, #0]
10001572:	bd10      	pop	{r4, pc}
10001574:	fff3ffff 	.word	0xfff3ffff
10001578:	ffcfffff 	.word	0xffcfffff
1000157c:	ff7fffff 	.word	0xff7fffff
10001580:	feffffff 	.word	0xfeffffff
10001584:	e7ffffff 	.word	0xe7ffffff
10001588:	9fffffff 	.word	0x9fffffff
1000158c:	fffff0ff 	.word	0xfffff0ff

10001590 <XMC_CCU8_SLICE_ConfigureEvent>:
10001590:	b5f0      	push	{r4, r5, r6, r7, lr}
10001592:	1e4e      	subs	r6, r1, #1
10001594:	b2f6      	uxtb	r6, r6
10001596:	0074      	lsls	r4, r6, #1
10001598:	b2e4      	uxtb	r4, r4
1000159a:	1c25      	adds	r5, r4, #0
1000159c:	3510      	adds	r5, #16
1000159e:	b2ed      	uxtb	r5, r5
100015a0:	4647      	mov	r7, r8
100015a2:	46ac      	mov	ip, r5
100015a4:	b480      	push	{r7}
100015a6:	2503      	movs	r5, #3
100015a8:	4667      	mov	r7, ip
100015aa:	46a8      	mov	r8, r5
100015ac:	40bd      	lsls	r5, r7
100015ae:	6803      	ldr	r3, [r0, #0]
100015b0:	3115      	adds	r1, #21
100015b2:	43ab      	bics	r3, r5
100015b4:	7855      	ldrb	r5, [r2, #1]
100015b6:	b2c9      	uxtb	r1, r1
100015b8:	40bd      	lsls	r5, r7
100015ba:	432b      	orrs	r3, r5
100015bc:	2501      	movs	r5, #1
100015be:	408d      	lsls	r5, r1
100015c0:	43ab      	bics	r3, r5
100015c2:	7895      	ldrb	r5, [r2, #2]
100015c4:	4647      	mov	r7, r8
100015c6:	408d      	lsls	r5, r1
100015c8:	3419      	adds	r4, #25
100015ca:	432b      	orrs	r3, r5
100015cc:	78d5      	ldrb	r5, [r2, #3]
100015ce:	b2e4      	uxtb	r4, r4
100015d0:	40a7      	lsls	r7, r4
100015d2:	40a5      	lsls	r5, r4
100015d4:	240f      	movs	r4, #15
100015d6:	00b6      	lsls	r6, r6, #2
100015d8:	b2f1      	uxtb	r1, r6
100015da:	7812      	ldrb	r2, [r2, #0]
100015dc:	408c      	lsls	r4, r1
100015de:	408a      	lsls	r2, r1
100015e0:	43bb      	bics	r3, r7
100015e2:	432b      	orrs	r3, r5
100015e4:	43a3      	bics	r3, r4
100015e6:	4313      	orrs	r3, r2
100015e8:	6003      	str	r3, [r0, #0]
100015ea:	bc04      	pop	{r2}
100015ec:	4690      	mov	r8, r2
100015ee:	bdf0      	pop	{r4, r5, r6, r7, pc}

100015f0 <XMC_CCU8_SLICE_SetTimerPeriodMatch>:
100015f0:	6341      	str	r1, [r0, #52]	; 0x34
100015f2:	4770      	bx	lr

100015f4 <XMC_CCU8_SLICE_SetTimerCompareMatch>:
100015f4:	2900      	cmp	r1, #0
100015f6:	d001      	beq.n	100015fc <XMC_CCU8_SLICE_SetTimerCompareMatch+0x8>
100015f8:	6442      	str	r2, [r0, #68]	; 0x44
100015fa:	4770      	bx	lr
100015fc:	63c2      	str	r2, [r0, #60]	; 0x3c
100015fe:	e7fc      	b.n	100015fa <XMC_CCU8_SLICE_SetTimerCompareMatch+0x6>

10001600 <XMC_CCU8_SLICE_SetInterruptNode>:
10001600:	b530      	push	{r4, r5, lr}
10001602:	290b      	cmp	r1, #11
10001604:	d80c      	bhi.n	10001620 <XMC_CCU8_SLICE_SetInterruptNode+0x20>
10001606:	4b07      	ldr	r3, [pc, #28]	; (10001624 <XMC_CCU8_SLICE_SetInterruptNode+0x24>)
10001608:	0089      	lsls	r1, r1, #2
1000160a:	58cc      	ldr	r4, [r1, r3]
1000160c:	4b06      	ldr	r3, [pc, #24]	; (10001628 <XMC_CCU8_SLICE_SetInterruptNode+0x28>)
1000160e:	58cd      	ldr	r5, [r1, r3]
10001610:	2c00      	cmp	r4, #0
10001612:	d005      	beq.n	10001620 <XMC_CCU8_SLICE_SetInterruptNode+0x20>
10001614:	21a8      	movs	r1, #168	; 0xa8
10001616:	40aa      	lsls	r2, r5
10001618:	5843      	ldr	r3, [r0, r1]
1000161a:	43a3      	bics	r3, r4
1000161c:	431a      	orrs	r2, r3
1000161e:	5042      	str	r2, [r0, r1]
10001620:	bd30      	pop	{r4, r5, pc}
10001622:	46c0      	nop			; (mov r8, r8)
10001624:	1000768c 	.word	0x1000768c
10001628:	1000765c 	.word	0x1000765c

1000162c <XMC_CCU8_SLICE_DeadTimeInit>:
1000162c:	684b      	ldr	r3, [r1, #4]
1000162e:	6503      	str	r3, [r0, #80]	; 0x50
10001630:	688b      	ldr	r3, [r1, #8]
10001632:	6543      	str	r3, [r0, #84]	; 0x54
10001634:	680b      	ldr	r3, [r1, #0]
10001636:	64c3      	str	r3, [r0, #76]	; 0x4c
10001638:	4770      	bx	lr
1000163a:	46c0      	nop			; (mov r8, r8)

1000163c <XMC_GPIO_SetHardwareControl>:
1000163c:	b510      	push	{r4, lr}
1000163e:	2403      	movs	r4, #3
10001640:	0049      	lsls	r1, r1, #1
10001642:	408a      	lsls	r2, r1
10001644:	408c      	lsls	r4, r1
10001646:	1c11      	adds	r1, r2, #0
10001648:	6f43      	ldr	r3, [r0, #116]	; 0x74
1000164a:	43a3      	bics	r3, r4
1000164c:	6743      	str	r3, [r0, #116]	; 0x74
1000164e:	6f43      	ldr	r3, [r0, #116]	; 0x74
10001650:	4319      	orrs	r1, r3
10001652:	6741      	str	r1, [r0, #116]	; 0x74
10001654:	bd10      	pop	{r4, pc}
10001656:	46c0      	nop			; (mov r8, r8)

10001658 <XMC_UART_CH_InitEx>:
10001658:	b5f8      	push	{r3, r4, r5, r6, r7, lr}
1000165a:	1c0d      	adds	r5, r1, #0
1000165c:	1c17      	adds	r7, r2, #0
1000165e:	1c04      	adds	r4, r0, #0
10001660:	f000 f866 	bl	10001730 <XMC_USIC_CH_Enable>
10001664:	7a2a      	ldrb	r2, [r5, #8]
10001666:	2a00      	cmp	r2, #0
10001668:	d02b      	beq.n	100016c2 <XMC_UART_CH_InitEx+0x6a>
1000166a:	0856      	lsrs	r6, r2, #1
1000166c:	3601      	adds	r6, #1
1000166e:	0236      	lsls	r6, r6, #8
10001670:	2f00      	cmp	r7, #0
10001672:	d006      	beq.n	10001682 <XMC_UART_CH_InitEx+0x2a>
10001674:	792b      	ldrb	r3, [r5, #4]
10001676:	1c20      	adds	r0, r4, #0
10001678:	6829      	ldr	r1, [r5, #0]
1000167a:	2b00      	cmp	r3, #0
1000167c:	d025      	beq.n	100016ca <XMC_UART_CH_InitEx+0x72>
1000167e:	f000 f8cf 	bl	10001820 <XMC_USIC_CH_SetBaudrateEx>
10001682:	79ea      	ldrb	r2, [r5, #7]
10001684:	1e53      	subs	r3, r2, #1
10001686:	005a      	lsls	r2, r3, #1
10001688:	4b14      	ldr	r3, [pc, #80]	; (100016dc <XMC_UART_CH_InitEx+0x84>)
1000168a:	4313      	orrs	r3, r2
1000168c:	2281      	movs	r2, #129	; 0x81
1000168e:	4333      	orrs	r3, r6
10001690:	63e3      	str	r3, [r4, #60]	; 0x3c
10001692:	796b      	ldrb	r3, [r5, #5]
10001694:	0052      	lsls	r2, r2, #1
10001696:	3b01      	subs	r3, #1
10001698:	061b      	lsls	r3, r3, #24
1000169a:	4313      	orrs	r3, r2
1000169c:	6363      	str	r3, [r4, #52]	; 0x34
1000169e:	79ab      	ldrb	r3, [r5, #6]
100016a0:	2b00      	cmp	r3, #0
100016a2:	d115      	bne.n	100016d0 <XMC_UART_CH_InitEx+0x78>
100016a4:	796a      	ldrb	r2, [r5, #5]
100016a6:	6b61      	ldr	r1, [r4, #52]	; 0x34
100016a8:	1e53      	subs	r3, r2, #1
100016aa:	041b      	lsls	r3, r3, #16
100016ac:	430b      	orrs	r3, r1
100016ae:	6363      	str	r3, [r4, #52]	; 0x34
100016b0:	23a0      	movs	r3, #160	; 0xa0
100016b2:	00db      	lsls	r3, r3, #3
100016b4:	63a3      	str	r3, [r4, #56]	; 0x38
100016b6:	2301      	movs	r3, #1
100016b8:	425b      	negs	r3, r3
100016ba:	64e3      	str	r3, [r4, #76]	; 0x4c
100016bc:	896b      	ldrh	r3, [r5, #10]
100016be:	6423      	str	r3, [r4, #64]	; 0x40
100016c0:	bdf8      	pop	{r3, r4, r5, r6, r7, pc}
100016c2:	2690      	movs	r6, #144	; 0x90
100016c4:	2210      	movs	r2, #16
100016c6:	0136      	lsls	r6, r6, #4
100016c8:	e7d2      	b.n	10001670 <XMC_UART_CH_InitEx+0x18>
100016ca:	f000 f851 	bl	10001770 <XMC_USIC_CH_SetBaudrate>
100016ce:	e7d8      	b.n	10001682 <XMC_UART_CH_InitEx+0x2a>
100016d0:	6b62      	ldr	r2, [r4, #52]	; 0x34
100016d2:	3b01      	subs	r3, #1
100016d4:	041b      	lsls	r3, r3, #16
100016d6:	4313      	orrs	r3, r2
100016d8:	6363      	str	r3, [r4, #52]	; 0x34
100016da:	e7e9      	b.n	100016b0 <XMC_UART_CH_InitEx+0x58>
100016dc:	00030001 	.word	0x00030001

100016e0 <XMC_UART_CH_Transmit>:
100016e0:	2384      	movs	r3, #132	; 0x84
100016e2:	005b      	lsls	r3, r3, #1
100016e4:	58c2      	ldr	r2, [r0, r3]
100016e6:	23e0      	movs	r3, #224	; 0xe0
100016e8:	04db      	lsls	r3, r3, #19
100016ea:	421a      	tst	r2, r3
100016ec:	d10b      	bne.n	10001706 <XMC_UART_CH_Transmit+0x26>
100016ee:	227f      	movs	r2, #127	; 0x7f
100016f0:	6b83      	ldr	r3, [r0, #56]	; 0x38
100016f2:	4393      	bics	r3, r2
100016f4:	b2db      	uxtb	r3, r3
100016f6:	2b80      	cmp	r3, #128	; 0x80
100016f8:	d0fa      	beq.n	100016f0 <XMC_UART_CH_Transmit+0x10>
100016fa:	2380      	movs	r3, #128	; 0x80
100016fc:	019b      	lsls	r3, r3, #6
100016fe:	64c3      	str	r3, [r0, #76]	; 0x4c
10001700:	2380      	movs	r3, #128	; 0x80
10001702:	50c1      	str	r1, [r0, r3]
10001704:	4770      	bx	lr
10001706:	23c0      	movs	r3, #192	; 0xc0
10001708:	005b      	lsls	r3, r3, #1
1000170a:	50c1      	str	r1, [r0, r3]
1000170c:	e7fa      	b.n	10001704 <XMC_UART_CH_Transmit+0x24>
1000170e:	46c0      	nop			; (mov r8, r8)

10001710 <XMC_UART_CH_GetReceivedData>:
10001710:	2386      	movs	r3, #134	; 0x86
10001712:	005b      	lsls	r3, r3, #1
10001714:	58c2      	ldr	r2, [r0, r3]
10001716:	23e0      	movs	r3, #224	; 0xe0
10001718:	04db      	lsls	r3, r3, #19
1000171a:	421a      	tst	r2, r3
1000171c:	d004      	beq.n	10001728 <XMC_UART_CH_GetReceivedData+0x18>
1000171e:	238e      	movs	r3, #142	; 0x8e
10001720:	005b      	lsls	r3, r3, #1
10001722:	58c0      	ldr	r0, [r0, r3]
10001724:	b280      	uxth	r0, r0
10001726:	4770      	bx	lr
10001728:	6d40      	ldr	r0, [r0, #84]	; 0x54
1000172a:	b280      	uxth	r0, r0
1000172c:	e7fb      	b.n	10001726 <XMC_UART_CH_GetReceivedData+0x16>
1000172e:	46c0      	nop			; (mov r8, r8)

10001730 <XMC_USIC_CH_Enable>:
10001730:	2390      	movs	r3, #144	; 0x90
10001732:	b510      	push	{r4, lr}
10001734:	05db      	lsls	r3, r3, #23
10001736:	1e04      	subs	r4, r0, #0
10001738:	429c      	cmp	r4, r3
1000173a:	d00d      	beq.n	10001758 <XMC_USIC_CH_Enable+0x28>
1000173c:	4b0b      	ldr	r3, [pc, #44]	; (1000176c <XMC_USIC_CH_Enable+0x3c>)
1000173e:	4298      	cmp	r0, r3
10001740:	d00a      	beq.n	10001758 <XMC_USIC_CH_Enable+0x28>
10001742:	2303      	movs	r3, #3
10001744:	2201      	movs	r2, #1
10001746:	60e3      	str	r3, [r4, #12]
10001748:	68e3      	ldr	r3, [r4, #12]
1000174a:	421a      	tst	r2, r3
1000174c:	d0fc      	beq.n	10001748 <XMC_USIC_CH_Enable+0x18>
1000174e:	220f      	movs	r2, #15
10001750:	6c23      	ldr	r3, [r4, #64]	; 0x40
10001752:	4393      	bics	r3, r2
10001754:	6423      	str	r3, [r4, #64]	; 0x40
10001756:	bd10      	pop	{r4, pc}
10001758:	2008      	movs	r0, #8
1000175a:	f7ff fd0d 	bl	10001178 <XMC_SCU_CLOCK_UngatePeripheralClock>
1000175e:	2008      	movs	r0, #8
10001760:	f7ff fd22 	bl	100011a8 <XMC_SCU_CLOCK_IsPeripheralClockGated>
10001764:	2800      	cmp	r0, #0
10001766:	d1fa      	bne.n	1000175e <XMC_USIC_CH_Enable+0x2e>
10001768:	e7eb      	b.n	10001742 <XMC_USIC_CH_Enable+0x12>
1000176a:	46c0      	nop			; (mov r8, r8)
1000176c:	48000200 	.word	0x48000200

10001770 <XMC_USIC_CH_SetBaudrate>:
10001770:	b5f0      	push	{r4, r5, r6, r7, lr}
10001772:	465f      	mov	r7, fp
10001774:	4656      	mov	r6, sl
10001776:	464d      	mov	r5, r9
10001778:	4644      	mov	r4, r8
1000177a:	b4f0      	push	{r4, r5, r6, r7}
1000177c:	2301      	movs	r3, #1
1000177e:	b083      	sub	sp, #12
10001780:	2963      	cmp	r1, #99	; 0x63
10001782:	d901      	bls.n	10001788 <XMC_USIC_CH_SetBaudrate+0x18>
10001784:	2a00      	cmp	r2, #0
10001786:	d107      	bne.n	10001798 <XMC_USIC_CH_SetBaudrate+0x28>
10001788:	1c18      	adds	r0, r3, #0
1000178a:	b003      	add	sp, #12
1000178c:	bc3c      	pop	{r2, r3, r4, r5}
1000178e:	4690      	mov	r8, r2
10001790:	4699      	mov	r9, r3
10001792:	46a2      	mov	sl, r4
10001794:	46ab      	mov	fp, r5
10001796:	bdf0      	pop	{r4, r5, r6, r7, pc}
10001798:	1c16      	adds	r6, r2, #0
1000179a:	1c0c      	adds	r4, r1, #0
1000179c:	9201      	str	r2, [sp, #4]
1000179e:	9000      	str	r0, [sp, #0]
100017a0:	f7ff fd94 	bl	100012cc <XMC_SCU_CLOCK_GetPeripheralClockFrequency>
100017a4:	2164      	movs	r1, #100	; 0x64
100017a6:	f001 fe5b 	bl	10003460 <__aeabi_uidiv>
100017aa:	2164      	movs	r1, #100	; 0x64
100017ac:	1c07      	adds	r7, r0, #0
100017ae:	1c20      	adds	r0, r4, #0
100017b0:	f001 fe56 	bl	10003460 <__aeabi_uidiv>
100017b4:	4b18      	ldr	r3, [pc, #96]	; (10001818 <XMC_USIC_CH_SetBaudrate+0xa8>)
100017b6:	4346      	muls	r6, r0
100017b8:	4699      	mov	r9, r3
100017ba:	2301      	movs	r3, #1
100017bc:	469a      	mov	sl, r3
100017be:	2380      	movs	r3, #128	; 0x80
100017c0:	00db      	lsls	r3, r3, #3
100017c2:	469b      	mov	fp, r3
100017c4:	1c1c      	adds	r4, r3, #0
100017c6:	4698      	mov	r8, r3
100017c8:	02bd      	lsls	r5, r7, #10
100017ca:	1c28      	adds	r0, r5, #0
100017cc:	1c31      	adds	r1, r6, #0
100017ce:	f001 fe47 	bl	10003460 <__aeabi_uidiv>
100017d2:	0a83      	lsrs	r3, r0, #10
100017d4:	4543      	cmp	r3, r8
100017d6:	d806      	bhi.n	100017e6 <XMC_USIC_CH_SetBaudrate+0x76>
100017d8:	0580      	lsls	r0, r0, #22
100017da:	0d80      	lsrs	r0, r0, #22
100017dc:	4548      	cmp	r0, r9
100017de:	d202      	bcs.n	100017e6 <XMC_USIC_CH_SetBaudrate+0x76>
100017e0:	4681      	mov	r9, r0
100017e2:	469a      	mov	sl, r3
100017e4:	46a3      	mov	fp, r4
100017e6:	3c01      	subs	r4, #1
100017e8:	1bed      	subs	r5, r5, r7
100017ea:	2c00      	cmp	r4, #0
100017ec:	d1ed      	bne.n	100017ca <XMC_USIC_CH_SetBaudrate+0x5a>
100017ee:	465b      	mov	r3, fp
100017f0:	2280      	movs	r2, #128	; 0x80
100017f2:	9800      	ldr	r0, [sp, #0]
100017f4:	0212      	lsls	r2, r2, #8
100017f6:	3b01      	subs	r3, #1
100017f8:	4313      	orrs	r3, r2
100017fa:	6103      	str	r3, [r0, #16]
100017fc:	9a01      	ldr	r2, [sp, #4]
100017fe:	6941      	ldr	r1, [r0, #20]
10001800:	4b06      	ldr	r3, [pc, #24]	; (1000181c <XMC_USIC_CH_SetBaudrate+0xac>)
10001802:	3a01      	subs	r2, #1
10001804:	0292      	lsls	r2, r2, #10
10001806:	400b      	ands	r3, r1
10001808:	4313      	orrs	r3, r2
1000180a:	4652      	mov	r2, sl
1000180c:	3a01      	subs	r2, #1
1000180e:	0412      	lsls	r2, r2, #16
10001810:	4313      	orrs	r3, r2
10001812:	6143      	str	r3, [r0, #20]
10001814:	2300      	movs	r3, #0
10001816:	e7b7      	b.n	10001788 <XMC_USIC_CH_SetBaudrate+0x18>
10001818:	000003ff 	.word	0x000003ff
1000181c:	fc0080ef 	.word	0xfc0080ef

10001820 <XMC_USIC_CH_SetBaudrateEx>:
10001820:	b5f0      	push	{r4, r5, r6, r7, lr}
10001822:	465f      	mov	r7, fp
10001824:	4644      	mov	r4, r8
10001826:	4656      	mov	r6, sl
10001828:	464d      	mov	r5, r9
1000182a:	4692      	mov	sl, r2
1000182c:	b4f0      	push	{r4, r5, r6, r7}
1000182e:	b083      	sub	sp, #12
10001830:	1c0c      	adds	r4, r1, #0
10001832:	4683      	mov	fp, r0
10001834:	9101      	str	r1, [sp, #4]
10001836:	f7ff fd49 	bl	100012cc <XMC_SCU_CLOCK_GetPeripheralClockFrequency>
1000183a:	4653      	mov	r3, sl
1000183c:	4363      	muls	r3, r4
1000183e:	1c07      	adds	r7, r0, #0
10001840:	4698      	mov	r8, r3
10001842:	2001      	movs	r0, #1
10001844:	429f      	cmp	r7, r3
10001846:	dd46      	ble.n	100018d6 <XMC_USIC_CH_SetBaudrateEx+0xb6>
10001848:	1c19      	adds	r1, r3, #0
1000184a:	1c38      	adds	r0, r7, #0
1000184c:	f001 fe98 	bl	10003580 <__aeabi_idiv>
10001850:	4b27      	ldr	r3, [pc, #156]	; (100018f0 <XMC_USIC_CH_SetBaudrateEx+0xd0>)
10001852:	1e06      	subs	r6, r0, #0
10001854:	429e      	cmp	r6, r3
10001856:	d947      	bls.n	100018e8 <XMC_USIC_CH_SetBaudrateEx+0xc8>
10001858:	4642      	mov	r2, r8
1000185a:	2501      	movs	r5, #1
1000185c:	4699      	mov	r9, r3
1000185e:	0054      	lsls	r4, r2, #1
10001860:	1c21      	adds	r1, r4, #0
10001862:	1c38      	adds	r0, r7, #0
10001864:	f001 fe8c 	bl	10003580 <__aeabi_idiv>
10001868:	3501      	adds	r5, #1
1000186a:	1c06      	adds	r6, r0, #0
1000186c:	4444      	add	r4, r8
1000186e:	4548      	cmp	r0, r9
10001870:	d8f6      	bhi.n	10001860 <XMC_USIC_CH_SetBaudrateEx+0x40>
10001872:	1e6b      	subs	r3, r5, #1
10001874:	041b      	lsls	r3, r3, #16
10001876:	4699      	mov	r9, r3
10001878:	4651      	mov	r1, sl
1000187a:	4369      	muls	r1, r5
1000187c:	1c73      	adds	r3, r6, #1
1000187e:	4359      	muls	r1, r3
10001880:	1c38      	adds	r0, r7, #0
10001882:	4698      	mov	r8, r3
10001884:	f001 fdec 	bl	10003460 <__aeabi_uidiv>
10001888:	9b01      	ldr	r3, [sp, #4]
1000188a:	1c29      	adds	r1, r5, #0
1000188c:	1a1c      	subs	r4, r3, r0
1000188e:	17e2      	asrs	r2, r4, #31
10001890:	18a4      	adds	r4, r4, r2
10001892:	4054      	eors	r4, r2
10001894:	4652      	mov	r2, sl
10001896:	4371      	muls	r1, r6
10001898:	1c38      	adds	r0, r7, #0
1000189a:	4351      	muls	r1, r2
1000189c:	f001 fde0 	bl	10003460 <__aeabi_uidiv>
100018a0:	9b01      	ldr	r3, [sp, #4]
100018a2:	1a18      	subs	r0, r3, r0
100018a4:	17c3      	asrs	r3, r0, #31
100018a6:	18c0      	adds	r0, r0, r3
100018a8:	4058      	eors	r0, r3
100018aa:	4284      	cmp	r4, r0
100018ac:	db1a      	blt.n	100018e4 <XMC_USIC_CH_SetBaudrateEx+0xc4>
100018ae:	2380      	movs	r3, #128	; 0x80
100018b0:	00db      	lsls	r3, r3, #3
100018b2:	1b9e      	subs	r6, r3, r6
100018b4:	2380      	movs	r3, #128	; 0x80
100018b6:	01db      	lsls	r3, r3, #7
100018b8:	431e      	orrs	r6, r3
100018ba:	465b      	mov	r3, fp
100018bc:	611e      	str	r6, [r3, #16]
100018be:	6959      	ldr	r1, [r3, #20]
100018c0:	4653      	mov	r3, sl
100018c2:	4a0c      	ldr	r2, [pc, #48]	; (100018f4 <XMC_USIC_CH_SetBaudrateEx+0xd4>)
100018c4:	3b01      	subs	r3, #1
100018c6:	400a      	ands	r2, r1
100018c8:	029b      	lsls	r3, r3, #10
100018ca:	4313      	orrs	r3, r2
100018cc:	464a      	mov	r2, r9
100018ce:	4313      	orrs	r3, r2
100018d0:	465a      	mov	r2, fp
100018d2:	2000      	movs	r0, #0
100018d4:	6153      	str	r3, [r2, #20]
100018d6:	b003      	add	sp, #12
100018d8:	bc3c      	pop	{r2, r3, r4, r5}
100018da:	4690      	mov	r8, r2
100018dc:	4699      	mov	r9, r3
100018de:	46a2      	mov	sl, r4
100018e0:	46ab      	mov	fp, r5
100018e2:	bdf0      	pop	{r4, r5, r6, r7, pc}
100018e4:	4646      	mov	r6, r8
100018e6:	e7e2      	b.n	100018ae <XMC_USIC_CH_SetBaudrateEx+0x8e>
100018e8:	2300      	movs	r3, #0
100018ea:	2501      	movs	r5, #1
100018ec:	4699      	mov	r9, r3
100018ee:	e7c3      	b.n	10001878 <XMC_USIC_CH_SetBaudrateEx+0x58>
100018f0:	000003fe 	.word	0x000003fe
100018f4:	fc0080ef 	.word	0xfc0080ef

100018f8 <XMC_USIC_CH_TXFIFO_Configure>:
100018f8:	b570      	push	{r4, r5, r6, lr}
100018fa:	2584      	movs	r5, #132	; 0x84
100018fc:	006d      	lsls	r5, r5, #1
100018fe:	5946      	ldr	r6, [r0, r5]
10001900:	4c06      	ldr	r4, [pc, #24]	; (1000191c <XMC_USIC_CH_TXFIFO_Configure+0x24>)
10001902:	0612      	lsls	r2, r2, #24
10001904:	4034      	ands	r4, r6
10001906:	5144      	str	r4, [r0, r5]
10001908:	5946      	ldr	r6, [r0, r5]
1000190a:	4c05      	ldr	r4, [pc, #20]	; (10001920 <XMC_USIC_CH_TXFIFO_Configure+0x28>)
1000190c:	021b      	lsls	r3, r3, #8
1000190e:	4034      	ands	r4, r6
10001910:	4321      	orrs	r1, r4
10001912:	430a      	orrs	r2, r1
10001914:	4313      	orrs	r3, r2
10001916:	5143      	str	r3, [r0, r5]
10001918:	bd70      	pop	{r4, r5, r6, pc}
1000191a:	46c0      	nop			; (mov r8, r8)
1000191c:	f8ffffff 	.word	0xf8ffffff
10001920:	f8ffc0c0 	.word	0xf8ffc0c0

10001924 <XMC_USIC_CH_RXFIFO_Configure>:
10001924:	b570      	push	{r4, r5, r6, lr}
10001926:	2686      	movs	r6, #134	; 0x86
10001928:	0076      	lsls	r6, r6, #1
1000192a:	5985      	ldr	r5, [r0, r6]
1000192c:	4c07      	ldr	r4, [pc, #28]	; (1000194c <XMC_USIC_CH_RXFIFO_Configure+0x28>)
1000192e:	0612      	lsls	r2, r2, #24
10001930:	402c      	ands	r4, r5
10001932:	5184      	str	r4, [r0, r6]
10001934:	5984      	ldr	r4, [r0, r6]
10001936:	4d06      	ldr	r5, [pc, #24]	; (10001950 <XMC_USIC_CH_RXFIFO_Configure+0x2c>)
10001938:	021b      	lsls	r3, r3, #8
1000193a:	4025      	ands	r5, r4
1000193c:	2480      	movs	r4, #128	; 0x80
1000193e:	0564      	lsls	r4, r4, #21
10001940:	432c      	orrs	r4, r5
10001942:	4321      	orrs	r1, r4
10001944:	430a      	orrs	r2, r1
10001946:	4313      	orrs	r3, r2
10001948:	5183      	str	r3, [r0, r6]
1000194a:	bd70      	pop	{r4, r5, r6, pc}
1000194c:	f8ffffff 	.word	0xf8ffffff
10001950:	efffc0c0 	.word	0xefffc0c0

10001954 <XMC_USIC_CH_RXFIFO_SetSizeTriggerLimit>:
10001954:	2186      	movs	r1, #134	; 0x86
10001956:	b510      	push	{r4, lr}
10001958:	0049      	lsls	r1, r1, #1
1000195a:	5844      	ldr	r4, [r0, r1]
1000195c:	4b02      	ldr	r3, [pc, #8]	; (10001968 <XMC_USIC_CH_RXFIFO_SetSizeTriggerLimit+0x14>)
1000195e:	0212      	lsls	r2, r2, #8
10001960:	4023      	ands	r3, r4
10001962:	431a      	orrs	r2, r3
10001964:	5042      	str	r2, [r0, r1]
10001966:	bd10      	pop	{r4, pc}
10001968:	ffffc0ff 	.word	0xffffc0ff

1000196c <XMC_USIC_CH_SetInterruptNodePointer>:
1000196c:	b510      	push	{r4, lr}
1000196e:	2407      	movs	r4, #7
10001970:	408c      	lsls	r4, r1
10001972:	408a      	lsls	r2, r1
10001974:	6983      	ldr	r3, [r0, #24]
10001976:	43a3      	bics	r3, r4
10001978:	4313      	orrs	r3, r2
1000197a:	6183      	str	r3, [r0, #24]
1000197c:	bd10      	pop	{r4, pc}
1000197e:	46c0      	nop			; (mov r8, r8)

10001980 <XMC_USIC_CH_TXFIFO_SetInterruptNodePointer>:
10001980:	b530      	push	{r4, r5, lr}
10001982:	2407      	movs	r4, #7
10001984:	2584      	movs	r5, #132	; 0x84
10001986:	408c      	lsls	r4, r1
10001988:	408a      	lsls	r2, r1
1000198a:	006d      	lsls	r5, r5, #1
1000198c:	5943      	ldr	r3, [r0, r5]
1000198e:	43a3      	bics	r3, r4
10001990:	4313      	orrs	r3, r2
10001992:	5143      	str	r3, [r0, r5]
10001994:	bd30      	pop	{r4, r5, pc}
10001996:	46c0      	nop			; (mov r8, r8)

10001998 <XMC_USIC_CH_RXFIFO_SetInterruptNodePointer>:
10001998:	b530      	push	{r4, r5, lr}
1000199a:	2407      	movs	r4, #7
1000199c:	2586      	movs	r5, #134	; 0x86
1000199e:	408c      	lsls	r4, r1
100019a0:	408a      	lsls	r2, r1
100019a2:	006d      	lsls	r5, r5, #1
100019a4:	5943      	ldr	r3, [r0, r5]
100019a6:	43a3      	bics	r3, r4
100019a8:	4313      	orrs	r3, r2
100019aa:	5143      	str	r3, [r0, r5]
100019ac:	bd30      	pop	{r4, r5, pc}
100019ae:	46c0      	nop			; (mov r8, r8)

100019b0 <XMC_VADC_GLOBAL_Init>:
100019b0:	22ff      	movs	r2, #255	; 0xff
100019b2:	b538      	push	{r3, r4, r5, lr}
100019b4:	1c0d      	adds	r5, r1, #0
100019b6:	1c04      	adds	r4, r0, #0
100019b8:	4b0d      	ldr	r3, [pc, #52]	; (100019f0 <XMC_VADC_GLOBAL_Init+0x40>)
100019ba:	2001      	movs	r0, #1
100019bc:	601a      	str	r2, [r3, #0]
100019be:	f7ff fbdb 	bl	10001178 <XMC_SCU_CLOCK_UngatePeripheralClock>
100019c2:	696b      	ldr	r3, [r5, #20]
100019c4:	6023      	str	r3, [r4, #0]
100019c6:	2380      	movs	r3, #128	; 0x80
100019c8:	686a      	ldr	r2, [r5, #4]
100019ca:	021b      	lsls	r3, r3, #8
100019cc:	4313      	orrs	r3, r2
100019ce:	2280      	movs	r2, #128	; 0x80
100019d0:	50a3      	str	r3, [r4, r2]
100019d2:	23a0      	movs	r3, #160	; 0xa0
100019d4:	68aa      	ldr	r2, [r5, #8]
100019d6:	50e2      	str	r2, [r4, r3]
100019d8:	68ea      	ldr	r2, [r5, #12]
100019da:	3304      	adds	r3, #4
100019dc:	50e2      	str	r2, [r4, r3]
100019de:	692a      	ldr	r2, [r5, #16]
100019e0:	33dd      	adds	r3, #221	; 0xdd
100019e2:	33ff      	adds	r3, #255	; 0xff
100019e4:	50e2      	str	r2, [r4, r3]
100019e6:	682a      	ldr	r2, [r5, #0]
100019e8:	3bc9      	subs	r3, #201	; 0xc9
100019ea:	3bff      	subs	r3, #255	; 0xff
100019ec:	50e2      	str	r2, [r4, r3]
100019ee:	bd38      	pop	{r3, r4, r5, pc}
100019f0:	40010500 	.word	0x40010500

100019f4 <XMC_VADC_GLOBAL_InputClassInit>:
100019f4:	2a00      	cmp	r2, #0
100019f6:	d005      	beq.n	10001a04 <XMC_VADC_GLOBAL_InputClassInit+0x10>
100019f8:	4a05      	ldr	r2, [pc, #20]	; (10001a10 <XMC_VADC_GLOBAL_InputClassInit+0x1c>)
100019fa:	3328      	adds	r3, #40	; 0x28
100019fc:	4011      	ands	r1, r2
100019fe:	009b      	lsls	r3, r3, #2
10001a00:	5019      	str	r1, [r3, r0]
10001a02:	4770      	bx	lr
10001a04:	4a03      	ldr	r2, [pc, #12]	; (10001a14 <XMC_VADC_GLOBAL_InputClassInit+0x20>)
10001a06:	3328      	adds	r3, #40	; 0x28
10001a08:	4011      	ands	r1, r2
10001a0a:	009b      	lsls	r3, r3, #2
10001a0c:	5019      	str	r1, [r3, r0]
10001a0e:	e7f8      	b.n	10001a02 <XMC_VADC_GLOBAL_InputClassInit+0xe>
10001a10:	071f0000 	.word	0x071f0000
10001a14:	0000071f 	.word	0x0000071f

10001a18 <XMC_VADC_GLOBAL_StartupCalibration>:
10001a18:	2280      	movs	r2, #128	; 0x80
10001a1a:	2180      	movs	r1, #128	; 0x80
10001a1c:	5883      	ldr	r3, [r0, r2]
10001a1e:	0609      	lsls	r1, r1, #24
10001a20:	430b      	orrs	r3, r1
10001a22:	b5f0      	push	{r4, r5, r6, r7, lr}
10001a24:	5083      	str	r3, [r0, r2]
10001a26:	26c0      	movs	r6, #192	; 0xc0
10001a28:	2480      	movs	r4, #128	; 0x80
10001a2a:	2080      	movs	r0, #128	; 0x80
10001a2c:	2500      	movs	r5, #0
10001a2e:	4f0c      	ldr	r7, [pc, #48]	; (10001a60 <XMC_VADC_GLOBAL_StartupCalibration+0x48>)
10001a30:	02b6      	lsls	r6, r6, #10
10001a32:	05a4      	lsls	r4, r4, #22
10001a34:	0540      	lsls	r0, r0, #21
10001a36:	597b      	ldr	r3, [r7, r5]
10001a38:	5899      	ldr	r1, [r3, r2]
10001a3a:	4231      	tst	r1, r6
10001a3c:	d104      	bne.n	10001a48 <XMC_VADC_GLOBAL_StartupCalibration+0x30>
10001a3e:	3504      	adds	r5, #4
10001a40:	2d08      	cmp	r5, #8
10001a42:	d1f8      	bne.n	10001a36 <XMC_VADC_GLOBAL_StartupCalibration+0x1e>
10001a44:	bdf0      	pop	{r4, r5, r6, r7, pc}
10001a46:	46c0      	nop			; (mov r8, r8)
10001a48:	5899      	ldr	r1, [r3, r2]
10001a4a:	4221      	tst	r1, r4
10001a4c:	d0fb      	beq.n	10001a46 <XMC_VADC_GLOBAL_StartupCalibration+0x2e>
10001a4e:	5899      	ldr	r1, [r3, r2]
10001a50:	4201      	tst	r1, r0
10001a52:	d0f4      	beq.n	10001a3e <XMC_VADC_GLOBAL_StartupCalibration+0x26>
10001a54:	46c0      	nop			; (mov r8, r8)
10001a56:	5899      	ldr	r1, [r3, r2]
10001a58:	4201      	tst	r1, r0
10001a5a:	d1fb      	bne.n	10001a54 <XMC_VADC_GLOBAL_StartupCalibration+0x3c>
10001a5c:	e7ef      	b.n	10001a3e <XMC_VADC_GLOBAL_StartupCalibration+0x26>
10001a5e:	46c0      	nop			; (mov r8, r8)
10001a60:	100076bc 	.word	0x100076bc

10001a64 <XMC_VADC_GLOBAL_BackgroundSetReqSrcEventInterruptNode>:
10001a64:	b510      	push	{r4, lr}
10001a66:	2903      	cmp	r1, #3
10001a68:	d900      	bls.n	10001a6c <XMC_VADC_GLOBAL_BackgroundSetReqSrcEventInterruptNode+0x8>
10001a6a:	3904      	subs	r1, #4
10001a6c:	23a0      	movs	r3, #160	; 0xa0
10001a6e:	240f      	movs	r4, #15
10001a70:	005b      	lsls	r3, r3, #1
10001a72:	58c2      	ldr	r2, [r0, r3]
10001a74:	43a2      	bics	r2, r4
10001a76:	50c2      	str	r2, [r0, r3]
10001a78:	58c2      	ldr	r2, [r0, r3]
10001a7a:	4311      	orrs	r1, r2
10001a7c:	50c1      	str	r1, [r0, r3]
10001a7e:	bd10      	pop	{r4, pc}

10001a80 <XMC_VADC_GROUP_Init>:
10001a80:	23a0      	movs	r3, #160	; 0xa0
10001a82:	58c2      	ldr	r2, [r0, r3]
10001a84:	469c      	mov	ip, r3
10001a86:	4b30      	ldr	r3, [pc, #192]	; (10001b48 <XMC_VADC_GROUP_Init+0xc8>)
10001a88:	b5f0      	push	{r4, r5, r6, r7, lr}
10001a8a:	401a      	ands	r2, r3
10001a8c:	1c14      	adds	r4, r2, #0
10001a8e:	271f      	movs	r7, #31
10001a90:	794a      	ldrb	r2, [r1, #5]
10001a92:	4d2e      	ldr	r5, [pc, #184]	; (10001b4c <XMC_VADC_GROUP_Init+0xcc>)
10001a94:	0752      	lsls	r2, r2, #29
10001a96:	0d52      	lsrs	r2, r2, #21
10001a98:	4322      	orrs	r2, r4
10001a9a:	790c      	ldrb	r4, [r1, #4]
10001a9c:	43ba      	bics	r2, r7
10001a9e:	06e4      	lsls	r4, r4, #27
10001aa0:	0ee4      	lsrs	r4, r4, #27
10001aa2:	4322      	orrs	r2, r4
10001aa4:	4664      	mov	r4, ip
10001aa6:	5102      	str	r2, [r0, r4]
10001aa8:	5902      	ldr	r2, [r0, r4]
10001aaa:	4e29      	ldr	r6, [pc, #164]	; (10001b50 <XMC_VADC_GROUP_Init+0xd0>)
10001aac:	402a      	ands	r2, r5
10001aae:	1c14      	adds	r4, r2, #0
10001ab0:	79ca      	ldrb	r2, [r1, #7]
10001ab2:	0752      	lsls	r2, r2, #29
10001ab4:	0952      	lsrs	r2, r2, #5
10001ab6:	4322      	orrs	r2, r4
10001ab8:	798c      	ldrb	r4, [r1, #6]
10001aba:	4032      	ands	r2, r6
10001abc:	06e4      	lsls	r4, r4, #27
10001abe:	0ae4      	lsrs	r4, r4, #11
10001ac0:	4322      	orrs	r2, r4
10001ac2:	4664      	mov	r4, ip
10001ac4:	5102      	str	r2, [r0, r4]
10001ac6:	3404      	adds	r4, #4
10001ac8:	5902      	ldr	r2, [r0, r4]
10001aca:	401a      	ands	r2, r3
10001acc:	7a4b      	ldrb	r3, [r1, #9]
10001ace:	075b      	lsls	r3, r3, #29
10001ad0:	0d5b      	lsrs	r3, r3, #21
10001ad2:	4313      	orrs	r3, r2
10001ad4:	7a0a      	ldrb	r2, [r1, #8]
10001ad6:	43bb      	bics	r3, r7
10001ad8:	06d2      	lsls	r2, r2, #27
10001ada:	0ed2      	lsrs	r2, r2, #27
10001adc:	4313      	orrs	r3, r2
10001ade:	5103      	str	r3, [r0, r4]
10001ae0:	5903      	ldr	r3, [r0, r4]
10001ae2:	7a8a      	ldrb	r2, [r1, #10]
10001ae4:	401d      	ands	r5, r3
10001ae6:	7acb      	ldrb	r3, [r1, #11]
10001ae8:	06d2      	lsls	r2, r2, #27
10001aea:	075b      	lsls	r3, r3, #29
10001aec:	095b      	lsrs	r3, r3, #5
10001aee:	432b      	orrs	r3, r5
10001af0:	4033      	ands	r3, r6
10001af2:	0ad2      	lsrs	r2, r2, #11
10001af4:	4313      	orrs	r3, r2
10001af6:	5103      	str	r3, [r0, r4]
10001af8:	2380      	movs	r3, #128	; 0x80
10001afa:	690a      	ldr	r2, [r1, #16]
10001afc:	50c2      	str	r2, [r0, r3]
10001afe:	68ca      	ldr	r2, [r1, #12]
10001b00:	3338      	adds	r3, #56	; 0x38
10001b02:	50c2      	str	r2, [r0, r3]
10001b04:	78cb      	ldrb	r3, [r1, #3]
10001b06:	071d      	lsls	r5, r3, #28
10001b08:	06df      	lsls	r7, r3, #27
10001b0a:	069c      	lsls	r4, r3, #26
10001b0c:	065b      	lsls	r3, r3, #25
10001b0e:	0fda      	lsrs	r2, r3, #31
10001b10:	884b      	ldrh	r3, [r1, #2]
10001b12:	0fff      	lsrs	r7, r7, #31
10001b14:	059b      	lsls	r3, r3, #22
10001b16:	099e      	lsrs	r6, r3, #6
10001b18:	780b      	ldrb	r3, [r1, #0]
10001b1a:	2180      	movs	r1, #128	; 0x80
10001b1c:	075b      	lsls	r3, r3, #29
10001b1e:	0f5b      	lsrs	r3, r3, #29
10001b20:	4333      	orrs	r3, r6
10001b22:	26f8      	movs	r6, #248	; 0xf8
10001b24:	0076      	lsls	r6, r6, #1
10001b26:	5183      	str	r3, [r0, r6]
10001b28:	5983      	ldr	r3, [r0, r6]
10001b2a:	0609      	lsls	r1, r1, #24
10001b2c:	073f      	lsls	r7, r7, #28
10001b2e:	430b      	orrs	r3, r1
10001b30:	0fad      	lsrs	r5, r5, #30
10001b32:	433b      	orrs	r3, r7
10001b34:	06ad      	lsls	r5, r5, #26
10001b36:	0fe4      	lsrs	r4, r4, #31
10001b38:	432b      	orrs	r3, r5
10001b3a:	0764      	lsls	r4, r4, #29
10001b3c:	4323      	orrs	r3, r4
10001b3e:	1c19      	adds	r1, r3, #0
10001b40:	0793      	lsls	r3, r2, #30
10001b42:	430b      	orrs	r3, r1
10001b44:	5183      	str	r3, [r0, r6]
10001b46:	bdf0      	pop	{r4, r5, r6, r7, pc}
10001b48:	fffff8ff 	.word	0xfffff8ff
10001b4c:	f8ffffff 	.word	0xf8ffffff
10001b50:	ffe0ffff 	.word	0xffe0ffff

10001b54 <XMC_VADC_GROUP_SetPowerMode>:
10001b54:	2280      	movs	r2, #128	; 0x80
10001b56:	b510      	push	{r4, lr}
10001b58:	2403      	movs	r4, #3
10001b5a:	5883      	ldr	r3, [r0, r2]
10001b5c:	43a3      	bics	r3, r4
10001b5e:	4319      	orrs	r1, r3
10001b60:	5081      	str	r1, [r0, r2]
10001b62:	bd10      	pop	{r4, pc}

10001b64 <XMC_VADC_GLOBAL_SHS_EnableAcceleratedMode>:
10001b64:	2900      	cmp	r1, #0
10001b66:	d007      	beq.n	10001b78 <XMC_VADC_GLOBAL_SHS_EnableAcceleratedMode+0x14>
10001b68:	2901      	cmp	r1, #1
10001b6a:	d000      	beq.n	10001b6e <XMC_VADC_GLOBAL_SHS_EnableAcceleratedMode+0xa>
10001b6c:	4770      	bx	lr
10001b6e:	2384      	movs	r3, #132	; 0x84
10001b70:	58c2      	ldr	r2, [r0, r3]
10001b72:	4311      	orrs	r1, r2
10001b74:	50c1      	str	r1, [r0, r3]
10001b76:	e7f9      	b.n	10001b6c <XMC_VADC_GLOBAL_SHS_EnableAcceleratedMode+0x8>
10001b78:	2280      	movs	r2, #128	; 0x80
10001b7a:	2301      	movs	r3, #1
10001b7c:	5881      	ldr	r1, [r0, r2]
10001b7e:	430b      	orrs	r3, r1
10001b80:	5083      	str	r3, [r0, r2]
10001b82:	e7f3      	b.n	10001b6c <XMC_VADC_GLOBAL_SHS_EnableAcceleratedMode+0x8>

10001b84 <XMC_VADC_GLOBAL_BackgroundInit>:
10001b84:	4b27      	ldr	r3, [pc, #156]	; (10001c24 <XMC_VADC_GLOBAL_BackgroundInit+0xa0>)
10001b86:	b5f0      	push	{r4, r5, r6, r7, lr}
10001b88:	4646      	mov	r6, r8
10001b8a:	4698      	mov	r8, r3
10001b8c:	2284      	movs	r2, #132	; 0x84
10001b8e:	464f      	mov	r7, r9
10001b90:	4644      	mov	r4, r8
10001b92:	468c      	mov	ip, r1
10001b94:	5899      	ldr	r1, [r3, r2]
10001b96:	4b24      	ldr	r3, [pc, #144]	; (10001c28 <XMC_VADC_GLOBAL_BackgroundInit+0xa4>)
10001b98:	b4c0      	push	{r6, r7}
10001b9a:	4019      	ands	r1, r3
10001b9c:	50a1      	str	r1, [r4, r2]
10001b9e:	4923      	ldr	r1, [pc, #140]	; (10001c2c <XMC_VADC_GLOBAL_BackgroundInit+0xa8>)
10001ba0:	2703      	movs	r7, #3
10001ba2:	588c      	ldr	r4, [r1, r2]
10001ba4:	4e22      	ldr	r6, [pc, #136]	; (10001c30 <XMC_VADC_GLOBAL_BackgroundInit+0xac>)
10001ba6:	4023      	ands	r3, r4
10001ba8:	508b      	str	r3, [r1, r2]
10001baa:	4663      	mov	r3, ip
10001bac:	781b      	ldrb	r3, [r3, #0]
10001bae:	46b1      	mov	r9, r6
10001bb0:	401f      	ands	r7, r3
10001bb2:	1c3d      	adds	r5, r7, #0
10001bb4:	1e6c      	subs	r4, r5, #1
10001bb6:	41a5      	sbcs	r5, r4
10001bb8:	4644      	mov	r4, r8
10001bba:	58a4      	ldr	r4, [r4, r2]
10001bbc:	071b      	lsls	r3, r3, #28
10001bbe:	4034      	ands	r4, r6
10001bc0:	4646      	mov	r6, r8
10001bc2:	0f9b      	lsrs	r3, r3, #30
10001bc4:	021b      	lsls	r3, r3, #8
10001bc6:	02ed      	lsls	r5, r5, #11
10001bc8:	431c      	orrs	r4, r3
10001bca:	432c      	orrs	r4, r5
10001bcc:	50b4      	str	r4, [r6, r2]
10001bce:	464e      	mov	r6, r9
10001bd0:	588c      	ldr	r4, [r1, r2]
10001bd2:	4026      	ands	r6, r4
10001bd4:	4333      	orrs	r3, r6
10001bd6:	432b      	orrs	r3, r5
10001bd8:	508b      	str	r3, [r1, r2]
10001bda:	4662      	mov	r2, ip
10001bdc:	4b15      	ldr	r3, [pc, #84]	; (10001c34 <XMC_VADC_GLOBAL_BackgroundInit+0xb0>)
10001bde:	6852      	ldr	r2, [r2, #4]
10001be0:	4313      	orrs	r3, r2
10001be2:	2280      	movs	r2, #128	; 0x80
10001be4:	0092      	lsls	r2, r2, #2
10001be6:	5083      	str	r3, [r0, r2]
10001be8:	4663      	mov	r3, ip
10001bea:	2201      	movs	r2, #1
10001bec:	689b      	ldr	r3, [r3, #8]
10001bee:	4313      	orrs	r3, r2
10001bf0:	2281      	movs	r2, #129	; 0x81
10001bf2:	0092      	lsls	r2, r2, #2
10001bf4:	5083      	str	r3, [r0, r2]
10001bf6:	2f02      	cmp	r7, #2
10001bf8:	d00e      	beq.n	10001c18 <XMC_VADC_GLOBAL_BackgroundInit+0x94>
10001bfa:	2384      	movs	r3, #132	; 0x84
10001bfc:	2080      	movs	r0, #128	; 0x80
10001bfe:	4a09      	ldr	r2, [pc, #36]	; (10001c24 <XMC_VADC_GLOBAL_BackgroundInit+0xa0>)
10001c00:	04c0      	lsls	r0, r0, #19
10001c02:	58d1      	ldr	r1, [r2, r3]
10001c04:	4301      	orrs	r1, r0
10001c06:	50d1      	str	r1, [r2, r3]
10001c08:	4908      	ldr	r1, [pc, #32]	; (10001c2c <XMC_VADC_GLOBAL_BackgroundInit+0xa8>)
10001c0a:	58ca      	ldr	r2, [r1, r3]
10001c0c:	4302      	orrs	r2, r0
10001c0e:	50ca      	str	r2, [r1, r3]
10001c10:	bc0c      	pop	{r2, r3}
10001c12:	4690      	mov	r8, r2
10001c14:	4699      	mov	r9, r3
10001c16:	bdf0      	pop	{r4, r5, r6, r7, pc}
10001c18:	2180      	movs	r1, #128	; 0x80
10001c1a:	5883      	ldr	r3, [r0, r2]
10001c1c:	0249      	lsls	r1, r1, #9
10001c1e:	430b      	orrs	r3, r1
10001c20:	5083      	str	r3, [r0, r2]
10001c22:	e7ea      	b.n	10001bfa <XMC_VADC_GLOBAL_BackgroundInit+0x76>
10001c24:	48030400 	.word	0x48030400
10001c28:	fbffffff 	.word	0xfbffffff
10001c2c:	48030800 	.word	0x48030800
10001c30:	fffffcff 	.word	0xfffffcff
10001c34:	00808000 	.word	0x00808000

10001c38 <XMC_VADC_GROUP_ChannelInit>:
10001c38:	b570      	push	{r4, r5, r6, lr}
10001c3a:	2401      	movs	r4, #1
10001c3c:	2588      	movs	r5, #136	; 0x88
10001c3e:	408c      	lsls	r4, r1
10001c40:	5943      	ldr	r3, [r0, r5]
10001c42:	43a3      	bics	r3, r4
10001c44:	7b14      	ldrb	r4, [r2, #12]
10001c46:	408c      	lsls	r4, r1
10001c48:	4323      	orrs	r3, r4
10001c4a:	5143      	str	r3, [r0, r5]
10001c4c:	7b53      	ldrb	r3, [r2, #13]
10001c4e:	b25c      	sxtb	r4, r3
10001c50:	2c00      	cmp	r4, #0
10001c52:	db0c      	blt.n	10001c6e <XMC_VADC_GROUP_ChannelInit+0x36>
10001c54:	2901      	cmp	r1, #1
10001c56:	d021      	beq.n	10001c9c <XMC_VADC_GROUP_ChannelInit+0x64>
10001c58:	2900      	cmp	r1, #0
10001c5a:	d017      	beq.n	10001c8c <XMC_VADC_GROUP_ChannelInit+0x54>
10001c5c:	1c1c      	adds	r4, r3, #0
10001c5e:	2300      	movs	r3, #0
10001c60:	b264      	sxtb	r4, r4
10001c62:	409c      	lsls	r4, r3
10001c64:	26b0      	movs	r6, #176	; 0xb0
10001c66:	1c23      	adds	r3, r4, #0
10001c68:	5985      	ldr	r5, [r0, r6]
10001c6a:	432b      	orrs	r3, r5
10001c6c:	5183      	str	r3, [r0, r6]
10001c6e:	24c8      	movs	r4, #200	; 0xc8
10001c70:	6855      	ldr	r5, [r2, #4]
10001c72:	5903      	ldr	r3, [r0, r4]
10001c74:	3180      	adds	r1, #128	; 0x80
10001c76:	432b      	orrs	r3, r5
10001c78:	5103      	str	r3, [r0, r4]
10001c7a:	3408      	adds	r4, #8
10001c7c:	6895      	ldr	r5, [r2, #8]
10001c7e:	5903      	ldr	r3, [r0, r4]
10001c80:	0089      	lsls	r1, r1, #2
10001c82:	432b      	orrs	r3, r5
10001c84:	5103      	str	r3, [r0, r4]
10001c86:	6813      	ldr	r3, [r2, #0]
10001c88:	500b      	str	r3, [r1, r0]
10001c8a:	bd70      	pop	{r4, r5, r6, pc}
10001c8c:	24b0      	movs	r4, #176	; 0xb0
10001c8e:	251f      	movs	r5, #31
10001c90:	5903      	ldr	r3, [r0, r4]
10001c92:	43ab      	bics	r3, r5
10001c94:	5103      	str	r3, [r0, r4]
10001c96:	7b54      	ldrb	r4, [r2, #13]
10001c98:	2300      	movs	r3, #0
10001c9a:	e7e1      	b.n	10001c60 <XMC_VADC_GROUP_ChannelInit+0x28>
10001c9c:	24b0      	movs	r4, #176	; 0xb0
10001c9e:	4b03      	ldr	r3, [pc, #12]	; (10001cac <XMC_VADC_GROUP_ChannelInit+0x74>)
10001ca0:	5905      	ldr	r5, [r0, r4]
10001ca2:	402b      	ands	r3, r5
10001ca4:	5103      	str	r3, [r0, r4]
10001ca6:	7b54      	ldrb	r4, [r2, #13]
10001ca8:	2308      	movs	r3, #8
10001caa:	e7d9      	b.n	10001c60 <XMC_VADC_GROUP_ChannelInit+0x28>
10001cac:	ffffe0ff 	.word	0xffffe0ff

10001cb0 <_sbrk>:
10001cb0:	4a0c      	ldr	r2, [pc, #48]	; (10001ce4 <_sbrk+0x34>)
10001cb2:	b508      	push	{r3, lr}
10001cb4:	1c03      	adds	r3, r0, #0
10001cb6:	6810      	ldr	r0, [r2, #0]
10001cb8:	2800      	cmp	r0, #0
10001cba:	d00f      	beq.n	10001cdc <_sbrk+0x2c>
10001cbc:	2103      	movs	r1, #3
10001cbe:	3303      	adds	r3, #3
10001cc0:	438b      	bics	r3, r1
10001cc2:	4909      	ldr	r1, [pc, #36]	; (10001ce8 <_sbrk+0x38>)
10001cc4:	18c3      	adds	r3, r0, r3
10001cc6:	428b      	cmp	r3, r1
10001cc8:	d201      	bcs.n	10001cce <_sbrk+0x1e>
10001cca:	6013      	str	r3, [r2, #0]
10001ccc:	bd08      	pop	{r3, pc}
10001cce:	f001 fd67 	bl	100037a0 <__errno>
10001cd2:	230c      	movs	r3, #12
10001cd4:	6003      	str	r3, [r0, #0]
10001cd6:	2001      	movs	r0, #1
10001cd8:	4240      	negs	r0, r0
10001cda:	e7f7      	b.n	10001ccc <_sbrk+0x1c>
10001cdc:	4803      	ldr	r0, [pc, #12]	; (10001cec <_sbrk+0x3c>)
10001cde:	6010      	str	r0, [r2, #0]
10001ce0:	e7ec      	b.n	10001cbc <_sbrk+0xc>
10001ce2:	46c0      	nop			; (mov r8, r8)
10001ce4:	2000076c 	.word	0x2000076c
10001ce8:	20003ffc 	.word	0x20003ffc
10001cec:	20000988 	.word	0x20000988

10001cf0 <_init>:
10001cf0:	4770      	bx	lr
10001cf2:	46c0      	nop			; (mov r8, r8)

10001cf4 <UART_Init>:
10001cf4:	b508      	push	{r3, lr}
10001cf6:	6843      	ldr	r3, [r0, #4]
10001cf8:	685b      	ldr	r3, [r3, #4]
10001cfa:	4798      	blx	r3
10001cfc:	bd08      	pop	{r3, pc}
10001cfe:	46c0      	nop			; (mov r8, r8)

10001d00 <UART_Transmit>:
10001d00:	b570      	push	{r4, r5, r6, lr}
10001d02:	1c03      	adds	r3, r0, #0
10001d04:	6844      	ldr	r4, [r0, #4]
10001d06:	2029      	movs	r0, #41	; 0x29
10001d08:	5c20      	ldrb	r0, [r4, r0]
10001d0a:	2800      	cmp	r0, #0
10001d0c:	d001      	beq.n	10001d12 <UART_Transmit+0x12>
10001d0e:	2004      	movs	r0, #4
10001d10:	bd70      	pop	{r4, r5, r6, pc}
10001d12:	689e      	ldr	r6, [r3, #8]
10001d14:	3002      	adds	r0, #2
10001d16:	7e35      	ldrb	r5, [r6, #24]
10001d18:	b2ed      	uxtb	r5, r5
10001d1a:	2d00      	cmp	r5, #0
10001d1c:	d1f8      	bne.n	10001d10 <UART_Transmit+0x10>
10001d1e:	2900      	cmp	r1, #0
10001d20:	d020      	beq.n	10001d64 <UART_Transmit+0x64>
10001d22:	3001      	adds	r0, #1
10001d24:	2a00      	cmp	r2, #0
10001d26:	d0f3      	beq.n	10001d10 <UART_Transmit+0x10>
10001d28:	60b2      	str	r2, [r6, #8]
10001d2a:	2201      	movs	r2, #1
10001d2c:	6031      	str	r1, [r6, #0]
10001d2e:	7632      	strb	r2, [r6, #24]
10001d30:	60f5      	str	r5, [r6, #12]
10001d32:	322a      	adds	r2, #42	; 0x2a
10001d34:	5ca2      	ldrb	r2, [r4, r2]
10001d36:	681b      	ldr	r3, [r3, #0]
10001d38:	2a00      	cmp	r2, #0
10001d3a:	d015      	beq.n	10001d68 <UART_Transmit+0x68>
10001d3c:	2180      	movs	r1, #128	; 0x80
10001d3e:	228c      	movs	r2, #140	; 0x8c
10001d40:	0209      	lsls	r1, r1, #8
10001d42:	0052      	lsls	r2, r2, #1
10001d44:	5099      	str	r1, [r3, r2]
10001d46:	2184      	movs	r1, #132	; 0x84
10001d48:	2080      	movs	r0, #128	; 0x80
10001d4a:	0049      	lsls	r1, r1, #1
10001d4c:	585a      	ldr	r2, [r3, r1]
10001d4e:	05c0      	lsls	r0, r0, #23
10001d50:	4302      	orrs	r2, r0
10001d52:	505a      	str	r2, [r3, r1]
10001d54:	222d      	movs	r2, #45	; 0x2d
10001d56:	5ca1      	ldrb	r1, [r4, r2]
10001d58:	2280      	movs	r2, #128	; 0x80
10001d5a:	0252      	lsls	r2, r2, #9
10001d5c:	408a      	lsls	r2, r1
10001d5e:	2000      	movs	r0, #0
10001d60:	669a      	str	r2, [r3, #104]	; 0x68
10001d62:	e7d5      	b.n	10001d10 <UART_Transmit+0x10>
10001d64:	2003      	movs	r0, #3
10001d66:	e7d3      	b.n	10001d10 <UART_Transmit+0x10>
10001d68:	2180      	movs	r1, #128	; 0x80
10001d6a:	6c1a      	ldr	r2, [r3, #64]	; 0x40
10001d6c:	0189      	lsls	r1, r1, #6
10001d6e:	430a      	orrs	r2, r1
10001d70:	641a      	str	r2, [r3, #64]	; 0x40
10001d72:	e7ef      	b.n	10001d54 <UART_Transmit+0x54>

10001d74 <UART_Receive>:
10001d74:	b5f8      	push	{r3, r4, r5, r6, r7, lr}
10001d76:	6844      	ldr	r4, [r0, #4]
10001d78:	1c03      	adds	r3, r0, #0
10001d7a:	202a      	movs	r0, #42	; 0x2a
10001d7c:	5c20      	ldrb	r0, [r4, r0]
10001d7e:	2800      	cmp	r0, #0
10001d80:	d001      	beq.n	10001d86 <UART_Receive+0x12>
10001d82:	2004      	movs	r0, #4
10001d84:	bdf8      	pop	{r3, r4, r5, r6, r7, pc}
10001d86:	689e      	ldr	r6, [r3, #8]
10001d88:	3002      	adds	r0, #2
10001d8a:	7e75      	ldrb	r5, [r6, #25]
10001d8c:	b2ed      	uxtb	r5, r5
10001d8e:	2d00      	cmp	r5, #0
10001d90:	d1f8      	bne.n	10001d84 <UART_Receive+0x10>
10001d92:	2900      	cmp	r1, #0
10001d94:	d013      	beq.n	10001dbe <UART_Receive+0x4a>
10001d96:	3001      	adds	r0, #1
10001d98:	2a00      	cmp	r2, #0
10001d9a:	d0f3      	beq.n	10001d84 <UART_Receive+0x10>
10001d9c:	2701      	movs	r7, #1
10001d9e:	6071      	str	r1, [r6, #4]
10001da0:	212c      	movs	r1, #44	; 0x2c
10001da2:	6132      	str	r2, [r6, #16]
10001da4:	7677      	strb	r7, [r6, #25]
10001da6:	6175      	str	r5, [r6, #20]
10001da8:	5c61      	ldrb	r1, [r4, r1]
10001daa:	2900      	cmp	r1, #0
10001dac:	d109      	bne.n	10001dc2 <UART_Receive+0x4e>
10001dae:	21c0      	movs	r1, #192	; 0xc0
10001db0:	681a      	ldr	r2, [r3, #0]
10001db2:	0209      	lsls	r1, r1, #8
10001db4:	6c13      	ldr	r3, [r2, #64]	; 0x40
10001db6:	2000      	movs	r0, #0
10001db8:	430b      	orrs	r3, r1
10001dba:	6413      	str	r3, [r2, #64]	; 0x40
10001dbc:	e7e2      	b.n	10001d84 <UART_Receive+0x10>
10001dbe:	2003      	movs	r0, #3
10001dc0:	e7e0      	b.n	10001d84 <UART_Receive+0x10>
10001dc2:	2480      	movs	r4, #128	; 0x80
10001dc4:	408f      	lsls	r7, r1
10001dc6:	3016      	adds	r0, #22
10001dc8:	681d      	ldr	r5, [r3, #0]
10001dca:	01e4      	lsls	r4, r4, #7
10001dcc:	30ff      	adds	r0, #255	; 0xff
10001dce:	502c      	str	r4, [r5, r0]
10001dd0:	6818      	ldr	r0, [r3, #0]
10001dd2:	1e7c      	subs	r4, r7, #1
10001dd4:	42ba      	cmp	r2, r7
10001dd6:	d200      	bcs.n	10001dda <UART_Receive+0x66>
10001dd8:	1e54      	subs	r4, r2, #1
10001dda:	1c1d      	adds	r5, r3, #0
10001ddc:	1c22      	adds	r2, r4, #0
10001dde:	f7ff fdb9 	bl	10001954 <XMC_USIC_CH_RXFIFO_SetSizeTriggerLimit>
10001de2:	2286      	movs	r2, #134	; 0x86
10001de4:	20c0      	movs	r0, #192	; 0xc0
10001de6:	6829      	ldr	r1, [r5, #0]
10001de8:	0052      	lsls	r2, r2, #1
10001dea:	588b      	ldr	r3, [r1, r2]
10001dec:	05c0      	lsls	r0, r0, #23
10001dee:	4303      	orrs	r3, r0
10001df0:	508b      	str	r3, [r1, r2]
10001df2:	2000      	movs	r0, #0
10001df4:	e7c6      	b.n	10001d84 <UART_Receive+0x10>
10001df6:	46c0      	nop			; (mov r8, r8)

10001df8 <UART_lTransmitHandler>:
10001df8:	b5f8      	push	{r3, r4, r5, r6, r7, lr}
10001dfa:	6884      	ldr	r4, [r0, #8]
10001dfc:	1c05      	adds	r5, r0, #0
10001dfe:	68e3      	ldr	r3, [r4, #12]
10001e00:	68a2      	ldr	r2, [r4, #8]
10001e02:	4293      	cmp	r3, r2
10001e04:	d21d      	bcs.n	10001e42 <UART_lTransmitHandler+0x4a>
10001e06:	222b      	movs	r2, #43	; 0x2b
10001e08:	6841      	ldr	r1, [r0, #4]
10001e0a:	6800      	ldr	r0, [r0, #0]
10001e0c:	5c8a      	ldrb	r2, [r1, r2]
10001e0e:	2a00      	cmp	r2, #0
10001e10:	d03b      	beq.n	10001e8a <UART_lTransmitHandler+0x92>
10001e12:	268a      	movs	r6, #138	; 0x8a
10001e14:	2280      	movs	r2, #128	; 0x80
10001e16:	0076      	lsls	r6, r6, #1
10001e18:	5981      	ldr	r1, [r0, r6]
10001e1a:	0152      	lsls	r2, r2, #5
10001e1c:	1c17      	adds	r7, r2, #0
10001e1e:	4211      	tst	r1, r2
10001e20:	d003      	beq.n	10001e2a <UART_lTransmitHandler+0x32>
10001e22:	e00d      	b.n	10001e40 <UART_lTransmitHandler+0x48>
10001e24:	68a2      	ldr	r2, [r4, #8]
10001e26:	429a      	cmp	r2, r3
10001e28:	d90a      	bls.n	10001e40 <UART_lTransmitHandler+0x48>
10001e2a:	6822      	ldr	r2, [r4, #0]
10001e2c:	5cd1      	ldrb	r1, [r2, r3]
10001e2e:	f7ff fc57 	bl	100016e0 <XMC_UART_CH_Transmit>
10001e32:	6828      	ldr	r0, [r5, #0]
10001e34:	68e3      	ldr	r3, [r4, #12]
10001e36:	5982      	ldr	r2, [r0, r6]
10001e38:	3301      	adds	r3, #1
10001e3a:	60e3      	str	r3, [r4, #12]
10001e3c:	423a      	tst	r2, r7
10001e3e:	d0f1      	beq.n	10001e24 <UART_lTransmitHandler+0x2c>
10001e40:	bdf8      	pop	{r3, r4, r5, r6, r7, pc}
10001e42:	238a      	movs	r3, #138	; 0x8a
10001e44:	6802      	ldr	r2, [r0, #0]
10001e46:	005b      	lsls	r3, r3, #1
10001e48:	58d3      	ldr	r3, [r2, r3]
10001e4a:	051b      	lsls	r3, r3, #20
10001e4c:	d5f8      	bpl.n	10001e40 <UART_lTransmitHandler+0x48>
10001e4e:	232b      	movs	r3, #43	; 0x2b
10001e50:	6840      	ldr	r0, [r0, #4]
10001e52:	5cc3      	ldrb	r3, [r0, r3]
10001e54:	2b00      	cmp	r3, #0
10001e56:	d013      	beq.n	10001e80 <UART_lTransmitHandler+0x88>
10001e58:	2184      	movs	r1, #132	; 0x84
10001e5a:	0049      	lsls	r1, r1, #1
10001e5c:	5855      	ldr	r5, [r2, r1]
10001e5e:	4b0f      	ldr	r3, [pc, #60]	; (10001e9c <UART_lTransmitHandler+0xa4>)
10001e60:	402b      	ands	r3, r5
10001e62:	5053      	str	r3, [r2, r1]
10001e64:	217f      	movs	r1, #127	; 0x7f
10001e66:	6b93      	ldr	r3, [r2, #56]	; 0x38
10001e68:	438b      	bics	r3, r1
10001e6a:	b2db      	uxtb	r3, r3
10001e6c:	2b80      	cmp	r3, #128	; 0x80
10001e6e:	d0fa      	beq.n	10001e66 <UART_lTransmitHandler+0x6e>
10001e70:	2300      	movs	r3, #0
10001e72:	7623      	strb	r3, [r4, #24]
10001e74:	6023      	str	r3, [r4, #0]
10001e76:	6883      	ldr	r3, [r0, #8]
10001e78:	2b00      	cmp	r3, #0
10001e7a:	d0e1      	beq.n	10001e40 <UART_lTransmitHandler+0x48>
10001e7c:	4798      	blx	r3
10001e7e:	e7df      	b.n	10001e40 <UART_lTransmitHandler+0x48>
10001e80:	6c11      	ldr	r1, [r2, #64]	; 0x40
10001e82:	4b07      	ldr	r3, [pc, #28]	; (10001ea0 <UART_lTransmitHandler+0xa8>)
10001e84:	400b      	ands	r3, r1
10001e86:	6413      	str	r3, [r2, #64]	; 0x40
10001e88:	e7ec      	b.n	10001e64 <UART_lTransmitHandler+0x6c>
10001e8a:	6822      	ldr	r2, [r4, #0]
10001e8c:	5cd1      	ldrb	r1, [r2, r3]
10001e8e:	f7ff fc27 	bl	100016e0 <XMC_UART_CH_Transmit>
10001e92:	68e3      	ldr	r3, [r4, #12]
10001e94:	3301      	adds	r3, #1
10001e96:	60e3      	str	r3, [r4, #12]
10001e98:	e7d2      	b.n	10001e40 <UART_lTransmitHandler+0x48>
10001e9a:	46c0      	nop			; (mov r8, r8)
10001e9c:	bfffffff 	.word	0xbfffffff
10001ea0:	ffffdfff 	.word	0xffffdfff

10001ea4 <UART_lReceiveHandler>:
10001ea4:	b5f0      	push	{r4, r5, r6, r7, lr}
10001ea6:	4647      	mov	r7, r8
10001ea8:	232c      	movs	r3, #44	; 0x2c
10001eaa:	b480      	push	{r7}
10001eac:	6842      	ldr	r2, [r0, #4]
10001eae:	1c07      	adds	r7, r0, #0
10001eb0:	5cd3      	ldrb	r3, [r2, r3]
10001eb2:	6885      	ldr	r5, [r0, #8]
10001eb4:	2b00      	cmp	r3, #0
10001eb6:	d02f      	beq.n	10001f18 <UART_lReceiveHandler+0x74>
10001eb8:	218a      	movs	r1, #138	; 0x8a
10001eba:	0049      	lsls	r1, r1, #1
10001ebc:	696b      	ldr	r3, [r5, #20]
10001ebe:	692a      	ldr	r2, [r5, #16]
10001ec0:	6800      	ldr	r0, [r0, #0]
10001ec2:	4688      	mov	r8, r1
10001ec4:	2608      	movs	r6, #8
10001ec6:	e001      	b.n	10001ecc <UART_lReceiveHandler+0x28>
10001ec8:	4293      	cmp	r3, r2
10001eca:	d011      	beq.n	10001ef0 <UART_lReceiveHandler+0x4c>
10001ecc:	4641      	mov	r1, r8
10001ece:	5841      	ldr	r1, [r0, r1]
10001ed0:	420e      	tst	r6, r1
10001ed2:	d11c      	bne.n	10001f0e <UART_lReceiveHandler+0x6a>
10001ed4:	429a      	cmp	r2, r3
10001ed6:	d9f7      	bls.n	10001ec8 <UART_lReceiveHandler+0x24>
10001ed8:	686a      	ldr	r2, [r5, #4]
10001eda:	18d4      	adds	r4, r2, r3
10001edc:	f7ff fc18 	bl	10001710 <XMC_UART_CH_GetReceivedData>
10001ee0:	7020      	strb	r0, [r4, #0]
10001ee2:	696b      	ldr	r3, [r5, #20]
10001ee4:	692a      	ldr	r2, [r5, #16]
10001ee6:	3301      	adds	r3, #1
10001ee8:	616b      	str	r3, [r5, #20]
10001eea:	6838      	ldr	r0, [r7, #0]
10001eec:	4293      	cmp	r3, r2
10001eee:	d1ed      	bne.n	10001ecc <UART_lReceiveHandler+0x28>
10001ef0:	2300      	movs	r3, #0
10001ef2:	2286      	movs	r2, #134	; 0x86
10001ef4:	766b      	strb	r3, [r5, #25]
10001ef6:	0052      	lsls	r2, r2, #1
10001ef8:	5881      	ldr	r1, [r0, r2]
10001efa:	4b1d      	ldr	r3, [pc, #116]	; (10001f70 <UART_lReceiveHandler+0xcc>)
10001efc:	400b      	ands	r3, r1
10001efe:	5083      	str	r3, [r0, r2]
10001f00:	687b      	ldr	r3, [r7, #4]
10001f02:	68db      	ldr	r3, [r3, #12]
10001f04:	2b00      	cmp	r3, #0
10001f06:	d004      	beq.n	10001f12 <UART_lReceiveHandler+0x6e>
10001f08:	4798      	blx	r3
10001f0a:	696b      	ldr	r3, [r5, #20]
10001f0c:	692a      	ldr	r2, [r5, #16]
10001f0e:	4293      	cmp	r3, r2
10001f10:	d314      	bcc.n	10001f3c <UART_lReceiveHandler+0x98>
10001f12:	bc04      	pop	{r2}
10001f14:	4690      	mov	r8, r2
10001f16:	bdf0      	pop	{r4, r5, r6, r7, pc}
10001f18:	696b      	ldr	r3, [r5, #20]
10001f1a:	692a      	ldr	r2, [r5, #16]
10001f1c:	4293      	cmp	r3, r2
10001f1e:	d31a      	bcc.n	10001f56 <UART_lReceiveHandler+0xb2>
10001f20:	d1f7      	bne.n	10001f12 <UART_lReceiveHandler+0x6e>
10001f22:	2300      	movs	r3, #0
10001f24:	683a      	ldr	r2, [r7, #0]
10001f26:	766b      	strb	r3, [r5, #25]
10001f28:	6c11      	ldr	r1, [r2, #64]	; 0x40
10001f2a:	4b12      	ldr	r3, [pc, #72]	; (10001f74 <UART_lReceiveHandler+0xd0>)
10001f2c:	400b      	ands	r3, r1
10001f2e:	6413      	str	r3, [r2, #64]	; 0x40
10001f30:	687b      	ldr	r3, [r7, #4]
10001f32:	68db      	ldr	r3, [r3, #12]
10001f34:	2b00      	cmp	r3, #0
10001f36:	d0ec      	beq.n	10001f12 <UART_lReceiveHandler+0x6e>
10001f38:	4798      	blx	r3
10001f3a:	e7ea      	b.n	10001f12 <UART_lReceiveHandler+0x6e>
10001f3c:	1ad3      	subs	r3, r2, r3
10001f3e:	222c      	movs	r2, #44	; 0x2c
10001f40:	cf03      	ldmia	r7!, {r0, r1}
10001f42:	2401      	movs	r4, #1
10001f44:	5c89      	ldrb	r1, [r1, r2]
10001f46:	408c      	lsls	r4, r1
10001f48:	1e62      	subs	r2, r4, #1
10001f4a:	42a3      	cmp	r3, r4
10001f4c:	d200      	bcs.n	10001f50 <UART_lReceiveHandler+0xac>
10001f4e:	1e5a      	subs	r2, r3, #1
10001f50:	f7ff fd00 	bl	10001954 <XMC_USIC_CH_RXFIFO_SetSizeTriggerLimit>
10001f54:	e7dd      	b.n	10001f12 <UART_lReceiveHandler+0x6e>
10001f56:	686a      	ldr	r2, [r5, #4]
10001f58:	6800      	ldr	r0, [r0, #0]
10001f5a:	18d4      	adds	r4, r2, r3
10001f5c:	f7ff fbd8 	bl	10001710 <XMC_UART_CH_GetReceivedData>
10001f60:	7020      	strb	r0, [r4, #0]
10001f62:	696b      	ldr	r3, [r5, #20]
10001f64:	692a      	ldr	r2, [r5, #16]
10001f66:	3301      	adds	r3, #1
10001f68:	616b      	str	r3, [r5, #20]
10001f6a:	4293      	cmp	r3, r2
10001f6c:	d1d1      	bne.n	10001f12 <UART_lReceiveHandler+0x6e>
10001f6e:	e7d8      	b.n	10001f22 <UART_lReceiveHandler+0x7e>
10001f70:	9fffffff 	.word	0x9fffffff
10001f74:	ffff3fff 	.word	0xffff3fff

10001f78 <UART_0_init>:
10001f78:	b570      	push	{r4, r5, r6, lr}
10001f7a:	2490      	movs	r4, #144	; 0x90
10001f7c:	4e2f      	ldr	r6, [pc, #188]	; (1000203c <UART_0_init+0xc4>)
10001f7e:	05e4      	lsls	r4, r4, #23
10001f80:	1c30      	adds	r0, r6, #0
10001f82:	2107      	movs	r1, #7
10001f84:	4a2e      	ldr	r2, [pc, #184]	; (10002040 <UART_0_init+0xc8>)
10001f86:	f7ff f8b5 	bl	100010f4 <XMC_GPIO_Init>
10001f8a:	1c20      	adds	r0, r4, #0
10001f8c:	492d      	ldr	r1, [pc, #180]	; (10002044 <UART_0_init+0xcc>)
10001f8e:	2201      	movs	r2, #1
10001f90:	f7ff fb62 	bl	10001658 <XMC_UART_CH_InitEx>
10001f94:	2207      	movs	r2, #7
10001f96:	2106      	movs	r1, #6
10001f98:	2502      	movs	r5, #2
10001f9a:	69e3      	ldr	r3, [r4, #28]
10001f9c:	1c20      	adds	r0, r4, #0
10001f9e:	4393      	bics	r3, r2
10001fa0:	430b      	orrs	r3, r1
10001fa2:	61e3      	str	r3, [r4, #28]
10001fa4:	6aa3      	ldr	r3, [r4, #40]	; 0x28
10001fa6:	3901      	subs	r1, #1
10001fa8:	4393      	bics	r3, r2
10001faa:	430b      	orrs	r3, r1
10001fac:	62a3      	str	r3, [r4, #40]	; 0x28
10001fae:	6b23      	ldr	r3, [r4, #48]	; 0x30
10001fb0:	310b      	adds	r1, #11
10001fb2:	4393      	bics	r3, r2
10001fb4:	432b      	orrs	r3, r5
10001fb6:	6323      	str	r3, [r4, #48]	; 0x30
10001fb8:	3a03      	subs	r2, #3
10001fba:	2301      	movs	r3, #1
10001fbc:	f7ff fc9c 	bl	100018f8 <XMC_USIC_CH_TXFIFO_Configure>
10001fc0:	1c20      	adds	r0, r4, #0
10001fc2:	2100      	movs	r1, #0
10001fc4:	2204      	movs	r2, #4
10001fc6:	2300      	movs	r3, #0
10001fc8:	f7ff fcac 	bl	10001924 <XMC_USIC_CH_RXFIFO_Configure>
10001fcc:	220f      	movs	r2, #15
10001fce:	6c23      	ldr	r3, [r4, #64]	; 0x40
10001fd0:	1c30      	adds	r0, r6, #0
10001fd2:	4393      	bics	r3, r2
10001fd4:	431d      	orrs	r5, r3
10001fd6:	6425      	str	r5, [r4, #64]	; 0x40
10001fd8:	2100      	movs	r1, #0
10001fda:	4a1b      	ldr	r2, [pc, #108]	; (10002048 <UART_0_init+0xd0>)
10001fdc:	f7ff f88a 	bl	100010f4 <XMC_GPIO_Init>
10001fe0:	1c20      	adds	r0, r4, #0
10001fe2:	2110      	movs	r1, #16
10001fe4:	2200      	movs	r2, #0
10001fe6:	f7ff fcc1 	bl	1000196c <XMC_USIC_CH_SetInterruptNodePointer>
10001fea:	1c20      	adds	r0, r4, #0
10001fec:	2110      	movs	r1, #16
10001fee:	2202      	movs	r2, #2
10001ff0:	f7ff fcc6 	bl	10001980 <XMC_USIC_CH_TXFIFO_SetInterruptNodePointer>
10001ff4:	1c20      	adds	r0, r4, #0
10001ff6:	2110      	movs	r1, #16
10001ff8:	2201      	movs	r2, #1
10001ffa:	f7ff fccd 	bl	10001998 <XMC_USIC_CH_RXFIFO_SetInterruptNodePointer>
10001ffe:	1c20      	adds	r0, r4, #0
10002000:	2113      	movs	r1, #19
10002002:	2201      	movs	r2, #1
10002004:	f7ff fcc8 	bl	10001998 <XMC_USIC_CH_RXFIFO_SetInterruptNodePointer>
10002008:	21c2      	movs	r1, #194	; 0xc2
1000200a:	20c0      	movs	r0, #192	; 0xc0
1000200c:	4a0f      	ldr	r2, [pc, #60]	; (1000204c <UART_0_init+0xd4>)
1000200e:	0089      	lsls	r1, r1, #2
10002010:	5853      	ldr	r3, [r2, r1]
10002012:	0600      	lsls	r0, r0, #24
10002014:	021b      	lsls	r3, r3, #8
10002016:	0a1b      	lsrs	r3, r3, #8
10002018:	4303      	orrs	r3, r0
1000201a:	5053      	str	r3, [r2, r1]
1000201c:	2380      	movs	r3, #128	; 0x80
1000201e:	011b      	lsls	r3, r3, #4
10002020:	6013      	str	r3, [r2, #0]
10002022:	4b0b      	ldr	r3, [pc, #44]	; (10002050 <UART_0_init+0xd8>)
10002024:	5850      	ldr	r0, [r2, r1]
10002026:	4003      	ands	r3, r0
10002028:	20c0      	movs	r0, #192	; 0xc0
1000202a:	0400      	lsls	r0, r0, #16
1000202c:	4303      	orrs	r3, r0
1000202e:	5053      	str	r3, [r2, r1]
10002030:	2380      	movs	r3, #128	; 0x80
10002032:	00db      	lsls	r3, r3, #3
10002034:	6013      	str	r3, [r2, #0]
10002036:	2000      	movs	r0, #0
10002038:	bd70      	pop	{r4, r5, r6, pc}
1000203a:	46c0      	nop			; (mov r8, r8)
1000203c:	40040200 	.word	0x40040200
10002040:	100076f4 	.word	0x100076f4
10002044:	10007710 	.word	0x10007710
10002048:	10007708 	.word	0x10007708
1000204c:	e000e100 	.word	0xe000e100
10002050:	ff00ffff 	.word	0xff00ffff

10002054 <USIC0_2_IRQHandler>:
10002054:	b508      	push	{r3, lr}
10002056:	4802      	ldr	r0, [pc, #8]	; (10002060 <USIC0_2_IRQHandler+0xc>)
10002058:	f7ff fece 	bl	10001df8 <UART_lTransmitHandler>
1000205c:	bd08      	pop	{r3, pc}
1000205e:	46c0      	nop			; (mov r8, r8)
10002060:	20000548 	.word	0x20000548

10002064 <USIC0_1_IRQHandler>:
10002064:	b508      	push	{r3, lr}
10002066:	4802      	ldr	r0, [pc, #8]	; (10002070 <USIC0_1_IRQHandler+0xc>)
10002068:	f7ff ff1c 	bl	10001ea4 <UART_lReceiveHandler>
1000206c:	bd08      	pop	{r3, pc}
1000206e:	46c0      	nop			; (mov r8, r8)
10002070:	20000548 	.word	0x20000548

10002074 <TIMER_Init>:
10002074:	b5f8      	push	{r3, r4, r5, r6, r7, lr}
10002076:	2326      	movs	r3, #38	; 0x26
10002078:	5cc3      	ldrb	r3, [r0, r3]
1000207a:	2500      	movs	r5, #0
1000207c:	2b00      	cmp	r3, #0
1000207e:	d103      	bne.n	10002088 <TIMER_Init+0x14>
10002080:	3321      	adds	r3, #33	; 0x21
10002082:	5cc6      	ldrb	r6, [r0, r3]
10002084:	2e00      	cmp	r6, #0
10002086:	d001      	beq.n	1000208c <TIMER_Init+0x18>
10002088:	1c28      	adds	r0, r5, #0
1000208a:	bdf8      	pop	{r3, r4, r5, r6, r7, pc}
1000208c:	2701      	movs	r7, #1
1000208e:	1c04      	adds	r4, r0, #0
10002090:	6900      	ldr	r0, [r0, #16]
10002092:	f000 fbef 	bl	10002874 <GLOBAL_CCU4_Init>
10002096:	1c39      	adds	r1, r7, #0
10002098:	6923      	ldr	r3, [r4, #16]
1000209a:	1c05      	adds	r5, r0, #0
1000209c:	689a      	ldr	r2, [r3, #8]
1000209e:	7e23      	ldrb	r3, [r4, #24]
100020a0:	6960      	ldr	r0, [r4, #20]
100020a2:	4099      	lsls	r1, r3
100020a4:	60d1      	str	r1, [r2, #12]
100020a6:	69e1      	ldr	r1, [r4, #28]
100020a8:	f7ff f92e 	bl	10001308 <XMC_CCU4_SLICE_CompareInit>
100020ac:	8c63      	ldrh	r3, [r4, #34]	; 0x22
100020ae:	6960      	ldr	r0, [r4, #20]
100020b0:	68e2      	ldr	r2, [r4, #12]
100020b2:	6343      	str	r3, [r0, #52]	; 0x34
100020b4:	6923      	ldr	r3, [r4, #16]
100020b6:	63c6      	str	r6, [r0, #60]	; 0x3c
100020b8:	689b      	ldr	r3, [r3, #8]
100020ba:	611a      	str	r2, [r3, #16]
100020bc:	2325      	movs	r3, #37	; 0x25
100020be:	5ce3      	ldrb	r3, [r4, r3]
100020c0:	2b00      	cmp	r3, #0
100020c2:	d10a      	bne.n	100020da <TIMER_Init+0x66>
100020c4:	2302      	movs	r3, #2
100020c6:	2226      	movs	r2, #38	; 0x26
100020c8:	6103      	str	r3, [r0, #16]
100020ca:	3b01      	subs	r3, #1
100020cc:	54a3      	strb	r3, [r4, r2]
100020ce:	3a02      	subs	r2, #2
100020d0:	5ca2      	ldrb	r2, [r4, r2]
100020d2:	2a00      	cmp	r2, #0
100020d4:	d0d8      	beq.n	10002088 <TIMER_Init+0x14>
100020d6:	60c3      	str	r3, [r0, #12]
100020d8:	e7d6      	b.n	10002088 <TIMER_Init+0x14>
100020da:	2320      	movs	r3, #32
100020dc:	2100      	movs	r1, #0
100020de:	5ce2      	ldrb	r2, [r4, r3]
100020e0:	f7ff f92a 	bl	10001338 <XMC_CCU4_SLICE_SetInterruptNode>
100020e4:	23a4      	movs	r3, #164	; 0xa4
100020e6:	6960      	ldr	r0, [r4, #20]
100020e8:	58c2      	ldr	r2, [r0, r3]
100020ea:	4317      	orrs	r7, r2
100020ec:	50c7      	str	r7, [r0, r3]
100020ee:	e7e9      	b.n	100020c4 <TIMER_Init+0x50>

100020f0 <TIMER_Start>:
100020f0:	2226      	movs	r2, #38	; 0x26
100020f2:	5c82      	ldrb	r2, [r0, r2]
100020f4:	1c03      	adds	r3, r0, #0
100020f6:	2001      	movs	r0, #1
100020f8:	2a00      	cmp	r2, #0
100020fa:	d007      	beq.n	1000210c <TIMER_Start+0x1c>
100020fc:	2221      	movs	r2, #33	; 0x21
100020fe:	5c9a      	ldrb	r2, [r3, r2]
10002100:	2000      	movs	r0, #0
10002102:	2a00      	cmp	r2, #0
10002104:	d102      	bne.n	1000210c <TIMER_Start+0x1c>
10002106:	695b      	ldr	r3, [r3, #20]
10002108:	3201      	adds	r2, #1
1000210a:	60da      	str	r2, [r3, #12]
1000210c:	4770      	bx	lr
1000210e:	46c0      	nop			; (mov r8, r8)

10002110 <SysTick_Handler>:
10002110:	b5f0      	push	{r4, r5, r6, r7, lr}
10002112:	4644      	mov	r4, r8
10002114:	465f      	mov	r7, fp
10002116:	4656      	mov	r6, sl
10002118:	464d      	mov	r5, r9
1000211a:	49a0      	ldr	r1, [pc, #640]	; (1000239c <SysTick_Handler+0x28c>)
1000211c:	b4f0      	push	{r4, r5, r6, r7}
1000211e:	4ca0      	ldr	r4, [pc, #640]	; (100023a0 <SysTick_Handler+0x290>)
10002120:	680a      	ldr	r2, [r1, #0]
10002122:	6823      	ldr	r3, [r4, #0]
10002124:	3201      	adds	r2, #1
10002126:	b083      	sub	sp, #12
10002128:	600a      	str	r2, [r1, #0]
1000212a:	2b00      	cmp	r3, #0
1000212c:	d004      	beq.n	10002138 <SysTick_Handler+0x28>
1000212e:	699a      	ldr	r2, [r3, #24]
10002130:	2a01      	cmp	r2, #1
10002132:	d908      	bls.n	10002146 <SysTick_Handler+0x36>
10002134:	3a01      	subs	r2, #1
10002136:	619a      	str	r2, [r3, #24]
10002138:	b003      	add	sp, #12
1000213a:	bc3c      	pop	{r2, r3, r4, r5}
1000213c:	4690      	mov	r8, r2
1000213e:	4699      	mov	r9, r3
10002140:	46a2      	mov	sl, r4
10002142:	46ab      	mov	fp, r5
10002144:	bdf0      	pop	{r4, r5, r6, r7, pc}
10002146:	2200      	movs	r2, #0
10002148:	619a      	str	r2, [r3, #24]
1000214a:	4a96      	ldr	r2, [pc, #600]	; (100023a4 <SysTick_Handler+0x294>)
1000214c:	4693      	mov	fp, r2
1000214e:	e006      	b.n	1000215e <SysTick_Handler+0x4e>
10002150:	7b5a      	ldrb	r2, [r3, #13]
10002152:	2a01      	cmp	r2, #1
10002154:	d100      	bne.n	10002158 <SysTick_Handler+0x48>
10002156:	e0a1      	b.n	1000229c <SysTick_Handler+0x18c>
10002158:	699a      	ldr	r2, [r3, #24]
1000215a:	2a00      	cmp	r2, #0
1000215c:	d1ec      	bne.n	10002138 <SysTick_Handler+0x28>
1000215e:	2220      	movs	r2, #32
10002160:	5c9a      	ldrb	r2, [r3, r2]
10002162:	2a00      	cmp	r2, #0
10002164:	d172      	bne.n	1000224c <SysTick_Handler+0x13c>
10002166:	7b19      	ldrb	r1, [r3, #12]
10002168:	2900      	cmp	r1, #0
1000216a:	d0f1      	beq.n	10002150 <SysTick_Handler+0x40>
1000216c:	2901      	cmp	r1, #1
1000216e:	d1e3      	bne.n	10002138 <SysTick_Handler+0x28>
10002170:	7b59      	ldrb	r1, [r3, #13]
10002172:	2901      	cmp	r1, #1
10002174:	d1f0      	bne.n	10002158 <SysTick_Handler+0x48>
10002176:	6958      	ldr	r0, [r3, #20]
10002178:	4d8a      	ldr	r5, [pc, #552]	; (100023a4 <SysTick_Handler+0x294>)
1000217a:	00c1      	lsls	r1, r0, #3
1000217c:	180f      	adds	r7, r1, r0
1000217e:	00bf      	lsls	r7, r7, #2
10002180:	19ee      	adds	r6, r5, r7
10002182:	6875      	ldr	r5, [r6, #4]
10002184:	9101      	str	r1, [sp, #4]
10002186:	46a8      	mov	r8, r5
10002188:	2d00      	cmp	r5, #0
1000218a:	d100      	bne.n	1000218e <SysTick_Handler+0x7e>
1000218c:	e0df      	b.n	1000234e <SysTick_Handler+0x23e>
1000218e:	4985      	ldr	r1, [pc, #532]	; (100023a4 <SysTick_Handler+0x294>)
10002190:	59c9      	ldr	r1, [r1, r7]
10002192:	2900      	cmp	r1, #0
10002194:	d100      	bne.n	10002198 <SysTick_Handler+0x88>
10002196:	e0fb      	b.n	10002390 <SysTick_Handler+0x280>
10002198:	6029      	str	r1, [r5, #0]
1000219a:	4982      	ldr	r1, [pc, #520]	; (100023a4 <SysTick_Handler+0x294>)
1000219c:	59c9      	ldr	r1, [r1, r7]
1000219e:	604d      	str	r5, [r1, #4]
100021a0:	4980      	ldr	r1, [pc, #512]	; (100023a4 <SysTick_Handler+0x294>)
100021a2:	69b5      	ldr	r5, [r6, #24]
100021a4:	59c9      	ldr	r1, [r1, r7]
100021a6:	46ac      	mov	ip, r5
100021a8:	4688      	mov	r8, r1
100021aa:	4645      	mov	r5, r8
100021ac:	6989      	ldr	r1, [r1, #24]
100021ae:	4461      	add	r1, ip
100021b0:	61a9      	str	r1, [r5, #24]
100021b2:	497c      	ldr	r1, [pc, #496]	; (100023a4 <SysTick_Handler+0x294>)
100021b4:	6072      	str	r2, [r6, #4]
100021b6:	1c0d      	adds	r5, r1, #0
100021b8:	51ca      	str	r2, [r1, r7]
100021ba:	6827      	ldr	r7, [r4, #0]
100021bc:	46ac      	mov	ip, r5
100021be:	69da      	ldr	r2, [r3, #28]
100021c0:	619a      	str	r2, [r3, #24]
100021c2:	00c2      	lsls	r2, r0, #3
100021c4:	9201      	str	r2, [sp, #4]
100021c6:	1812      	adds	r2, r2, r0
100021c8:	0092      	lsls	r2, r2, #2
100021ca:	4462      	add	r2, ip
100021cc:	6996      	ldr	r6, [r2, #24]
100021ce:	2f00      	cmp	r7, #0
100021d0:	d100      	bne.n	100021d4 <SysTick_Handler+0xc4>
100021d2:	e0d3      	b.n	1000237c <SysTick_Handler+0x26c>
100021d4:	6822      	ldr	r2, [r4, #0]
100021d6:	4690      	mov	r8, r2
100021d8:	69ba      	ldr	r2, [r7, #24]
100021da:	1ab6      	subs	r6, r6, r2
100021dc:	2e00      	cmp	r6, #0
100021de:	dd08      	ble.n	100021f2 <SysTick_Handler+0xe2>
100021e0:	683a      	ldr	r2, [r7, #0]
100021e2:	2a00      	cmp	r2, #0
100021e4:	d100      	bne.n	100021e8 <SysTick_Handler+0xd8>
100021e6:	e088      	b.n	100022fa <SysTick_Handler+0x1ea>
100021e8:	1c17      	adds	r7, r2, #0
100021ea:	69ba      	ldr	r2, [r7, #24]
100021ec:	1ab6      	subs	r6, r6, r2
100021ee:	2e00      	cmp	r6, #0
100021f0:	dcf6      	bgt.n	100021e0 <SysTick_Handler+0xd0>
100021f2:	687a      	ldr	r2, [r7, #4]
100021f4:	4691      	mov	r9, r2
100021f6:	2a00      	cmp	r2, #0
100021f8:	d100      	bne.n	100021fc <SysTick_Handler+0xec>
100021fa:	e08d      	b.n	10002318 <SysTick_Handler+0x208>
100021fc:	9a01      	ldr	r2, [sp, #4]
100021fe:	464d      	mov	r5, r9
10002200:	1812      	adds	r2, r2, r0
10002202:	0092      	lsls	r2, r2, #2
10002204:	4694      	mov	ip, r2
10002206:	4a67      	ldr	r2, [pc, #412]	; (100023a4 <SysTick_Handler+0x294>)
10002208:	4966      	ldr	r1, [pc, #408]	; (100023a4 <SysTick_Handler+0x294>)
1000220a:	4462      	add	r2, ip
1000220c:	602a      	str	r2, [r5, #0]
1000220e:	4692      	mov	sl, r2
10002210:	6055      	str	r5, [r2, #4]
10002212:	4665      	mov	r5, ip
10002214:	4a63      	ldr	r2, [pc, #396]	; (100023a4 <SysTick_Handler+0x294>)
10002216:	5157      	str	r7, [r2, r5]
10002218:	4652      	mov	r2, sl
1000221a:	4d62      	ldr	r5, [pc, #392]	; (100023a4 <SysTick_Handler+0x294>)
1000221c:	607a      	str	r2, [r7, #4]
1000221e:	46ac      	mov	ip, r5
10002220:	9a01      	ldr	r2, [sp, #4]
10002222:	1812      	adds	r2, r2, r0
10002224:	0092      	lsls	r2, r2, #2
10002226:	5888      	ldr	r0, [r1, r2]
10002228:	4462      	add	r2, ip
1000222a:	6981      	ldr	r1, [r0, #24]
1000222c:	1871      	adds	r1, r6, r1
1000222e:	6191      	str	r1, [r2, #24]
10002230:	6982      	ldr	r2, [r0, #24]
10002232:	1a51      	subs	r1, r2, r1
10002234:	6181      	str	r1, [r0, #24]
10002236:	4642      	mov	r2, r8
10002238:	6022      	str	r2, [r4, #0]
1000223a:	6918      	ldr	r0, [r3, #16]
1000223c:	689b      	ldr	r3, [r3, #8]
1000223e:	4798      	blx	r3
10002240:	6827      	ldr	r7, [r4, #0]
10002242:	2f00      	cmp	r7, #0
10002244:	d100      	bne.n	10002248 <SysTick_Handler+0x138>
10002246:	e777      	b.n	10002138 <SysTick_Handler+0x28>
10002248:	1c3b      	adds	r3, r7, #0
1000224a:	e785      	b.n	10002158 <SysTick_Handler+0x48>
1000224c:	6958      	ldr	r0, [r3, #20]
1000224e:	4955      	ldr	r1, [pc, #340]	; (100023a4 <SysTick_Handler+0x294>)
10002250:	00c2      	lsls	r2, r0, #3
10002252:	1812      	adds	r2, r2, r0
10002254:	0092      	lsls	r2, r2, #2
10002256:	188e      	adds	r6, r1, r2
10002258:	6877      	ldr	r7, [r6, #4]
1000225a:	46bc      	mov	ip, r7
1000225c:	2f00      	cmp	r7, #0
1000225e:	d03e      	beq.n	100022de <SysTick_Handler+0x1ce>
10002260:	5857      	ldr	r7, [r2, r1]
10002262:	2f00      	cmp	r7, #0
10002264:	d053      	beq.n	1000230e <SysTick_Handler+0x1fe>
10002266:	4665      	mov	r5, ip
10002268:	602f      	str	r7, [r5, #0]
1000226a:	5857      	ldr	r7, [r2, r1]
1000226c:	607d      	str	r5, [r7, #4]
1000226e:	588d      	ldr	r5, [r1, r2]
10002270:	46ac      	mov	ip, r5
10002272:	69ad      	ldr	r5, [r5, #24]
10002274:	1c2f      	adds	r7, r5, #0
10002276:	69b5      	ldr	r5, [r6, #24]
10002278:	46a8      	mov	r8, r5
1000227a:	4665      	mov	r5, ip
1000227c:	4447      	add	r7, r8
1000227e:	61af      	str	r7, [r5, #24]
10002280:	2700      	movs	r7, #0
10002282:	508f      	str	r7, [r1, r2]
10002284:	6077      	str	r7, [r6, #4]
10002286:	1c1f      	adds	r7, r3, #0
10002288:	2200      	movs	r2, #0
1000228a:	735a      	strb	r2, [r3, #13]
1000228c:	2301      	movs	r3, #1
1000228e:	4083      	lsls	r3, r0
10002290:	1c1a      	adds	r2, r3, #0
10002292:	4945      	ldr	r1, [pc, #276]	; (100023a8 <SysTick_Handler+0x298>)
10002294:	680b      	ldr	r3, [r1, #0]
10002296:	4393      	bics	r3, r2
10002298:	600b      	str	r3, [r1, #0]
1000229a:	e7d2      	b.n	10002242 <SysTick_Handler+0x132>
1000229c:	6958      	ldr	r0, [r3, #20]
1000229e:	00c2      	lsls	r2, r0, #3
100022a0:	1812      	adds	r2, r2, r0
100022a2:	4658      	mov	r0, fp
100022a4:	0092      	lsls	r2, r2, #2
100022a6:	1886      	adds	r6, r0, r2
100022a8:	6870      	ldr	r0, [r6, #4]
100022aa:	2800      	cmp	r0, #0
100022ac:	d041      	beq.n	10002332 <SysTick_Handler+0x222>
100022ae:	465d      	mov	r5, fp
100022b0:	5957      	ldr	r7, [r2, r5]
100022b2:	6007      	str	r7, [r0, #0]
100022b4:	2f00      	cmp	r7, #0
100022b6:	d069      	beq.n	1000238c <SysTick_Handler+0x27c>
100022b8:	465d      	mov	r5, fp
100022ba:	5957      	ldr	r7, [r2, r5]
100022bc:	6078      	str	r0, [r7, #4]
100022be:	58af      	ldr	r7, [r5, r2]
100022c0:	69b5      	ldr	r5, [r6, #24]
100022c2:	69b8      	ldr	r0, [r7, #24]
100022c4:	46ac      	mov	ip, r5
100022c6:	4460      	add	r0, ip
100022c8:	61b8      	str	r0, [r7, #24]
100022ca:	4658      	mov	r0, fp
100022cc:	6071      	str	r1, [r6, #4]
100022ce:	5081      	str	r1, [r0, r2]
100022d0:	2202      	movs	r2, #2
100022d2:	6918      	ldr	r0, [r3, #16]
100022d4:	735a      	strb	r2, [r3, #13]
100022d6:	689b      	ldr	r3, [r3, #8]
100022d8:	4798      	blx	r3
100022da:	6827      	ldr	r7, [r4, #0]
100022dc:	e7b1      	b.n	10002242 <SysTick_Handler+0x132>
100022de:	5857      	ldr	r7, [r2, r1]
100022e0:	6027      	str	r7, [r4, #0]
100022e2:	2f00      	cmp	r7, #0
100022e4:	d0d0      	beq.n	10002288 <SysTick_Handler+0x178>
100022e6:	4665      	mov	r5, ip
100022e8:	607d      	str	r5, [r7, #4]
100022ea:	69bd      	ldr	r5, [r7, #24]
100022ec:	69b6      	ldr	r6, [r6, #24]
100022ee:	46a8      	mov	r8, r5
100022f0:	4665      	mov	r5, ip
100022f2:	4446      	add	r6, r8
100022f4:	61be      	str	r6, [r7, #24]
100022f6:	5055      	str	r5, [r2, r1]
100022f8:	e7c6      	b.n	10002288 <SysTick_Handler+0x178>
100022fa:	492a      	ldr	r1, [pc, #168]	; (100023a4 <SysTick_Handler+0x294>)
100022fc:	9a01      	ldr	r2, [sp, #4]
100022fe:	468c      	mov	ip, r1
10002300:	1812      	adds	r2, r2, r0
10002302:	0092      	lsls	r2, r2, #2
10002304:	4462      	add	r2, ip
10002306:	6057      	str	r7, [r2, #4]
10002308:	603a      	str	r2, [r7, #0]
1000230a:	6196      	str	r6, [r2, #24]
1000230c:	e793      	b.n	10002236 <SysTick_Handler+0x126>
1000230e:	4662      	mov	r2, ip
10002310:	6017      	str	r7, [r2, #0]
10002312:	6077      	str	r7, [r6, #4]
10002314:	6827      	ldr	r7, [r4, #0]
10002316:	e7b7      	b.n	10002288 <SysTick_Handler+0x178>
10002318:	4645      	mov	r5, r8
1000231a:	9a01      	ldr	r2, [sp, #4]
1000231c:	4921      	ldr	r1, [pc, #132]	; (100023a4 <SysTick_Handler+0x294>)
1000231e:	1812      	adds	r2, r2, r0
10002320:	0092      	lsls	r2, r2, #2
10002322:	468c      	mov	ip, r1
10002324:	508d      	str	r5, [r1, r2]
10002326:	4645      	mov	r5, r8
10002328:	4462      	add	r2, ip
1000232a:	606a      	str	r2, [r5, #4]
1000232c:	4690      	mov	r8, r2
1000232e:	1c0d      	adds	r5, r1, #0
10002330:	e775      	b.n	1000221e <SysTick_Handler+0x10e>
10002332:	4659      	mov	r1, fp
10002334:	5851      	ldr	r1, [r2, r1]
10002336:	6021      	str	r1, [r4, #0]
10002338:	2900      	cmp	r1, #0
1000233a:	d0c9      	beq.n	100022d0 <SysTick_Handler+0x1c0>
1000233c:	698d      	ldr	r5, [r1, #24]
1000233e:	69b7      	ldr	r7, [r6, #24]
10002340:	46ac      	mov	ip, r5
10002342:	4467      	add	r7, ip
10002344:	6048      	str	r0, [r1, #4]
10002346:	618f      	str	r7, [r1, #24]
10002348:	4659      	mov	r1, fp
1000234a:	5050      	str	r0, [r2, r1]
1000234c:	e7c0      	b.n	100022d0 <SysTick_Handler+0x1c0>
1000234e:	4a15      	ldr	r2, [pc, #84]	; (100023a4 <SysTick_Handler+0x294>)
10002350:	59d2      	ldr	r2, [r2, r7]
10002352:	2a00      	cmp	r2, #0
10002354:	d010      	beq.n	10002378 <SysTick_Handler+0x268>
10002356:	6055      	str	r5, [r2, #4]
10002358:	6995      	ldr	r5, [r2, #24]
1000235a:	4912      	ldr	r1, [pc, #72]	; (100023a4 <SysTick_Handler+0x294>)
1000235c:	46a9      	mov	r9, r5
1000235e:	69b5      	ldr	r5, [r6, #24]
10002360:	6022      	str	r2, [r4, #0]
10002362:	46ac      	mov	ip, r5
10002364:	44e1      	add	r9, ip
10002366:	464d      	mov	r5, r9
10002368:	6195      	str	r5, [r2, #24]
1000236a:	4645      	mov	r5, r8
1000236c:	51cd      	str	r5, [r1, r7]
1000236e:	69dd      	ldr	r5, [r3, #28]
10002370:	1c17      	adds	r7, r2, #0
10002372:	619d      	str	r5, [r3, #24]
10002374:	69b6      	ldr	r6, [r6, #24]
10002376:	e72d      	b.n	100021d4 <SysTick_Handler+0xc4>
10002378:	69da      	ldr	r2, [r3, #28]
1000237a:	619a      	str	r2, [r3, #24]
1000237c:	4909      	ldr	r1, [pc, #36]	; (100023a4 <SysTick_Handler+0x294>)
1000237e:	9a01      	ldr	r2, [sp, #4]
10002380:	468c      	mov	ip, r1
10002382:	1812      	adds	r2, r2, r0
10002384:	0092      	lsls	r2, r2, #2
10002386:	4462      	add	r2, ip
10002388:	6022      	str	r2, [r4, #0]
1000238a:	e756      	b.n	1000223a <SysTick_Handler+0x12a>
1000238c:	6077      	str	r7, [r6, #4]
1000238e:	e79f      	b.n	100022d0 <SysTick_Handler+0x1c0>
10002390:	6029      	str	r1, [r5, #0]
10002392:	6827      	ldr	r7, [r4, #0]
10002394:	6071      	str	r1, [r6, #4]
10002396:	4d03      	ldr	r5, [pc, #12]	; (100023a4 <SysTick_Handler+0x294>)
10002398:	e710      	b.n	100021bc <SysTick_Handler+0xac>
1000239a:	46c0      	nop			; (mov r8, r8)
1000239c:	2000079c 	.word	0x2000079c
100023a0:	200007a4 	.word	0x200007a4
100023a4:	200007e8 	.word	0x200007e8
100023a8:	200007a0 	.word	0x200007a0

100023ac <SYSTIMER_Init>:
100023ac:	7803      	ldrb	r3, [r0, #0]
100023ae:	b570      	push	{r4, r5, r6, lr}
100023b0:	2b00      	cmp	r3, #0
100023b2:	d118      	bne.n	100023e6 <SYSTIMER_Init+0x3a>
100023b4:	4a0d      	ldr	r2, [pc, #52]	; (100023ec <SYSTIMER_Init+0x40>)
100023b6:	4d0e      	ldr	r5, [pc, #56]	; (100023f0 <SYSTIMER_Init+0x44>)
100023b8:	6013      	str	r3, [r2, #0]
100023ba:	26c0      	movs	r6, #192	; 0xc0
100023bc:	4a0d      	ldr	r2, [pc, #52]	; (100023f4 <SYSTIMER_Init+0x48>)
100023be:	4c0e      	ldr	r4, [pc, #56]	; (100023f8 <SYSTIMER_Init+0x4c>)
100023c0:	606a      	str	r2, [r5, #4]
100023c2:	2207      	movs	r2, #7
100023c4:	6a21      	ldr	r1, [r4, #32]
100023c6:	0636      	lsls	r6, r6, #24
100023c8:	0209      	lsls	r1, r1, #8
100023ca:	0a09      	lsrs	r1, r1, #8
100023cc:	4331      	orrs	r1, r6
100023ce:	6221      	str	r1, [r4, #32]
100023d0:	60ab      	str	r3, [r5, #8]
100023d2:	602a      	str	r2, [r5, #0]
100023d4:	6a22      	ldr	r2, [r4, #32]
100023d6:	0212      	lsls	r2, r2, #8
100023d8:	0a12      	lsrs	r2, r2, #8
100023da:	4332      	orrs	r2, r6
100023dc:	6222      	str	r2, [r4, #32]
100023de:	4a07      	ldr	r2, [pc, #28]	; (100023fc <SYSTIMER_Init+0x50>)
100023e0:	6013      	str	r3, [r2, #0]
100023e2:	3301      	adds	r3, #1
100023e4:	7003      	strb	r3, [r0, #0]
100023e6:	2000      	movs	r0, #0
100023e8:	bd70      	pop	{r4, r5, r6, pc}
100023ea:	46c0      	nop			; (mov r8, r8)
100023ec:	200007a4 	.word	0x200007a4
100023f0:	e000e010 	.word	0xe000e010
100023f4:	00007cff 	.word	0x00007cff
100023f8:	e000ed00 	.word	0xe000ed00
100023fc:	200007a0 	.word	0x200007a0

10002400 <SYSTIMER_GetTickCount>:
10002400:	4b01      	ldr	r3, [pc, #4]	; (10002408 <SYSTIMER_GetTickCount+0x8>)
10002402:	6818      	ldr	r0, [r3, #0]
10002404:	4770      	bx	lr
10002406:	46c0      	nop			; (mov r8, r8)
10002408:	2000079c 	.word	0x2000079c

1000240c <PWM_CCU8_Init>:
1000240c:	b570      	push	{r4, r5, r6, lr}
1000240e:	7f05      	ldrb	r5, [r0, #28]
10002410:	b082      	sub	sp, #8
10002412:	2302      	movs	r3, #2
10002414:	2d00      	cmp	r5, #0
10002416:	d002      	beq.n	1000241e <PWM_CCU8_Init+0x12>
10002418:	1c18      	adds	r0, r3, #0
1000241a:	b002      	add	sp, #8
1000241c:	bd70      	pop	{r4, r5, r6, pc}
1000241e:	6802      	ldr	r2, [r0, #0]
10002420:	338a      	adds	r3, #138	; 0x8a
10002422:	1c04      	adds	r4, r0, #0
10002424:	58d0      	ldr	r0, [r2, r3]
10002426:	f000 fa13 	bl	10002850 <GLOBAL_CCU8_Init>
1000242a:	2800      	cmp	r0, #0
1000242c:	d002      	beq.n	10002434 <PWM_CCU8_Init+0x28>
1000242e:	7725      	strb	r5, [r4, #28]
10002430:	2301      	movs	r3, #1
10002432:	e7f1      	b.n	10002418 <PWM_CCU8_Init+0xc>
10002434:	6823      	ldr	r3, [r4, #0]
10002436:	68a0      	ldr	r0, [r4, #8]
10002438:	6c99      	ldr	r1, [r3, #72]	; 0x48
1000243a:	f7fe ffab 	bl	10001394 <XMC_CCU8_SLICE_CompareInit>
1000243e:	6823      	ldr	r3, [r4, #0]
10002440:	68a0      	ldr	r0, [r4, #8]
10002442:	8859      	ldrh	r1, [r3, #2]
10002444:	f7ff f8d4 	bl	100015f0 <XMC_CCU8_SLICE_SetTimerPeriodMatch>
10002448:	6823      	ldr	r3, [r4, #0]
1000244a:	68a0      	ldr	r0, [r4, #8]
1000244c:	889a      	ldrh	r2, [r3, #4]
1000244e:	2100      	movs	r1, #0
10002450:	f7ff f8d0 	bl	100015f4 <XMC_CCU8_SLICE_SetTimerCompareMatch>
10002454:	6823      	ldr	r3, [r4, #0]
10002456:	2101      	movs	r1, #1
10002458:	88da      	ldrh	r2, [r3, #6]
1000245a:	68a0      	ldr	r0, [r4, #8]
1000245c:	f7ff f8ca 	bl	100015f4 <XMC_CCU8_SLICE_SetTimerCompareMatch>
10002460:	2106      	movs	r1, #6
10002462:	6823      	ldr	r3, [r4, #0]
10002464:	6c9a      	ldr	r2, [r3, #72]	; 0x48
10002466:	78d2      	ldrb	r2, [r2, #3]
10002468:	4211      	tst	r1, r2
1000246a:	d000      	beq.n	1000246e <PWM_CCU8_Init+0x62>
1000246c:	e167      	b.n	1000273e <PWM_CCU8_Init+0x332>
1000246e:	2144      	movs	r1, #68	; 0x44
10002470:	25b4      	movs	r5, #180	; 0xb4
10002472:	2606      	movs	r6, #6
10002474:	68a0      	ldr	r0, [r4, #8]
10002476:	5c59      	ldrb	r1, [r3, r1]
10002478:	5942      	ldr	r2, [r0, r5]
1000247a:	0049      	lsls	r1, r1, #1
1000247c:	4031      	ands	r1, r6
1000247e:	43b2      	bics	r2, r6
10002480:	430a      	orrs	r2, r1
10002482:	5142      	str	r2, [r0, r5]
10002484:	6921      	ldr	r1, [r4, #16]
10002486:	6862      	ldr	r2, [r4, #4]
10002488:	6111      	str	r1, [r2, #16]
1000248a:	6961      	ldr	r1, [r4, #20]
1000248c:	6111      	str	r1, [r2, #16]
1000248e:	6c19      	ldr	r1, [r3, #64]	; 0x40
10002490:	f7ff f8cc 	bl	1000162c <XMC_CCU8_SLICE_DeadTimeInit>
10002494:	6823      	ldr	r3, [r4, #0]
10002496:	68a0      	ldr	r0, [r4, #8]
10002498:	69da      	ldr	r2, [r3, #28]
1000249a:	2101      	movs	r1, #1
1000249c:	f7ff f878 	bl	10001590 <XMC_CCU8_SLICE_ConfigureEvent>
100024a0:	6823      	ldr	r3, [r4, #0]
100024a2:	68a0      	ldr	r0, [r4, #8]
100024a4:	6a1a      	ldr	r2, [r3, #32]
100024a6:	2102      	movs	r1, #2
100024a8:	f7ff f872 	bl	10001590 <XMC_CCU8_SLICE_ConfigureEvent>
100024ac:	6823      	ldr	r3, [r4, #0]
100024ae:	2103      	movs	r1, #3
100024b0:	6a5a      	ldr	r2, [r3, #36]	; 0x24
100024b2:	68a0      	ldr	r0, [r4, #8]
100024b4:	f7ff f86c 	bl	10001590 <XMC_CCU8_SLICE_ConfigureEvent>
100024b8:	2328      	movs	r3, #40	; 0x28
100024ba:	6822      	ldr	r2, [r4, #0]
100024bc:	5cd1      	ldrb	r1, [r2, r3]
100024be:	1c13      	adds	r3, r2, #0
100024c0:	2900      	cmp	r1, #0
100024c2:	d000      	beq.n	100024c6 <PWM_CCU8_Init+0xba>
100024c4:	e134      	b.n	10002730 <PWM_CCU8_Init+0x324>
100024c6:	222a      	movs	r2, #42	; 0x2a
100024c8:	5c99      	ldrb	r1, [r3, r2]
100024ca:	2900      	cmp	r1, #0
100024cc:	d000      	beq.n	100024d0 <PWM_CCU8_Init+0xc4>
100024ce:	e128      	b.n	10002722 <PWM_CCU8_Init+0x316>
100024d0:	222c      	movs	r2, #44	; 0x2c
100024d2:	5c99      	ldrb	r1, [r3, r2]
100024d4:	2900      	cmp	r1, #0
100024d6:	d000      	beq.n	100024da <PWM_CCU8_Init+0xce>
100024d8:	e11e      	b.n	10002718 <PWM_CCU8_Init+0x30c>
100024da:	222d      	movs	r2, #45	; 0x2d
100024dc:	5c99      	ldrb	r1, [r3, r2]
100024de:	2900      	cmp	r1, #0
100024e0:	d000      	beq.n	100024e4 <PWM_CCU8_Init+0xd8>
100024e2:	e114      	b.n	1000270e <PWM_CCU8_Init+0x302>
100024e4:	222e      	movs	r2, #46	; 0x2e
100024e6:	5c99      	ldrb	r1, [r3, r2]
100024e8:	2900      	cmp	r1, #0
100024ea:	d000      	beq.n	100024ee <PWM_CCU8_Init+0xe2>
100024ec:	e10a      	b.n	10002704 <PWM_CCU8_Init+0x2f8>
100024ee:	222f      	movs	r2, #47	; 0x2f
100024f0:	5c99      	ldrb	r1, [r3, r2]
100024f2:	2900      	cmp	r1, #0
100024f4:	d000      	beq.n	100024f8 <PWM_CCU8_Init+0xec>
100024f6:	e0fa      	b.n	100026ee <PWM_CCU8_Init+0x2e2>
100024f8:	2231      	movs	r2, #49	; 0x31
100024fa:	5c99      	ldrb	r1, [r3, r2]
100024fc:	2900      	cmp	r1, #0
100024fe:	d000      	beq.n	10002502 <PWM_CCU8_Init+0xf6>
10002500:	e0ea      	b.n	100026d8 <PWM_CCU8_Init+0x2cc>
10002502:	2237      	movs	r2, #55	; 0x37
10002504:	5c9a      	ldrb	r2, [r3, r2]
10002506:	2a03      	cmp	r2, #3
10002508:	d100      	bne.n	1000250c <PWM_CCU8_Init+0x100>
1000250a:	e11e      	b.n	1000274a <PWM_CCU8_Init+0x33e>
1000250c:	68a0      	ldr	r0, [r4, #8]
1000250e:	8e9a      	ldrh	r2, [r3, #52]	; 0x34
10002510:	2a00      	cmp	r2, #0
10002512:	d008      	beq.n	10002526 <PWM_CCU8_Init+0x11a>
10002514:	6a19      	ldr	r1, [r3, #32]
10002516:	6a5a      	ldr	r2, [r3, #36]	; 0x24
10002518:	f7ff f800 	bl	1000151c <XMC_CCU8_SLICE_ConfigureStatusBitOverrideEvent>
1000251c:	68a0      	ldr	r0, [r4, #8]
1000251e:	f7fe ffd9 	bl	100014d4 <XMC_CCU8_SLICE_StatusBitOverrideConfig>
10002522:	6823      	ldr	r3, [r4, #0]
10002524:	68a0      	ldr	r0, [r4, #8]
10002526:	7c5a      	ldrb	r2, [r3, #17]
10002528:	2100      	movs	r1, #0
1000252a:	f7ff f869 	bl	10001600 <XMC_CCU8_SLICE_SetInterruptNode>
1000252e:	6823      	ldr	r3, [r4, #0]
10002530:	68a0      	ldr	r0, [r4, #8]
10002532:	7c9a      	ldrb	r2, [r3, #18]
10002534:	2102      	movs	r1, #2
10002536:	f7ff f863 	bl	10001600 <XMC_CCU8_SLICE_SetInterruptNode>
1000253a:	6823      	ldr	r3, [r4, #0]
1000253c:	68a0      	ldr	r0, [r4, #8]
1000253e:	7cda      	ldrb	r2, [r3, #19]
10002540:	2103      	movs	r1, #3
10002542:	f7ff f85d 	bl	10001600 <XMC_CCU8_SLICE_SetInterruptNode>
10002546:	6823      	ldr	r3, [r4, #0]
10002548:	68a0      	ldr	r0, [r4, #8]
1000254a:	7d1a      	ldrb	r2, [r3, #20]
1000254c:	2104      	movs	r1, #4
1000254e:	f7ff f857 	bl	10001600 <XMC_CCU8_SLICE_SetInterruptNode>
10002552:	6823      	ldr	r3, [r4, #0]
10002554:	68a0      	ldr	r0, [r4, #8]
10002556:	7d5a      	ldrb	r2, [r3, #21]
10002558:	2105      	movs	r1, #5
1000255a:	f7ff f851 	bl	10001600 <XMC_CCU8_SLICE_SetInterruptNode>
1000255e:	6823      	ldr	r3, [r4, #0]
10002560:	68a0      	ldr	r0, [r4, #8]
10002562:	7d9a      	ldrb	r2, [r3, #22]
10002564:	2101      	movs	r1, #1
10002566:	f7ff f84b 	bl	10001600 <XMC_CCU8_SLICE_SetInterruptNode>
1000256a:	6823      	ldr	r3, [r4, #0]
1000256c:	68a0      	ldr	r0, [r4, #8]
1000256e:	7dda      	ldrb	r2, [r3, #23]
10002570:	2108      	movs	r1, #8
10002572:	f7ff f845 	bl	10001600 <XMC_CCU8_SLICE_SetInterruptNode>
10002576:	6823      	ldr	r3, [r4, #0]
10002578:	68a0      	ldr	r0, [r4, #8]
1000257a:	7e1a      	ldrb	r2, [r3, #24]
1000257c:	2109      	movs	r1, #9
1000257e:	f7ff f83f 	bl	10001600 <XMC_CCU8_SLICE_SetInterruptNode>
10002582:	6823      	ldr	r3, [r4, #0]
10002584:	68a0      	ldr	r0, [r4, #8]
10002586:	7e5a      	ldrb	r2, [r3, #25]
10002588:	210a      	movs	r1, #10
1000258a:	f7ff f839 	bl	10001600 <XMC_CCU8_SLICE_SetInterruptNode>
1000258e:	6822      	ldr	r2, [r4, #0]
10002590:	7a13      	ldrb	r3, [r2, #8]
10002592:	2b00      	cmp	r3, #0
10002594:	d005      	beq.n	100025a2 <PWM_CCU8_Init+0x196>
10002596:	21a4      	movs	r1, #164	; 0xa4
10002598:	2301      	movs	r3, #1
1000259a:	68a0      	ldr	r0, [r4, #8]
1000259c:	5845      	ldr	r5, [r0, r1]
1000259e:	432b      	orrs	r3, r5
100025a0:	5043      	str	r3, [r0, r1]
100025a2:	7a53      	ldrb	r3, [r2, #9]
100025a4:	2b00      	cmp	r3, #0
100025a6:	d005      	beq.n	100025b4 <PWM_CCU8_Init+0x1a8>
100025a8:	21a4      	movs	r1, #164	; 0xa4
100025aa:	2304      	movs	r3, #4
100025ac:	68a0      	ldr	r0, [r4, #8]
100025ae:	5845      	ldr	r5, [r0, r1]
100025b0:	432b      	orrs	r3, r5
100025b2:	5043      	str	r3, [r0, r1]
100025b4:	7a93      	ldrb	r3, [r2, #10]
100025b6:	2b00      	cmp	r3, #0
100025b8:	d005      	beq.n	100025c6 <PWM_CCU8_Init+0x1ba>
100025ba:	21a4      	movs	r1, #164	; 0xa4
100025bc:	2308      	movs	r3, #8
100025be:	68a0      	ldr	r0, [r4, #8]
100025c0:	5845      	ldr	r5, [r0, r1]
100025c2:	432b      	orrs	r3, r5
100025c4:	5043      	str	r3, [r0, r1]
100025c6:	7ad3      	ldrb	r3, [r2, #11]
100025c8:	2b00      	cmp	r3, #0
100025ca:	d005      	beq.n	100025d8 <PWM_CCU8_Init+0x1cc>
100025cc:	21a4      	movs	r1, #164	; 0xa4
100025ce:	2310      	movs	r3, #16
100025d0:	68a0      	ldr	r0, [r4, #8]
100025d2:	5845      	ldr	r5, [r0, r1]
100025d4:	432b      	orrs	r3, r5
100025d6:	5043      	str	r3, [r0, r1]
100025d8:	7b13      	ldrb	r3, [r2, #12]
100025da:	2b00      	cmp	r3, #0
100025dc:	d005      	beq.n	100025ea <PWM_CCU8_Init+0x1de>
100025de:	21a4      	movs	r1, #164	; 0xa4
100025e0:	2320      	movs	r3, #32
100025e2:	68a0      	ldr	r0, [r4, #8]
100025e4:	5845      	ldr	r5, [r0, r1]
100025e6:	432b      	orrs	r3, r5
100025e8:	5043      	str	r3, [r0, r1]
100025ea:	7b53      	ldrb	r3, [r2, #13]
100025ec:	2b00      	cmp	r3, #0
100025ee:	d005      	beq.n	100025fc <PWM_CCU8_Init+0x1f0>
100025f0:	21a4      	movs	r1, #164	; 0xa4
100025f2:	2302      	movs	r3, #2
100025f4:	68a0      	ldr	r0, [r4, #8]
100025f6:	5845      	ldr	r5, [r0, r1]
100025f8:	432b      	orrs	r3, r5
100025fa:	5043      	str	r3, [r0, r1]
100025fc:	7b93      	ldrb	r3, [r2, #14]
100025fe:	2b00      	cmp	r3, #0
10002600:	d006      	beq.n	10002610 <PWM_CCU8_Init+0x204>
10002602:	21a4      	movs	r1, #164	; 0xa4
10002604:	2580      	movs	r5, #128	; 0x80
10002606:	68a0      	ldr	r0, [r4, #8]
10002608:	006d      	lsls	r5, r5, #1
1000260a:	5843      	ldr	r3, [r0, r1]
1000260c:	432b      	orrs	r3, r5
1000260e:	5043      	str	r3, [r0, r1]
10002610:	7bd3      	ldrb	r3, [r2, #15]
10002612:	2b00      	cmp	r3, #0
10002614:	d006      	beq.n	10002624 <PWM_CCU8_Init+0x218>
10002616:	21a4      	movs	r1, #164	; 0xa4
10002618:	2580      	movs	r5, #128	; 0x80
1000261a:	68a0      	ldr	r0, [r4, #8]
1000261c:	00ad      	lsls	r5, r5, #2
1000261e:	5843      	ldr	r3, [r0, r1]
10002620:	432b      	orrs	r3, r5
10002622:	5043      	str	r3, [r0, r1]
10002624:	7c13      	ldrb	r3, [r2, #16]
10002626:	2b00      	cmp	r3, #0
10002628:	d006      	beq.n	10002638 <PWM_CCU8_Init+0x22c>
1000262a:	21a4      	movs	r1, #164	; 0xa4
1000262c:	2580      	movs	r5, #128	; 0x80
1000262e:	68a0      	ldr	r0, [r4, #8]
10002630:	00ed      	lsls	r5, r5, #3
10002632:	5843      	ldr	r3, [r0, r1]
10002634:	432b      	orrs	r3, r5
10002636:	5043      	str	r3, [r0, r1]
10002638:	234c      	movs	r3, #76	; 0x4c
1000263a:	5cd3      	ldrb	r3, [r2, r3]
1000263c:	2b00      	cmp	r3, #0
1000263e:	d143      	bne.n	100026c8 <PWM_CCU8_Init+0x2bc>
10002640:	235c      	movs	r3, #92	; 0x5c
10002642:	5cd3      	ldrb	r3, [r2, r3]
10002644:	2b00      	cmp	r3, #0
10002646:	d137      	bne.n	100026b8 <PWM_CCU8_Init+0x2ac>
10002648:	236c      	movs	r3, #108	; 0x6c
1000264a:	5cd3      	ldrb	r3, [r2, r3]
1000264c:	2b00      	cmp	r3, #0
1000264e:	d12b      	bne.n	100026a8 <PWM_CCU8_Init+0x29c>
10002650:	237c      	movs	r3, #124	; 0x7c
10002652:	5cd3      	ldrb	r3, [r2, r3]
10002654:	2b00      	cmp	r3, #0
10002656:	d008      	beq.n	1000266a <PWM_CCU8_Init+0x25e>
10002658:	2380      	movs	r3, #128	; 0x80
1000265a:	58d0      	ldr	r0, [r2, r3]
1000265c:	3304      	adds	r3, #4
1000265e:	5cd1      	ldrb	r1, [r2, r3]
10002660:	3304      	adds	r3, #4
10002662:	58d2      	ldr	r2, [r2, r3]
10002664:	f7fe fd46 	bl	100010f4 <XMC_GPIO_Init>
10002668:	6822      	ldr	r2, [r4, #0]
1000266a:	238c      	movs	r3, #140	; 0x8c
1000266c:	58d3      	ldr	r3, [r2, r3]
1000266e:	6819      	ldr	r1, [r3, #0]
10002670:	6c93      	ldr	r3, [r2, #72]	; 0x48
10002672:	7b1b      	ldrb	r3, [r3, #12]
10002674:	071b      	lsls	r3, r3, #28
10002676:	0f1b      	lsrs	r3, r3, #28
10002678:	40d9      	lsrs	r1, r3
1000267a:	6221      	str	r1, [r4, #32]
1000267c:	2101      	movs	r1, #1
1000267e:	7721      	strb	r1, [r4, #28]
10002680:	7810      	ldrb	r0, [r2, #0]
10002682:	2300      	movs	r3, #0
10002684:	2800      	cmp	r0, #0
10002686:	d100      	bne.n	1000268a <PWM_CCU8_Init+0x27e>
10002688:	e6c6      	b.n	10002418 <PWM_CCU8_Init+0xc>
1000268a:	1c0d      	adds	r5, r1, #0
1000268c:	7b63      	ldrb	r3, [r4, #13]
1000268e:	6860      	ldr	r0, [r4, #4]
10002690:	409d      	lsls	r5, r3
10002692:	2328      	movs	r3, #40	; 0x28
10002694:	60c5      	str	r5, [r0, #12]
10002696:	5cd3      	ldrb	r3, [r2, r3]
10002698:	2b00      	cmp	r3, #0
1000269a:	d101      	bne.n	100026a0 <PWM_CCU8_Init+0x294>
1000269c:	68a3      	ldr	r3, [r4, #8]
1000269e:	60d9      	str	r1, [r3, #12]
100026a0:	2302      	movs	r3, #2
100026a2:	7723      	strb	r3, [r4, #28]
100026a4:	2300      	movs	r3, #0
100026a6:	e6b7      	b.n	10002418 <PWM_CCU8_Init+0xc>
100026a8:	2374      	movs	r3, #116	; 0x74
100026aa:	6f10      	ldr	r0, [r2, #112]	; 0x70
100026ac:	5cd1      	ldrb	r1, [r2, r3]
100026ae:	6f92      	ldr	r2, [r2, #120]	; 0x78
100026b0:	f7fe fd20 	bl	100010f4 <XMC_GPIO_Init>
100026b4:	6822      	ldr	r2, [r4, #0]
100026b6:	e7cb      	b.n	10002650 <PWM_CCU8_Init+0x244>
100026b8:	2364      	movs	r3, #100	; 0x64
100026ba:	6e10      	ldr	r0, [r2, #96]	; 0x60
100026bc:	5cd1      	ldrb	r1, [r2, r3]
100026be:	6e92      	ldr	r2, [r2, #104]	; 0x68
100026c0:	f7fe fd18 	bl	100010f4 <XMC_GPIO_Init>
100026c4:	6822      	ldr	r2, [r4, #0]
100026c6:	e7bf      	b.n	10002648 <PWM_CCU8_Init+0x23c>
100026c8:	2354      	movs	r3, #84	; 0x54
100026ca:	6d10      	ldr	r0, [r2, #80]	; 0x50
100026cc:	5cd1      	ldrb	r1, [r2, r3]
100026ce:	6d92      	ldr	r2, [r2, #88]	; 0x58
100026d0:	f7fe fd10 	bl	100010f4 <XMC_GPIO_Init>
100026d4:	6822      	ldr	r2, [r4, #0]
100026d6:	e7b3      	b.n	10002640 <PWM_CCU8_Init+0x234>
100026d8:	2033      	movs	r0, #51	; 0x33
100026da:	3201      	adds	r2, #1
100026dc:	5c9a      	ldrb	r2, [r3, r2]
100026de:	5c1b      	ldrb	r3, [r3, r0]
100026e0:	9300      	str	r3, [sp, #0]
100026e2:	68a0      	ldr	r0, [r4, #8]
100026e4:	2303      	movs	r3, #3
100026e6:	f7fe feaf 	bl	10001448 <XMC_CCU8_SLICE_ModulationConfig>
100026ea:	6823      	ldr	r3, [r4, #0]
100026ec:	e709      	b.n	10002502 <PWM_CCU8_Init+0xf6>
100026ee:	68a0      	ldr	r0, [r4, #8]
100026f0:	f7fe fe98 	bl	10001424 <XMC_CCU8_SLICE_LoadConfig>
100026f4:	2330      	movs	r3, #48	; 0x30
100026f6:	6822      	ldr	r2, [r4, #0]
100026f8:	68a0      	ldr	r0, [r4, #8]
100026fa:	5cd1      	ldrb	r1, [r2, r3]
100026fc:	f7fe fe9c 	bl	10001438 <XMC_CCU8_SLICE_LoadSelector>
10002700:	6823      	ldr	r3, [r4, #0]
10002702:	e6f9      	b.n	100024f8 <PWM_CCU8_Init+0xec>
10002704:	68a0      	ldr	r0, [r4, #8]
10002706:	f7fe fec7 	bl	10001498 <XMC_CCU8_SLICE_CountConfig>
1000270a:	6823      	ldr	r3, [r4, #0]
1000270c:	e6ef      	b.n	100024ee <PWM_CCU8_Init+0xe2>
1000270e:	68a0      	ldr	r0, [r4, #8]
10002710:	f7fe fecc 	bl	100014ac <XMC_CCU8_SLICE_GateConfig>
10002714:	6823      	ldr	r3, [r4, #0]
10002716:	e6e5      	b.n	100024e4 <PWM_CCU8_Init+0xd8>
10002718:	68a0      	ldr	r0, [r4, #8]
1000271a:	f7fe fed1 	bl	100014c0 <XMC_CCU8_SLICE_DirectionConfig>
1000271e:	6823      	ldr	r3, [r4, #0]
10002720:	e6db      	b.n	100024da <PWM_CCU8_Init+0xce>
10002722:	3201      	adds	r2, #1
10002724:	5c9a      	ldrb	r2, [r3, r2]
10002726:	68a0      	ldr	r0, [r4, #8]
10002728:	f7fe fe6c 	bl	10001404 <XMC_CCU8_SLICE_StopConfig>
1000272c:	6823      	ldr	r3, [r4, #0]
1000272e:	e6cf      	b.n	100024d0 <PWM_CCU8_Init+0xc4>
10002730:	2229      	movs	r2, #41	; 0x29
10002732:	68a0      	ldr	r0, [r4, #8]
10002734:	5c9a      	ldrb	r2, [r3, r2]
10002736:	f7fe fe51 	bl	100013dc <XMC_CCU8_SLICE_StartConfig>
1000273a:	6823      	ldr	r3, [r4, #0]
1000273c:	e6c3      	b.n	100024c6 <PWM_CCU8_Init+0xba>
1000273e:	6bd9      	ldr	r1, [r3, #60]	; 0x3c
10002740:	6860      	ldr	r0, [r4, #4]
10002742:	f7fe fe43 	bl	100013cc <XMC_CCU8_SetMultiChannelShadowTransferMode>
10002746:	6823      	ldr	r3, [r4, #0]
10002748:	e691      	b.n	1000246e <PWM_CCU8_Init+0x62>
1000274a:	2239      	movs	r2, #57	; 0x39
1000274c:	5c99      	ldrb	r1, [r3, r2]
1000274e:	3a01      	subs	r2, #1
10002750:	5c9a      	ldrb	r2, [r3, r2]
10002752:	68a0      	ldr	r0, [r4, #8]
10002754:	f7fe fec4 	bl	100014e0 <XMC_CCU8_SLICE_TrapConfig>
10002758:	2236      	movs	r2, #54	; 0x36
1000275a:	6823      	ldr	r3, [r4, #0]
1000275c:	68a0      	ldr	r0, [r4, #8]
1000275e:	5c9a      	ldrb	r2, [r3, r2]
10002760:	2a00      	cmp	r2, #0
10002762:	d100      	bne.n	10002766 <PWM_CCU8_Init+0x35a>
10002764:	e6d3      	b.n	1000250e <PWM_CCU8_Init+0x102>
10002766:	21f0      	movs	r1, #240	; 0xf0
10002768:	6942      	ldr	r2, [r0, #20]
1000276a:	0349      	lsls	r1, r1, #13
1000276c:	430a      	orrs	r2, r1
1000276e:	6142      	str	r2, [r0, #20]
10002770:	e6cd      	b.n	1000250e <PWM_CCU8_Init+0x102>
10002772:	46c0      	nop			; (mov r8, r8)

10002774 <PWM_CCU8_Start>:
10002774:	2102      	movs	r1, #2
10002776:	b510      	push	{r4, lr}
10002778:	7f03      	ldrb	r3, [r0, #28]
1000277a:	1c02      	adds	r2, r0, #0
1000277c:	438b      	bics	r3, r1
1000277e:	2001      	movs	r0, #1
10002780:	2b01      	cmp	r3, #1
10002782:	d000      	beq.n	10002786 <PWM_CCU8_Start+0x12>
10002784:	bd10      	pop	{r4, pc}
10002786:	1c1c      	adds	r4, r3, #0
10002788:	7b51      	ldrb	r1, [r2, #13]
1000278a:	6850      	ldr	r0, [r2, #4]
1000278c:	408c      	lsls	r4, r1
1000278e:	2128      	movs	r1, #40	; 0x28
10002790:	60c4      	str	r4, [r0, #12]
10002792:	6810      	ldr	r0, [r2, #0]
10002794:	5c41      	ldrb	r1, [r0, r1]
10002796:	2900      	cmp	r1, #0
10002798:	d101      	bne.n	1000279e <PWM_CCU8_Start+0x2a>
1000279a:	6891      	ldr	r1, [r2, #8]
1000279c:	60cb      	str	r3, [r1, #12]
1000279e:	2302      	movs	r3, #2
100027a0:	2000      	movs	r0, #0
100027a2:	7713      	strb	r3, [r2, #28]
100027a4:	e7ee      	b.n	10002784 <PWM_CCU8_Start+0x10>
100027a6:	46c0      	nop			; (mov r8, r8)

100027a8 <PWM_CCU8_Stop>:
100027a8:	7f02      	ldrb	r2, [r0, #28]
100027aa:	2301      	movs	r3, #1
100027ac:	2a00      	cmp	r2, #0
100027ae:	d006      	beq.n	100027be <PWM_CCU8_Stop+0x16>
100027b0:	6882      	ldr	r2, [r0, #8]
100027b2:	6113      	str	r3, [r2, #16]
100027b4:	3301      	adds	r3, #1
100027b6:	6113      	str	r3, [r2, #16]
100027b8:	3301      	adds	r3, #1
100027ba:	7703      	strb	r3, [r0, #28]
100027bc:	2300      	movs	r3, #0
100027be:	1c18      	adds	r0, r3, #0
100027c0:	4770      	bx	lr
100027c2:	46c0      	nop			; (mov r8, r8)

100027c4 <INTERRUPT_Init>:
100027c4:	b5f0      	push	{r4, r5, r6, r7, lr}
100027c6:	7802      	ldrb	r2, [r0, #0]
100027c8:	7843      	ldrb	r3, [r0, #1]
100027ca:	b251      	sxtb	r1, r2
100027cc:	2900      	cmp	r1, #0
100027ce:	db22      	blt.n	10002816 <INTERRUPT_Init+0x52>
100027d0:	4c1d      	ldr	r4, [pc, #116]	; (10002848 <INTERRUPT_Init+0x84>)
100027d2:	2503      	movs	r5, #3
100027d4:	46a4      	mov	ip, r4
100027d6:	24ff      	movs	r4, #255	; 0xff
100027d8:	26c0      	movs	r6, #192	; 0xc0
100027da:	b2d2      	uxtb	r2, r2
100027dc:	0889      	lsrs	r1, r1, #2
100027de:	4015      	ands	r5, r2
100027e0:	00ed      	lsls	r5, r5, #3
100027e2:	0089      	lsls	r1, r1, #2
100027e4:	4461      	add	r1, ip
100027e6:	46a4      	mov	ip, r4
100027e8:	40ac      	lsls	r4, r5
100027ea:	00b6      	lsls	r6, r6, #2
100027ec:	598f      	ldr	r7, [r1, r6]
100027ee:	43a7      	bics	r7, r4
100027f0:	019c      	lsls	r4, r3, #6
100027f2:	4663      	mov	r3, ip
100027f4:	401c      	ands	r4, r3
100027f6:	1c23      	adds	r3, r4, #0
100027f8:	40ab      	lsls	r3, r5
100027fa:	433b      	orrs	r3, r7
100027fc:	518b      	str	r3, [r1, r6]
100027fe:	7883      	ldrb	r3, [r0, #2]
10002800:	2b00      	cmp	r3, #0
10002802:	d006      	beq.n	10002812 <INTERRUPT_Init+0x4e>
10002804:	231f      	movs	r3, #31
10002806:	401a      	ands	r2, r3
10002808:	3b1e      	subs	r3, #30
1000280a:	4093      	lsls	r3, r2
1000280c:	1c1a      	adds	r2, r3, #0
1000280e:	4b0e      	ldr	r3, [pc, #56]	; (10002848 <INTERRUPT_Init+0x84>)
10002810:	601a      	str	r2, [r3, #0]
10002812:	2000      	movs	r0, #0
10002814:	bdf0      	pop	{r4, r5, r6, r7, pc}
10002816:	2403      	movs	r4, #3
10002818:	210f      	movs	r1, #15
1000281a:	b2d2      	uxtb	r2, r2
1000281c:	4011      	ands	r1, r2
1000281e:	4022      	ands	r2, r4
10002820:	34fc      	adds	r4, #252	; 0xfc
10002822:	1c25      	adds	r5, r4, #0
10002824:	4809      	ldr	r0, [pc, #36]	; (1000284c <INTERRUPT_Init+0x88>)
10002826:	00d2      	lsls	r2, r2, #3
10002828:	4684      	mov	ip, r0
1000282a:	4095      	lsls	r5, r2
1000282c:	3908      	subs	r1, #8
1000282e:	0889      	lsrs	r1, r1, #2
10002830:	0089      	lsls	r1, r1, #2
10002832:	4461      	add	r1, ip
10002834:	69c8      	ldr	r0, [r1, #28]
10002836:	019b      	lsls	r3, r3, #6
10002838:	43a8      	bics	r0, r5
1000283a:	4023      	ands	r3, r4
1000283c:	4093      	lsls	r3, r2
1000283e:	1c02      	adds	r2, r0, #0
10002840:	431a      	orrs	r2, r3
10002842:	61ca      	str	r2, [r1, #28]
10002844:	e7e5      	b.n	10002812 <INTERRUPT_Init+0x4e>
10002846:	46c0      	nop			; (mov r8, r8)
10002848:	e000e100 	.word	0xe000e100
1000284c:	e000ed00 	.word	0xe000ed00

10002850 <GLOBAL_CCU8_Init>:
10002850:	b510      	push	{r4, lr}
10002852:	7b43      	ldrb	r3, [r0, #13]
10002854:	2b00      	cmp	r3, #0
10002856:	d10a      	bne.n	1000286e <GLOBAL_CCU8_Init+0x1e>
10002858:	1c04      	adds	r4, r0, #0
1000285a:	7b01      	ldrb	r1, [r0, #12]
1000285c:	6880      	ldr	r0, [r0, #8]
1000285e:	f7fe fd81 	bl	10001364 <XMC_CCU8_Init>
10002862:	2280      	movs	r2, #128	; 0x80
10002864:	68a3      	ldr	r3, [r4, #8]
10002866:	0052      	lsls	r2, r2, #1
10002868:	60da      	str	r2, [r3, #12]
1000286a:	2301      	movs	r3, #1
1000286c:	7363      	strb	r3, [r4, #13]
1000286e:	2000      	movs	r0, #0
10002870:	bd10      	pop	{r4, pc}
10002872:	46c0      	nop			; (mov r8, r8)

10002874 <GLOBAL_CCU4_Init>:
10002874:	b510      	push	{r4, lr}
10002876:	7b43      	ldrb	r3, [r0, #13]
10002878:	2b00      	cmp	r3, #0
1000287a:	d10a      	bne.n	10002892 <GLOBAL_CCU4_Init+0x1e>
1000287c:	1c04      	adds	r4, r0, #0
1000287e:	7b01      	ldrb	r1, [r0, #12]
10002880:	6880      	ldr	r0, [r0, #8]
10002882:	f7fe fd29 	bl	100012d8 <XMC_CCU4_Init>
10002886:	2280      	movs	r2, #128	; 0x80
10002888:	68a3      	ldr	r3, [r4, #8]
1000288a:	0052      	lsls	r2, r2, #1
1000288c:	60da      	str	r2, [r3, #12]
1000288e:	2301      	movs	r3, #1
10002890:	7363      	strb	r3, [r4, #13]
10002892:	2000      	movs	r0, #0
10002894:	bd10      	pop	{r4, pc}
10002896:	46c0      	nop			; (mov r8, r8)

10002898 <GLOBAL_ADC_Init>:
10002898:	b5f8      	push	{r3, r4, r5, r6, r7, lr}
1000289a:	464f      	mov	r7, r9
1000289c:	4646      	mov	r6, r8
1000289e:	b4c0      	push	{r6, r7}
100028a0:	7e03      	ldrb	r3, [r0, #24]
100028a2:	2b02      	cmp	r3, #2
100028a4:	d004      	beq.n	100028b0 <GLOBAL_ADC_Init+0x18>
100028a6:	1c18      	adds	r0, r3, #0
100028a8:	bc0c      	pop	{r2, r3}
100028aa:	4690      	mov	r8, r2
100028ac:	4699      	mov	r9, r3
100028ae:	bdf8      	pop	{r3, r4, r5, r6, r7, pc}
100028b0:	1c04      	adds	r4, r0, #0
100028b2:	68c0      	ldr	r0, [r0, #12]
100028b4:	68a1      	ldr	r1, [r4, #8]
100028b6:	f7ff f87b 	bl	100019b0 <XMC_VADC_GLOBAL_Init>
100028ba:	2380      	movs	r3, #128	; 0x80
100028bc:	4698      	mov	r8, r3
100028be:	3b7f      	subs	r3, #127	; 0x7f
100028c0:	1c25      	adds	r5, r4, #0
100028c2:	2600      	movs	r6, #0
100028c4:	4699      	mov	r9, r3
100028c6:	2700      	movs	r7, #0
100028c8:	682b      	ldr	r3, [r5, #0]
100028ca:	cb03      	ldmia	r3!, {r0, r1}
100028cc:	f7ff f8d8 	bl	10001a80 <XMC_VADC_GROUP_Init>
100028d0:	682b      	ldr	r3, [r5, #0]
100028d2:	2103      	movs	r1, #3
100028d4:	6818      	ldr	r0, [r3, #0]
100028d6:	f7ff f93d 	bl	10001b54 <XMC_VADC_GROUP_SetPowerMode>
100028da:	682b      	ldr	r3, [r5, #0]
100028dc:	7a1b      	ldrb	r3, [r3, #8]
100028de:	2b00      	cmp	r3, #0
100028e0:	d10a      	bne.n	100028f8 <GLOBAL_ADC_Init+0x60>
100028e2:	4643      	mov	r3, r8
100028e4:	68e1      	ldr	r1, [r4, #12]
100028e6:	4648      	mov	r0, r9
100028e8:	58ca      	ldr	r2, [r1, r3]
100028ea:	1c33      	adds	r3, r6, #0
100028ec:	3310      	adds	r3, #16
100028ee:	4098      	lsls	r0, r3
100028f0:	1c03      	adds	r3, r0, #0
100028f2:	4313      	orrs	r3, r2
100028f4:	4642      	mov	r2, r8
100028f6:	508b      	str	r3, [r1, r2]
100028f8:	b2f1      	uxtb	r1, r6
100028fa:	6920      	ldr	r0, [r4, #16]
100028fc:	f7ff f932 	bl	10001b64 <XMC_VADC_GLOBAL_SHS_EnableAcceleratedMode>
10002900:	cd08      	ldmia	r5!, {r3}
10002902:	725f      	strb	r7, [r3, #9]
10002904:	2e01      	cmp	r6, #1
10002906:	d115      	bne.n	10002934 <GLOBAL_ADC_Init+0x9c>
10002908:	2080      	movs	r0, #128	; 0x80
1000290a:	6923      	ldr	r3, [r4, #16]
1000290c:	4a0c      	ldr	r2, [pc, #48]	; (10002940 <GLOBAL_ADC_Init+0xa8>)
1000290e:	6c19      	ldr	r1, [r3, #64]	; 0x40
10002910:	0200      	lsls	r0, r0, #8
10002912:	4011      	ands	r1, r2
10002914:	4301      	orrs	r1, r0
10002916:	6419      	str	r1, [r3, #64]	; 0x40
10002918:	6c1a      	ldr	r2, [r3, #64]	; 0x40
1000291a:	490a      	ldr	r1, [pc, #40]	; (10002944 <GLOBAL_ADC_Init+0xac>)
1000291c:	4302      	orrs	r2, r0
1000291e:	641a      	str	r2, [r3, #64]	; 0x40
10002920:	6c1a      	ldr	r2, [r3, #64]	; 0x40
10002922:	400a      	ands	r2, r1
10002924:	4302      	orrs	r2, r0
10002926:	641a      	str	r2, [r3, #64]	; 0x40
10002928:	7e63      	ldrb	r3, [r4, #25]
1000292a:	2b00      	cmp	r3, #0
1000292c:	d104      	bne.n	10002938 <GLOBAL_ADC_Init+0xa0>
1000292e:	2300      	movs	r3, #0
10002930:	7623      	strb	r3, [r4, #24]
10002932:	e7b8      	b.n	100028a6 <GLOBAL_ADC_Init+0xe>
10002934:	2601      	movs	r6, #1
10002936:	e7c7      	b.n	100028c8 <GLOBAL_ADC_Init+0x30>
10002938:	68e0      	ldr	r0, [r4, #12]
1000293a:	f7ff f86d 	bl	10001a18 <XMC_VADC_GLOBAL_StartupCalibration>
1000293e:	e7f6      	b.n	1000292e <GLOBAL_ADC_Init+0x96>
10002940:	ffff7ff0 	.word	0xffff7ff0
10002944:	fffff3ff 	.word	0xfffff3ff

10002948 <DIGITAL_IO_Init>:
10002948:	b510      	push	{r4, lr}
1000294a:	1c04      	adds	r4, r0, #0
1000294c:	7b01      	ldrb	r1, [r0, #12]
1000294e:	1d02      	adds	r2, r0, #4
10002950:	6800      	ldr	r0, [r0, #0]
10002952:	f7fe fbcf 	bl	100010f4 <XMC_GPIO_Init>
10002956:	6820      	ldr	r0, [r4, #0]
10002958:	7b21      	ldrb	r1, [r4, #12]
1000295a:	7b62      	ldrb	r2, [r4, #13]
1000295c:	f7fe fe6e 	bl	1000163c <XMC_GPIO_SetHardwareControl>
10002960:	2000      	movs	r0, #0
10002962:	bd10      	pop	{r4, pc}

10002964 <SystemCoreSetup>:
10002964:	4770      	bx	lr
10002966:	46c0      	nop			; (mov r8, r8)

10002968 <CLOCK_XMC1_Init>:
10002968:	7803      	ldrb	r3, [r0, #0]
1000296a:	2b00      	cmp	r3, #0
1000296c:	d101      	bne.n	10002972 <CLOCK_XMC1_Init+0xa>
1000296e:	3301      	adds	r3, #1
10002970:	7003      	strb	r3, [r0, #0]
10002972:	2000      	movs	r0, #0
10002974:	4770      	bx	lr
10002976:	46c0      	nop			; (mov r8, r8)

10002978 <SystemCoreClockSetup>:
10002978:	b530      	push	{r4, r5, lr}
1000297a:	b085      	sub	sp, #20
1000297c:	a801      	add	r0, sp, #4
1000297e:	1c02      	adds	r2, r0, #0
10002980:	4b03      	ldr	r3, [pc, #12]	; (10002990 <SystemCoreClockSetup+0x18>)
10002982:	cb32      	ldmia	r3!, {r1, r4, r5}
10002984:	c232      	stmia	r2!, {r1, r4, r5}
10002986:	f7fe fc81 	bl	1000128c <XMC_SCU_CLOCK_Init>
1000298a:	b005      	add	sp, #20
1000298c:	bd30      	pop	{r4, r5, pc}
1000298e:	46c0      	nop			; (mov r8, r8)
10002990:	10007848 	.word	0x10007848

10002994 <ANALOG_IO_Init>:
10002994:	6843      	ldr	r3, [r0, #4]
10002996:	b510      	push	{r4, lr}
10002998:	781a      	ldrb	r2, [r3, #0]
1000299a:	2a00      	cmp	r2, #0
1000299c:	d107      	bne.n	100029ae <ANALOG_IO_Init+0x1a>
1000299e:	6802      	ldr	r2, [r0, #0]
100029a0:	2a00      	cmp	r2, #0
100029a2:	d002      	beq.n	100029aa <ANALOG_IO_Init+0x16>
100029a4:	1c04      	adds	r4, r0, #0
100029a6:	4790      	blx	r2
100029a8:	6863      	ldr	r3, [r4, #4]
100029aa:	2201      	movs	r2, #1
100029ac:	701a      	strb	r2, [r3, #0]
100029ae:	2000      	movs	r0, #0
100029b0:	bd10      	pop	{r4, pc}
100029b2:	46c0      	nop			; (mov r8, r8)

100029b4 <ADC_MEASUREMENT_Init>:
100029b4:	b5f8      	push	{r3, r4, r5, r6, r7, lr}
100029b6:	4646      	mov	r6, r8
100029b8:	464f      	mov	r7, r9
100029ba:	b4c0      	push	{r6, r7}
100029bc:	7e06      	ldrb	r6, [r0, #24]
100029be:	2e02      	cmp	r6, #2
100029c0:	d004      	beq.n	100029cc <ADC_MEASUREMENT_Init+0x18>
100029c2:	1c30      	adds	r0, r6, #0
100029c4:	bc0c      	pop	{r2, r3}
100029c6:	4690      	mov	r8, r2
100029c8:	4699      	mov	r9, r3
100029ca:	bdf8      	pop	{r3, r4, r5, r6, r7, pc}
100029cc:	1c05      	adds	r5, r0, #0
100029ce:	68c0      	ldr	r0, [r0, #12]
100029d0:	f7ff ff62 	bl	10002898 <GLOBAL_ADC_Init>
100029d4:	68eb      	ldr	r3, [r5, #12]
100029d6:	1c06      	adds	r6, r0, #0
100029d8:	68d8      	ldr	r0, [r3, #12]
100029da:	68ab      	ldr	r3, [r5, #8]
100029dc:	2200      	movs	r2, #0
100029de:	6819      	ldr	r1, [r3, #0]
100029e0:	2300      	movs	r3, #0
100029e2:	f7ff f807 	bl	100019f4 <XMC_VADC_GLOBAL_InputClassInit>
100029e6:	68eb      	ldr	r3, [r5, #12]
100029e8:	6869      	ldr	r1, [r5, #4]
100029ea:	68d8      	ldr	r0, [r3, #12]
100029ec:	f7ff f8ca 	bl	10001b84 <XMC_VADC_GLOBAL_BackgroundInit>
100029f0:	23c0      	movs	r3, #192	; 0xc0
100029f2:	005b      	lsls	r3, r3, #1
100029f4:	4698      	mov	r8, r3
100029f6:	3b80      	subs	r3, #128	; 0x80
100029f8:	3bff      	subs	r3, #255	; 0xff
100029fa:	2700      	movs	r7, #0
100029fc:	4699      	mov	r9, r3
100029fe:	682a      	ldr	r2, [r5, #0]
10002a00:	00bb      	lsls	r3, r7, #2
10002a02:	589c      	ldr	r4, [r3, r2]
10002a04:	7c61      	ldrb	r1, [r4, #17]
10002a06:	68a0      	ldr	r0, [r4, #8]
10002a08:	6822      	ldr	r2, [r4, #0]
10002a0a:	f7ff f915 	bl	10001c38 <XMC_VADC_GROUP_ChannelInit>
10002a0e:	21a0      	movs	r1, #160	; 0xa0
10002a10:	0089      	lsls	r1, r1, #2
10002a12:	468c      	mov	ip, r1
10002a14:	6823      	ldr	r3, [r4, #0]
10002a16:	6862      	ldr	r2, [r4, #4]
10002a18:	789b      	ldrb	r3, [r3, #2]
10002a1a:	6812      	ldr	r2, [r2, #0]
10002a1c:	071b      	lsls	r3, r3, #28
10002a1e:	68a1      	ldr	r1, [r4, #8]
10002a20:	0e9b      	lsrs	r3, r3, #26
10002a22:	4463      	add	r3, ip
10002a24:	505a      	str	r2, [r3, r1]
10002a26:	68ea      	ldr	r2, [r5, #12]
10002a28:	7c23      	ldrb	r3, [r4, #16]
10002a2a:	68d2      	ldr	r2, [r2, #12]
10002a2c:	009b      	lsls	r3, r3, #2
10002a2e:	18d3      	adds	r3, r2, r3
10002a30:	4642      	mov	r2, r8
10002a32:	4648      	mov	r0, r9
10002a34:	5899      	ldr	r1, [r3, r2]
10002a36:	7c62      	ldrb	r2, [r4, #17]
10002a38:	4090      	lsls	r0, r2
10002a3a:	1c02      	adds	r2, r0, #0
10002a3c:	430a      	orrs	r2, r1
10002a3e:	4641      	mov	r1, r8
10002a40:	68e0      	ldr	r0, [r4, #12]
10002a42:	505a      	str	r2, [r3, r1]
10002a44:	2800      	cmp	r0, #0
10002a46:	d003      	beq.n	10002a50 <ADC_MEASUREMENT_Init+0x9c>
10002a48:	f7ff ffa4 	bl	10002994 <ANALOG_IO_Init>
10002a4c:	4306      	orrs	r6, r0
10002a4e:	b2f6      	uxtb	r6, r6
10002a50:	3701      	adds	r7, #1
10002a52:	2f03      	cmp	r7, #3
10002a54:	d1d3      	bne.n	100029fe <ADC_MEASUREMENT_Init+0x4a>
10002a56:	686b      	ldr	r3, [r5, #4]
10002a58:	7a1b      	ldrb	r3, [r3, #8]
10002a5a:	071b      	lsls	r3, r3, #28
10002a5c:	d52f      	bpl.n	10002abe <ADC_MEASUREMENT_Init+0x10a>
10002a5e:	6929      	ldr	r1, [r5, #16]
10002a60:	2900      	cmp	r1, #0
10002a62:	d02c      	beq.n	10002abe <ADC_MEASUREMENT_Init+0x10a>
10002a64:	680a      	ldr	r2, [r1, #0]
10002a66:	684b      	ldr	r3, [r1, #4]
10002a68:	b2d4      	uxtb	r4, r2
10002a6a:	b261      	sxtb	r1, r4
10002a6c:	2900      	cmp	r1, #0
10002a6e:	db38      	blt.n	10002ae2 <ADC_MEASUREMENT_Init+0x12e>
10002a70:	4827      	ldr	r0, [pc, #156]	; (10002b10 <ADC_MEASUREMENT_Init+0x15c>)
10002a72:	4017      	ands	r7, r2
10002a74:	4684      	mov	ip, r0
10002a76:	22ff      	movs	r2, #255	; 0xff
10002a78:	20c0      	movs	r0, #192	; 0xc0
10002a7a:	0889      	lsrs	r1, r1, #2
10002a7c:	b2ff      	uxtb	r7, r7
10002a7e:	00ff      	lsls	r7, r7, #3
10002a80:	0089      	lsls	r1, r1, #2
10002a82:	4461      	add	r1, ip
10002a84:	4694      	mov	ip, r2
10002a86:	40ba      	lsls	r2, r7
10002a88:	0080      	lsls	r0, r0, #2
10002a8a:	580c      	ldr	r4, [r1, r0]
10002a8c:	019b      	lsls	r3, r3, #6
10002a8e:	4394      	bics	r4, r2
10002a90:	1c22      	adds	r2, r4, #0
10002a92:	4664      	mov	r4, ip
10002a94:	4023      	ands	r3, r4
10002a96:	40bb      	lsls	r3, r7
10002a98:	1c1f      	adds	r7, r3, #0
10002a9a:	4317      	orrs	r7, r2
10002a9c:	500f      	str	r7, [r1, r0]
10002a9e:	68eb      	ldr	r3, [r5, #12]
10002aa0:	7e69      	ldrb	r1, [r5, #25]
10002aa2:	68d8      	ldr	r0, [r3, #12]
10002aa4:	f7fe ffde 	bl	10001a64 <XMC_VADC_GLOBAL_BackgroundSetReqSrcEventInterruptNode>
10002aa8:	692b      	ldr	r3, [r5, #16]
10002aaa:	681b      	ldr	r3, [r3, #0]
10002aac:	061a      	lsls	r2, r3, #24
10002aae:	d406      	bmi.n	10002abe <ADC_MEASUREMENT_Init+0x10a>
10002ab0:	221f      	movs	r2, #31
10002ab2:	4013      	ands	r3, r2
10002ab4:	3a1e      	subs	r2, #30
10002ab6:	409a      	lsls	r2, r3
10002ab8:	1c13      	adds	r3, r2, #0
10002aba:	4a15      	ldr	r2, [pc, #84]	; (10002b10 <ADC_MEASUREMENT_Init+0x15c>)
10002abc:	6013      	str	r3, [r2, #0]
10002abe:	696b      	ldr	r3, [r5, #20]
10002ac0:	2b00      	cmp	r3, #0
10002ac2:	d000      	beq.n	10002ac6 <ADC_MEASUREMENT_Init+0x112>
10002ac4:	4798      	blx	r3
10002ac6:	7eab      	ldrb	r3, [r5, #26]
10002ac8:	2b00      	cmp	r3, #0
10002aca:	d008      	beq.n	10002ade <ADC_MEASUREMENT_Init+0x12a>
10002acc:	2281      	movs	r2, #129	; 0x81
10002ace:	2080      	movs	r0, #128	; 0x80
10002ad0:	68eb      	ldr	r3, [r5, #12]
10002ad2:	0092      	lsls	r2, r2, #2
10002ad4:	68d9      	ldr	r1, [r3, #12]
10002ad6:	0080      	lsls	r0, r0, #2
10002ad8:	588b      	ldr	r3, [r1, r2]
10002ada:	4303      	orrs	r3, r0
10002adc:	508b      	str	r3, [r1, r2]
10002ade:	762e      	strb	r6, [r5, #24]
10002ae0:	e76f      	b.n	100029c2 <ADC_MEASUREMENT_Init+0xe>
10002ae2:	4a0c      	ldr	r2, [pc, #48]	; (10002b14 <ADC_MEASUREMENT_Init+0x160>)
10002ae4:	200f      	movs	r0, #15
10002ae6:	4694      	mov	ip, r2
10002ae8:	22ff      	movs	r2, #255	; 0xff
10002aea:	4020      	ands	r0, r4
10002aec:	4027      	ands	r7, r4
10002aee:	1c14      	adds	r4, r2, #0
10002af0:	00ff      	lsls	r7, r7, #3
10002af2:	40bc      	lsls	r4, r7
10002af4:	3808      	subs	r0, #8
10002af6:	0880      	lsrs	r0, r0, #2
10002af8:	0080      	lsls	r0, r0, #2
10002afa:	4460      	add	r0, ip
10002afc:	69c1      	ldr	r1, [r0, #28]
10002afe:	43a1      	bics	r1, r4
10002b00:	1c0c      	adds	r4, r1, #0
10002b02:	0199      	lsls	r1, r3, #6
10002b04:	400a      	ands	r2, r1
10002b06:	40ba      	lsls	r2, r7
10002b08:	1c23      	adds	r3, r4, #0
10002b0a:	4313      	orrs	r3, r2
10002b0c:	61c3      	str	r3, [r0, #28]
10002b0e:	e7c6      	b.n	10002a9e <ADC_MEASUREMENT_Init+0xea>
10002b10:	e000e100 	.word	0xe000e100
10002b14:	e000ed00 	.word	0xe000ed00

10002b18 <DAVE_Init>:
10002b18:	b508      	push	{r3, lr}
10002b1a:	4819      	ldr	r0, [pc, #100]	; (10002b80 <DAVE_Init+0x68>)
10002b1c:	f7ff ff24 	bl	10002968 <CLOCK_XMC1_Init>
10002b20:	2800      	cmp	r0, #0
10002b22:	d000      	beq.n	10002b26 <DAVE_Init+0xe>
10002b24:	bd08      	pop	{r3, pc}
10002b26:	4817      	ldr	r0, [pc, #92]	; (10002b84 <DAVE_Init+0x6c>)
10002b28:	f7ff fc40 	bl	100023ac <SYSTIMER_Init>
10002b2c:	2800      	cmp	r0, #0
10002b2e:	d1f9      	bne.n	10002b24 <DAVE_Init+0xc>
10002b30:	4815      	ldr	r0, [pc, #84]	; (10002b88 <DAVE_Init+0x70>)
10002b32:	f7ff fc6b 	bl	1000240c <PWM_CCU8_Init>
10002b36:	2800      	cmp	r0, #0
10002b38:	d1f4      	bne.n	10002b24 <DAVE_Init+0xc>
10002b3a:	4814      	ldr	r0, [pc, #80]	; (10002b8c <DAVE_Init+0x74>)
10002b3c:	f7ff fa9a 	bl	10002074 <TIMER_Init>
10002b40:	2800      	cmp	r0, #0
10002b42:	d1ef      	bne.n	10002b24 <DAVE_Init+0xc>
10002b44:	4812      	ldr	r0, [pc, #72]	; (10002b90 <DAVE_Init+0x78>)
10002b46:	f7ff fe3d 	bl	100027c4 <INTERRUPT_Init>
10002b4a:	2800      	cmp	r0, #0
10002b4c:	d1ea      	bne.n	10002b24 <DAVE_Init+0xc>
10002b4e:	4811      	ldr	r0, [pc, #68]	; (10002b94 <DAVE_Init+0x7c>)
10002b50:	f7ff f8d0 	bl	10001cf4 <UART_Init>
10002b54:	2800      	cmp	r0, #0
10002b56:	d1e5      	bne.n	10002b24 <DAVE_Init+0xc>
10002b58:	480f      	ldr	r0, [pc, #60]	; (10002b98 <DAVE_Init+0x80>)
10002b5a:	f7ff fef5 	bl	10002948 <DIGITAL_IO_Init>
10002b5e:	2800      	cmp	r0, #0
10002b60:	d1e0      	bne.n	10002b24 <DAVE_Init+0xc>
10002b62:	480e      	ldr	r0, [pc, #56]	; (10002b9c <DAVE_Init+0x84>)
10002b64:	f7ff fa86 	bl	10002074 <TIMER_Init>
10002b68:	2800      	cmp	r0, #0
10002b6a:	d1db      	bne.n	10002b24 <DAVE_Init+0xc>
10002b6c:	480c      	ldr	r0, [pc, #48]	; (10002ba0 <DAVE_Init+0x88>)
10002b6e:	f7ff ff21 	bl	100029b4 <ADC_MEASUREMENT_Init>
10002b72:	2800      	cmp	r0, #0
10002b74:	d1d6      	bne.n	10002b24 <DAVE_Init+0xc>
10002b76:	480b      	ldr	r0, [pc, #44]	; (10002ba4 <DAVE_Init+0x8c>)
10002b78:	f7ff fee6 	bl	10002948 <DIGITAL_IO_Init>
10002b7c:	e7d2      	b.n	10002b24 <DAVE_Init+0xc>
10002b7e:	46c0      	nop			; (mov r8, r8)
10002b80:	200007ac 	.word	0x200007ac
10002b84:	200007a8 	.word	0x200007a8
10002b88:	200005a4 	.word	0x200005a4
10002b8c:	2000057c 	.word	0x2000057c
10002b90:	100077e4 	.word	0x100077e4
10002b94:	20000548 	.word	0x20000548
10002b98:	10007838 	.word	0x10007838
10002b9c:	20000554 	.word	0x20000554
10002ba0:	2000062c 	.word	0x2000062c
10002ba4:	10007828 	.word	0x10007828

10002ba8 <System_Delay>:
10002ba8:	b538      	push	{r3, r4, r5, lr}
10002baa:	1c05      	adds	r5, r0, #0
10002bac:	f7ff fc28 	bl	10002400 <SYSTIMER_GetTickCount>
10002bb0:	1c04      	adds	r4, r0, #0
10002bb2:	f7ff fc25 	bl	10002400 <SYSTIMER_GetTickCount>
10002bb6:	1b00      	subs	r0, r0, r4
10002bb8:	4285      	cmp	r5, r0
10002bba:	d8fa      	bhi.n	10002bb2 <System_Delay+0xa>
10002bbc:	bd38      	pop	{r3, r4, r5, pc}
10002bbe:	46c0      	nop			; (mov r8, r8)

10002bc0 <Set_Current_Loop_PI_Charge.part.4>:
10002bc0:	4b17      	ldr	r3, [pc, #92]	; (10002c20 <Set_Current_Loop_PI_Charge.part.4+0x60>)
10002bc2:	2268      	movs	r2, #104	; 0x68
10002bc4:	469c      	mov	ip, r3
10002bc6:	4460      	add	r0, ip
10002bc8:	0043      	lsls	r3, r0, #1
10002bca:	1818      	adds	r0, r3, r0
10002bcc:	00c0      	lsls	r0, r0, #3
10002bce:	1a09      	subs	r1, r1, r0
10002bd0:	4814      	ldr	r0, [pc, #80]	; (10002c24 <Set_Current_Loop_PI_Charge.part.4+0x64>)
10002bd2:	434a      	muls	r2, r1
10002bd4:	6803      	ldr	r3, [r0, #0]
10002bd6:	13d2      	asrs	r2, r2, #15
10002bd8:	469c      	mov	ip, r3
10002bda:	4b13      	ldr	r3, [pc, #76]	; (10002c28 <Set_Current_Loop_PI_Charge.part.4+0x68>)
10002bdc:	b510      	push	{r4, lr}
10002bde:	4359      	muls	r1, r3
10002be0:	4462      	add	r2, ip
10002be2:	13c9      	asrs	r1, r1, #15
10002be4:	4c11      	ldr	r4, [pc, #68]	; (10002c2c <Set_Current_Loop_PI_Charge.part.4+0x6c>)
10002be6:	1889      	adds	r1, r1, r2
10002be8:	6002      	str	r2, [r0, #0]
10002bea:	4b11      	ldr	r3, [pc, #68]	; (10002c30 <Set_Current_Loop_PI_Charge.part.4+0x70>)
10002bec:	42a1      	cmp	r1, r4
10002bee:	dd10      	ble.n	10002c12 <Set_Current_Loop_PI_Charge.part.4+0x52>
10002bf0:	1c21      	adds	r1, r4, #0
10002bf2:	681a      	ldr	r2, [r3, #0]
10002bf4:	6002      	str	r2, [r0, #0]
10002bf6:	601a      	str	r2, [r3, #0]
10002bf8:	4a0e      	ldr	r2, [pc, #56]	; (10002c34 <Set_Current_Loop_PI_Charge.part.4+0x74>)
10002bfa:	6890      	ldr	r0, [r2, #8]
10002bfc:	6b03      	ldr	r3, [r0, #48]	; 0x30
10002bfe:	3301      	adds	r3, #1
10002c00:	b29b      	uxth	r3, r3
10002c02:	4359      	muls	r1, r3
10002c04:	13c9      	asrs	r1, r1, #15
10002c06:	1a59      	subs	r1, r3, r1
10002c08:	6853      	ldr	r3, [r2, #4]
10002c0a:	2210      	movs	r2, #16
10002c0c:	63c1      	str	r1, [r0, #60]	; 0x3c
10002c0e:	611a      	str	r2, [r3, #16]
10002c10:	bd10      	pop	{r4, pc}
10002c12:	2900      	cmp	r1, #0
10002c14:	daef      	bge.n	10002bf6 <Set_Current_Loop_PI_Charge.part.4+0x36>
10002c16:	681a      	ldr	r2, [r3, #0]
10002c18:	2100      	movs	r1, #0
10002c1a:	6002      	str	r2, [r0, #0]
10002c1c:	e7eb      	b.n	10002bf6 <Set_Current_Loop_PI_Charge.part.4+0x36>
10002c1e:	46c0      	nop			; (mov r8, r8)
10002c20:	fffffa55 	.word	0xfffffa55
10002c24:	200007cc 	.word	0x200007cc
10002c28:	000018be 	.word	0x000018be
10002c2c:	00007eb8 	.word	0x00007eb8
10002c30:	200007c8 	.word	0x200007c8
10002c34:	200005a4 	.word	0x200005a4

10002c38 <Check_Protection>:
10002c38:	4770      	bx	lr
10002c3a:	46c0      	nop			; (mov r8, r8)

10002c3c <Check_Charging_Mode>:
10002c3c:	7802      	ldrb	r2, [r0, #0]
10002c3e:	b538      	push	{r3, r4, r5, lr}
10002c40:	1c04      	adds	r4, r0, #0
10002c42:	1c0d      	adds	r5, r1, #0
10002c44:	2a07      	cmp	r2, #7
10002c46:	d100      	bne.n	10002c4a <Check_Charging_Mode+0xe>
10002c48:	e086      	b.n	10002d58 <Check_Charging_Mode+0x11c>
10002c4a:	2a06      	cmp	r2, #6
10002c4c:	d021      	beq.n	10002c92 <Check_Charging_Mode+0x56>
10002c4e:	2a02      	cmp	r2, #2
10002c50:	d027      	beq.n	10002ca2 <Check_Charging_Mode+0x66>
10002c52:	2a0b      	cmp	r2, #11
10002c54:	d03a      	beq.n	10002ccc <Check_Charging_Mode+0x90>
10002c56:	2ad1      	cmp	r2, #209	; 0xd1
10002c58:	d04d      	beq.n	10002cf6 <Check_Charging_Mode+0xba>
10002c5a:	2ad2      	cmp	r2, #210	; 0xd2
10002c5c:	d100      	bne.n	10002c60 <Check_Charging_Mode+0x24>
10002c5e:	e09a      	b.n	10002d96 <Check_Charging_Mode+0x15a>
10002c60:	2a00      	cmp	r2, #0
10002c62:	d100      	bne.n	10002c66 <Check_Charging_Mode+0x2a>
10002c64:	e0c2      	b.n	10002dec <Check_Charging_Mode+0x1b0>
10002c66:	2a0d      	cmp	r2, #13
10002c68:	d100      	bne.n	10002c6c <Check_Charging_Mode+0x30>
10002c6a:	e0de      	b.n	10002e2a <Check_Charging_Mode+0x1ee>
10002c6c:	2a0e      	cmp	r2, #14
10002c6e:	d100      	bne.n	10002c72 <Check_Charging_Mode+0x36>
10002c70:	e0ae      	b.n	10002dd0 <Check_Charging_Mode+0x194>
10002c72:	2a0f      	cmp	r2, #15
10002c74:	d100      	bne.n	10002c78 <Check_Charging_Mode+0x3c>
10002c76:	e0f4      	b.n	10002e62 <Check_Charging_Mode+0x226>
10002c78:	2a10      	cmp	r2, #16
10002c7a:	d100      	bne.n	10002c7e <Check_Charging_Mode+0x42>
10002c7c:	e0af      	b.n	10002dde <Check_Charging_Mode+0x1a2>
10002c7e:	2a11      	cmp	r2, #17
10002c80:	d100      	bne.n	10002c84 <Check_Charging_Mode+0x48>
10002c82:	e0f5      	b.n	10002e70 <Check_Charging_Mode+0x234>
10002c84:	2a12      	cmp	r2, #18
10002c86:	d103      	bne.n	10002c90 <Check_Charging_Mode+0x54>
10002c88:	4b7d      	ldr	r3, [pc, #500]	; (10002e80 <Check_Charging_Mode+0x244>)
10002c8a:	429d      	cmp	r5, r3
10002c8c:	d900      	bls.n	10002c90 <Check_Charging_Mode+0x54>
10002c8e:	e069      	b.n	10002d64 <Check_Charging_Mode+0x128>
10002c90:	bd38      	pop	{r3, r4, r5, pc}
10002c92:	4b7c      	ldr	r3, [pc, #496]	; (10002e84 <Check_Charging_Mode+0x248>)
10002c94:	881a      	ldrh	r2, [r3, #0]
10002c96:	4b7c      	ldr	r3, [pc, #496]	; (10002e88 <Check_Charging_Mode+0x24c>)
10002c98:	429a      	cmp	r2, r3
10002c9a:	d9f9      	bls.n	10002c90 <Check_Charging_Mode+0x54>
10002c9c:	2307      	movs	r3, #7
10002c9e:	7003      	strb	r3, [r0, #0]
10002ca0:	e7f6      	b.n	10002c90 <Check_Charging_Mode+0x54>
10002ca2:	4a7a      	ldr	r2, [pc, #488]	; (10002e8c <Check_Charging_Mode+0x250>)
10002ca4:	4291      	cmp	r1, r2
10002ca6:	d9f3      	bls.n	10002c90 <Check_Charging_Mode+0x54>
10002ca8:	3aa2      	subs	r2, #162	; 0xa2
10002caa:	4293      	cmp	r3, r2
10002cac:	d9f0      	bls.n	10002c90 <Check_Charging_Mode+0x54>
10002cae:	4b78      	ldr	r3, [pc, #480]	; (10002e90 <Check_Charging_Mode+0x254>)
10002cb0:	681a      	ldr	r2, [r3, #0]
10002cb2:	7b19      	ldrb	r1, [r3, #12]
10002cb4:	2380      	movs	r3, #128	; 0x80
10002cb6:	025b      	lsls	r3, r3, #9
10002cb8:	408b      	lsls	r3, r1
10002cba:	6053      	str	r3, [r2, #4]
10002cbc:	4b75      	ldr	r3, [pc, #468]	; (10002e94 <Check_Charging_Mode+0x258>)
10002cbe:	681a      	ldr	r2, [r3, #0]
10002cc0:	7b19      	ldrb	r1, [r3, #12]
10002cc2:	2301      	movs	r3, #1
10002cc4:	408b      	lsls	r3, r1
10002cc6:	6053      	str	r3, [r2, #4]
10002cc8:	2306      	movs	r3, #6
10002cca:	e024      	b.n	10002d16 <Check_Charging_Mode+0xda>
10002ccc:	4a6f      	ldr	r2, [pc, #444]	; (10002e8c <Check_Charging_Mode+0x250>)
10002cce:	4291      	cmp	r1, r2
10002cd0:	d9de      	bls.n	10002c90 <Check_Charging_Mode+0x54>
10002cd2:	3aa2      	subs	r2, #162	; 0xa2
10002cd4:	4293      	cmp	r3, r2
10002cd6:	d9db      	bls.n	10002c90 <Check_Charging_Mode+0x54>
10002cd8:	4b6d      	ldr	r3, [pc, #436]	; (10002e90 <Check_Charging_Mode+0x254>)
10002cda:	681a      	ldr	r2, [r3, #0]
10002cdc:	7b19      	ldrb	r1, [r3, #12]
10002cde:	2380      	movs	r3, #128	; 0x80
10002ce0:	025b      	lsls	r3, r3, #9
10002ce2:	408b      	lsls	r3, r1
10002ce4:	6053      	str	r3, [r2, #4]
10002ce6:	4b6b      	ldr	r3, [pc, #428]	; (10002e94 <Check_Charging_Mode+0x258>)
10002ce8:	681a      	ldr	r2, [r3, #0]
10002cea:	7b19      	ldrb	r1, [r3, #12]
10002cec:	2301      	movs	r3, #1
10002cee:	408b      	lsls	r3, r1
10002cf0:	6053      	str	r3, [r2, #4]
10002cf2:	230a      	movs	r3, #10
10002cf4:	e00f      	b.n	10002d16 <Check_Charging_Mode+0xda>
10002cf6:	4b65      	ldr	r3, [pc, #404]	; (10002e8c <Check_Charging_Mode+0x250>)
10002cf8:	4299      	cmp	r1, r3
10002cfa:	d9c9      	bls.n	10002c90 <Check_Charging_Mode+0x54>
10002cfc:	4b64      	ldr	r3, [pc, #400]	; (10002e90 <Check_Charging_Mode+0x254>)
10002cfe:	6819      	ldr	r1, [r3, #0]
10002d00:	7b1a      	ldrb	r2, [r3, #12]
10002d02:	2301      	movs	r3, #1
10002d04:	1c18      	adds	r0, r3, #0
10002d06:	4090      	lsls	r0, r2
10002d08:	4a62      	ldr	r2, [pc, #392]	; (10002e94 <Check_Charging_Mode+0x258>)
10002d0a:	6048      	str	r0, [r1, #4]
10002d0c:	6811      	ldr	r1, [r2, #0]
10002d0e:	7b12      	ldrb	r2, [r2, #12]
10002d10:	4093      	lsls	r3, r2
10002d12:	604b      	str	r3, [r1, #4]
10002d14:	23d2      	movs	r3, #210	; 0xd2
10002d16:	4860      	ldr	r0, [pc, #384]	; (10002e98 <Check_Charging_Mode+0x25c>)
10002d18:	7023      	strb	r3, [r4, #0]
10002d1a:	6882      	ldr	r2, [r0, #8]
10002d1c:	6b13      	ldr	r3, [r2, #48]	; 0x30
10002d1e:	3301      	adds	r3, #1
10002d20:	b29b      	uxth	r3, r3
10002d22:	63d3      	str	r3, [r2, #60]	; 0x3c
10002d24:	2210      	movs	r2, #16
10002d26:	6843      	ldr	r3, [r0, #4]
10002d28:	611a      	str	r2, [r3, #16]
10002d2a:	4b5c      	ldr	r3, [pc, #368]	; (10002e9c <Check_Charging_Mode+0x260>)
10002d2c:	4a5c      	ldr	r2, [pc, #368]	; (10002ea0 <Check_Charging_Mode+0x264>)
10002d2e:	6959      	ldr	r1, [r3, #20]
10002d30:	400a      	ands	r2, r1
10002d32:	21a8      	movs	r1, #168	; 0xa8
10002d34:	615a      	str	r2, [r3, #20]
10002d36:	695a      	ldr	r2, [r3, #20]
10002d38:	0409      	lsls	r1, r1, #16
10002d3a:	430a      	orrs	r2, r1
10002d3c:	21a8      	movs	r1, #168	; 0xa8
10002d3e:	615a      	str	r2, [r3, #20]
10002d40:	695a      	ldr	r2, [r3, #20]
10002d42:	0609      	lsls	r1, r1, #24
10002d44:	0152      	lsls	r2, r2, #5
10002d46:	0952      	lsrs	r2, r2, #5
10002d48:	615a      	str	r2, [r3, #20]
10002d4a:	695a      	ldr	r2, [r3, #20]
10002d4c:	430a      	orrs	r2, r1
10002d4e:	615a      	str	r2, [r3, #20]
10002d50:	f7ff fd10 	bl	10002774 <PWM_CCU8_Start>
10002d54:	7822      	ldrb	r2, [r4, #0]
10002d56:	e795      	b.n	10002c84 <Check_Charging_Mode+0x48>
10002d58:	4b52      	ldr	r3, [pc, #328]	; (10002ea4 <Check_Charging_Mode+0x268>)
10002d5a:	881a      	ldrh	r2, [r3, #0]
10002d5c:	4b52      	ldr	r3, [pc, #328]	; (10002ea8 <Check_Charging_Mode+0x26c>)
10002d5e:	429a      	cmp	r2, r3
10002d60:	d900      	bls.n	10002d64 <Check_Charging_Mode+0x128>
10002d62:	e795      	b.n	10002c90 <Check_Charging_Mode+0x54>
10002d64:	4b4d      	ldr	r3, [pc, #308]	; (10002e9c <Check_Charging_Mode+0x260>)
10002d66:	4a4e      	ldr	r2, [pc, #312]	; (10002ea0 <Check_Charging_Mode+0x264>)
10002d68:	6959      	ldr	r1, [r3, #20]
10002d6a:	484b      	ldr	r0, [pc, #300]	; (10002e98 <Check_Charging_Mode+0x25c>)
10002d6c:	400a      	ands	r2, r1
10002d6e:	2180      	movs	r1, #128	; 0x80
10002d70:	615a      	str	r2, [r3, #20]
10002d72:	695a      	ldr	r2, [r3, #20]
10002d74:	0409      	lsls	r1, r1, #16
10002d76:	430a      	orrs	r2, r1
10002d78:	2180      	movs	r1, #128	; 0x80
10002d7a:	615a      	str	r2, [r3, #20]
10002d7c:	695a      	ldr	r2, [r3, #20]
10002d7e:	0609      	lsls	r1, r1, #24
10002d80:	0152      	lsls	r2, r2, #5
10002d82:	0952      	lsrs	r2, r2, #5
10002d84:	615a      	str	r2, [r3, #20]
10002d86:	695a      	ldr	r2, [r3, #20]
10002d88:	430a      	orrs	r2, r1
10002d8a:	615a      	str	r2, [r3, #20]
10002d8c:	f7ff fd0c 	bl	100027a8 <PWM_CCU8_Stop>
10002d90:	2309      	movs	r3, #9
10002d92:	7023      	strb	r3, [r4, #0]
10002d94:	e77c      	b.n	10002c90 <Check_Charging_Mode+0x54>
10002d96:	4b45      	ldr	r3, [pc, #276]	; (10002eac <Check_Charging_Mode+0x270>)
10002d98:	4299      	cmp	r1, r3
10002d9a:	d900      	bls.n	10002d9e <Check_Charging_Mode+0x162>
10002d9c:	e778      	b.n	10002c90 <Check_Charging_Mode+0x54>
10002d9e:	4b3f      	ldr	r3, [pc, #252]	; (10002e9c <Check_Charging_Mode+0x260>)
10002da0:	4a3f      	ldr	r2, [pc, #252]	; (10002ea0 <Check_Charging_Mode+0x264>)
10002da2:	6959      	ldr	r1, [r3, #20]
10002da4:	483c      	ldr	r0, [pc, #240]	; (10002e98 <Check_Charging_Mode+0x25c>)
10002da6:	400a      	ands	r2, r1
10002da8:	2180      	movs	r1, #128	; 0x80
10002daa:	615a      	str	r2, [r3, #20]
10002dac:	695a      	ldr	r2, [r3, #20]
10002dae:	0409      	lsls	r1, r1, #16
10002db0:	430a      	orrs	r2, r1
10002db2:	2180      	movs	r1, #128	; 0x80
10002db4:	615a      	str	r2, [r3, #20]
10002db6:	695a      	ldr	r2, [r3, #20]
10002db8:	0609      	lsls	r1, r1, #24
10002dba:	0152      	lsls	r2, r2, #5
10002dbc:	0952      	lsrs	r2, r2, #5
10002dbe:	615a      	str	r2, [r3, #20]
10002dc0:	695a      	ldr	r2, [r3, #20]
10002dc2:	430a      	orrs	r2, r1
10002dc4:	615a      	str	r2, [r3, #20]
10002dc6:	f7ff fcef 	bl	100027a8 <PWM_CCU8_Stop>
10002dca:	230c      	movs	r3, #12
10002dcc:	7023      	strb	r3, [r4, #0]
10002dce:	e75f      	b.n	10002c90 <Check_Charging_Mode+0x54>
10002dd0:	4b2b      	ldr	r3, [pc, #172]	; (10002e80 <Check_Charging_Mode+0x244>)
10002dd2:	4299      	cmp	r1, r3
10002dd4:	d800      	bhi.n	10002dd8 <Check_Charging_Mode+0x19c>
10002dd6:	e75b      	b.n	10002c90 <Check_Charging_Mode+0x54>
10002dd8:	230f      	movs	r3, #15
10002dda:	7003      	strb	r3, [r0, #0]
10002ddc:	e758      	b.n	10002c90 <Check_Charging_Mode+0x54>
10002dde:	4b28      	ldr	r3, [pc, #160]	; (10002e80 <Check_Charging_Mode+0x244>)
10002de0:	4299      	cmp	r1, r3
10002de2:	d800      	bhi.n	10002de6 <Check_Charging_Mode+0x1aa>
10002de4:	e754      	b.n	10002c90 <Check_Charging_Mode+0x54>
10002de6:	2311      	movs	r3, #17
10002de8:	7003      	strb	r3, [r0, #0]
10002dea:	e751      	b.n	10002c90 <Check_Charging_Mode+0x54>
10002dec:	4b28      	ldr	r3, [pc, #160]	; (10002e90 <Check_Charging_Mode+0x254>)
10002dee:	482a      	ldr	r0, [pc, #168]	; (10002e98 <Check_Charging_Mode+0x25c>)
10002df0:	681a      	ldr	r2, [r3, #0]
10002df2:	7b19      	ldrb	r1, [r3, #12]
10002df4:	2380      	movs	r3, #128	; 0x80
10002df6:	025b      	lsls	r3, r3, #9
10002df8:	408b      	lsls	r3, r1
10002dfa:	6053      	str	r3, [r2, #4]
10002dfc:	4b27      	ldr	r3, [pc, #156]	; (10002e9c <Check_Charging_Mode+0x260>)
10002dfe:	4a28      	ldr	r2, [pc, #160]	; (10002ea0 <Check_Charging_Mode+0x264>)
10002e00:	6959      	ldr	r1, [r3, #20]
10002e02:	400a      	ands	r2, r1
10002e04:	2180      	movs	r1, #128	; 0x80
10002e06:	615a      	str	r2, [r3, #20]
10002e08:	695a      	ldr	r2, [r3, #20]
10002e0a:	0409      	lsls	r1, r1, #16
10002e0c:	430a      	orrs	r2, r1
10002e0e:	2180      	movs	r1, #128	; 0x80
10002e10:	615a      	str	r2, [r3, #20]
10002e12:	695a      	ldr	r2, [r3, #20]
10002e14:	0609      	lsls	r1, r1, #24
10002e16:	0152      	lsls	r2, r2, #5
10002e18:	0952      	lsrs	r2, r2, #5
10002e1a:	615a      	str	r2, [r3, #20]
10002e1c:	695a      	ldr	r2, [r3, #20]
10002e1e:	430a      	orrs	r2, r1
10002e20:	615a      	str	r2, [r3, #20]
10002e22:	f7ff fcc1 	bl	100027a8 <PWM_CCU8_Stop>
10002e26:	7822      	ldrb	r2, [r4, #0]
10002e28:	e72c      	b.n	10002c84 <Check_Charging_Mode+0x48>
10002e2a:	4a21      	ldr	r2, [pc, #132]	; (10002eb0 <Check_Charging_Mode+0x274>)
10002e2c:	188a      	adds	r2, r1, r2
10002e2e:	2128      	movs	r1, #40	; 0x28
10002e30:	b292      	uxth	r2, r2
10002e32:	31ff      	adds	r1, #255	; 0xff
10002e34:	428a      	cmp	r2, r1
10002e36:	d900      	bls.n	10002e3a <Check_Charging_Mode+0x1fe>
10002e38:	e72a      	b.n	10002c90 <Check_Charging_Mode+0x54>
10002e3a:	22ba      	movs	r2, #186	; 0xba
10002e3c:	0052      	lsls	r2, r2, #1
10002e3e:	4293      	cmp	r3, r2
10002e40:	d800      	bhi.n	10002e44 <Check_Charging_Mode+0x208>
10002e42:	e725      	b.n	10002c90 <Check_Charging_Mode+0x54>
10002e44:	4b12      	ldr	r3, [pc, #72]	; (10002e90 <Check_Charging_Mode+0x254>)
10002e46:	681a      	ldr	r2, [r3, #0]
10002e48:	7b19      	ldrb	r1, [r3, #12]
10002e4a:	2380      	movs	r3, #128	; 0x80
10002e4c:	025b      	lsls	r3, r3, #9
10002e4e:	408b      	lsls	r3, r1
10002e50:	6053      	str	r3, [r2, #4]
10002e52:	4b10      	ldr	r3, [pc, #64]	; (10002e94 <Check_Charging_Mode+0x258>)
10002e54:	681a      	ldr	r2, [r3, #0]
10002e56:	7b19      	ldrb	r1, [r3, #12]
10002e58:	2301      	movs	r3, #1
10002e5a:	408b      	lsls	r3, r1
10002e5c:	6053      	str	r3, [r2, #4]
10002e5e:	230e      	movs	r3, #14
10002e60:	e759      	b.n	10002d16 <Check_Charging_Mode+0xda>
10002e62:	4b07      	ldr	r3, [pc, #28]	; (10002e80 <Check_Charging_Mode+0x244>)
10002e64:	4299      	cmp	r1, r3
10002e66:	d800      	bhi.n	10002e6a <Check_Charging_Mode+0x22e>
10002e68:	e712      	b.n	10002c90 <Check_Charging_Mode+0x54>
10002e6a:	2310      	movs	r3, #16
10002e6c:	7003      	strb	r3, [r0, #0]
10002e6e:	e70f      	b.n	10002c90 <Check_Charging_Mode+0x54>
10002e70:	4b03      	ldr	r3, [pc, #12]	; (10002e80 <Check_Charging_Mode+0x244>)
10002e72:	4299      	cmp	r1, r3
10002e74:	d800      	bhi.n	10002e78 <Check_Charging_Mode+0x23c>
10002e76:	e70b      	b.n	10002c90 <Check_Charging_Mode+0x54>
10002e78:	2312      	movs	r3, #18
10002e7a:	7003      	strb	r3, [r0, #0]
10002e7c:	e772      	b.n	10002d64 <Check_Charging_Mode+0x128>
10002e7e:	46c0      	nop			; (mov r8, r8)
10002e80:	00000349 	.word	0x00000349
10002e84:	20000912 	.word	0x20000912
10002e88:	0000033f 	.word	0x0000033f
10002e8c:	00000216 	.word	0x00000216
10002e90:	10007838 	.word	0x10007838
10002e94:	10007828 	.word	0x10007828
10002e98:	200005a4 	.word	0x200005a4
10002e9c:	40040000 	.word	0x40040000
10002ea0:	ff07ffff 	.word	0xff07ffff
10002ea4:	2000090c 	.word	0x2000090c
10002ea8:	000007d7 	.word	0x000007d7
10002eac:	00000215 	.word	0x00000215
10002eb0:	fffffde9 	.word	0xfffffde9

10002eb4 <Set_CC_CV_Control_Mode>:
10002eb4:	b538      	push	{r3, r4, r5, lr}
10002eb6:	7803      	ldrb	r3, [r0, #0]
10002eb8:	2b07      	cmp	r3, #7
10002eba:	d04e      	beq.n	10002f5a <Set_CC_CV_Control_Mode+0xa6>
10002ebc:	2b00      	cmp	r3, #0
10002ebe:	d108      	bne.n	10002ed2 <Set_CC_CV_Control_Mode+0x1e>
10002ec0:	2180      	movs	r1, #128	; 0x80
10002ec2:	4a8a      	ldr	r2, [pc, #552]	; (100030ec <Set_CC_CV_Control_Mode+0x238>)
10002ec4:	0209      	lsls	r1, r1, #8
10002ec6:	6011      	str	r1, [r2, #0]
10002ec8:	4a89      	ldr	r2, [pc, #548]	; (100030f0 <Set_CC_CV_Control_Mode+0x23c>)
10002eca:	6013      	str	r3, [r2, #0]
10002ecc:	4a89      	ldr	r2, [pc, #548]	; (100030f4 <Set_CC_CV_Control_Mode+0x240>)
10002ece:	6013      	str	r3, [r2, #0]
10002ed0:	bd38      	pop	{r3, r4, r5, pc}
10002ed2:	1f99      	subs	r1, r3, #6
10002ed4:	2901      	cmp	r1, #1
10002ed6:	d917      	bls.n	10002f08 <Set_CC_CV_Control_Mode+0x54>
10002ed8:	2b0a      	cmp	r3, #10
10002eda:	d015      	beq.n	10002f08 <Set_CC_CV_Control_Mode+0x54>
10002edc:	2bd2      	cmp	r3, #210	; 0xd2
10002ede:	d100      	bne.n	10002ee2 <Set_CC_CV_Control_Mode+0x2e>
10002ee0:	e0aa      	b.n	10003038 <Set_CC_CV_Control_Mode+0x184>
10002ee2:	2b0e      	cmp	r3, #14
10002ee4:	d100      	bne.n	10002ee8 <Set_CC_CV_Control_Mode+0x34>
10002ee6:	e087      	b.n	10002ff8 <Set_CC_CV_Control_Mode+0x144>
10002ee8:	2b0f      	cmp	r3, #15
10002eea:	d100      	bne.n	10002eee <Set_CC_CV_Control_Mode+0x3a>
10002eec:	e0cb      	b.n	10003086 <Set_CC_CV_Control_Mode+0x1d2>
10002eee:	1c10      	adds	r0, r2, #0
10002ef0:	2b10      	cmp	r3, #16
10002ef2:	d100      	bne.n	10002ef6 <Set_CC_CV_Control_Mode+0x42>
10002ef4:	e0e3      	b.n	100030be <Set_CC_CV_Control_Mode+0x20a>
10002ef6:	2b11      	cmp	r3, #17
10002ef8:	d100      	bne.n	10002efc <Set_CC_CV_Control_Mode+0x48>
10002efa:	e0f3      	b.n	100030e4 <Set_CC_CV_Control_Mode+0x230>
10002efc:	2b12      	cmp	r3, #18
10002efe:	d1e7      	bne.n	10002ed0 <Set_CC_CV_Control_Mode+0x1c>
10002f00:	497d      	ldr	r1, [pc, #500]	; (100030f8 <Set_CC_CV_Control_Mode+0x244>)
10002f02:	f7ff fe5d 	bl	10002bc0 <Set_Current_Loop_PI_Charge.part.4>
10002f06:	e7e3      	b.n	10002ed0 <Set_CC_CV_Control_Mode+0x1c>
10002f08:	497c      	ldr	r1, [pc, #496]	; (100030fc <Set_CC_CV_Control_Mode+0x248>)
10002f0a:	4b78      	ldr	r3, [pc, #480]	; (100030ec <Set_CC_CV_Control_Mode+0x238>)
10002f0c:	468c      	mov	ip, r1
10002f0e:	2168      	movs	r1, #104	; 0x68
10002f10:	4462      	add	r2, ip
10002f12:	0050      	lsls	r0, r2, #1
10002f14:	1882      	adds	r2, r0, r2
10002f16:	881b      	ldrh	r3, [r3, #0]
10002f18:	00d2      	lsls	r2, r2, #3
10002f1a:	1a9b      	subs	r3, r3, r2
10002f1c:	4359      	muls	r1, r3
10002f1e:	4a74      	ldr	r2, [pc, #464]	; (100030f0 <Set_CC_CV_Control_Mode+0x23c>)
10002f20:	13c9      	asrs	r1, r1, #15
10002f22:	6810      	ldr	r0, [r2, #0]
10002f24:	4c73      	ldr	r4, [pc, #460]	; (100030f4 <Set_CC_CV_Control_Mode+0x240>)
10002f26:	1808      	adds	r0, r1, r0
10002f28:	4975      	ldr	r1, [pc, #468]	; (10003100 <Set_CC_CV_Control_Mode+0x24c>)
10002f2a:	6010      	str	r0, [r2, #0]
10002f2c:	434b      	muls	r3, r1
10002f2e:	4975      	ldr	r1, [pc, #468]	; (10003104 <Set_CC_CV_Control_Mode+0x250>)
10002f30:	13db      	asrs	r3, r3, #15
10002f32:	181b      	adds	r3, r3, r0
10002f34:	428b      	cmp	r3, r1
10002f36:	dd59      	ble.n	10002fec <Set_CC_CV_Control_Mode+0x138>
10002f38:	1c0b      	adds	r3, r1, #0
10002f3a:	6820      	ldr	r0, [r4, #0]
10002f3c:	6010      	str	r0, [r2, #0]
10002f3e:	6020      	str	r0, [r4, #0]
10002f40:	4971      	ldr	r1, [pc, #452]	; (10003108 <Set_CC_CV_Control_Mode+0x254>)
10002f42:	6888      	ldr	r0, [r1, #8]
10002f44:	6b02      	ldr	r2, [r0, #48]	; 0x30
10002f46:	3201      	adds	r2, #1
10002f48:	b292      	uxth	r2, r2
10002f4a:	4353      	muls	r3, r2
10002f4c:	13db      	asrs	r3, r3, #15
10002f4e:	1ad3      	subs	r3, r2, r3
10002f50:	2210      	movs	r2, #16
10002f52:	63c3      	str	r3, [r0, #60]	; 0x3c
10002f54:	684b      	ldr	r3, [r1, #4]
10002f56:	611a      	str	r2, [r3, #16]
10002f58:	e7ba      	b.n	10002ed0 <Set_CC_CV_Control_Mode+0x1c>
10002f5a:	008b      	lsls	r3, r1, #2
10002f5c:	1859      	adds	r1, r3, r1
10002f5e:	014b      	lsls	r3, r1, #5
10002f60:	18c9      	adds	r1, r1, r3
10002f62:	4b6a      	ldr	r3, [pc, #424]	; (1000310c <Set_CC_CV_Control_Mode+0x258>)
10002f64:	4861      	ldr	r0, [pc, #388]	; (100030ec <Set_CC_CV_Control_Mode+0x238>)
10002f66:	1a59      	subs	r1, r3, r1
10002f68:	4b69      	ldr	r3, [pc, #420]	; (10003110 <Set_CC_CV_Control_Mode+0x25c>)
10002f6a:	434b      	muls	r3, r1
10002f6c:	6801      	ldr	r1, [r0, #0]
10002f6e:	13db      	asrs	r3, r3, #15
10002f70:	468c      	mov	ip, r1
10002f72:	2180      	movs	r1, #128	; 0x80
10002f74:	4463      	add	r3, ip
10002f76:	0209      	lsls	r1, r1, #8
10002f78:	428b      	cmp	r3, r1
10002f7a:	dc34      	bgt.n	10002fe6 <Set_CC_CV_Control_Mode+0x132>
10002f7c:	4965      	ldr	r1, [pc, #404]	; (10003114 <Set_CC_CV_Control_Mode+0x260>)
10002f7e:	428b      	cmp	r3, r1
10002f80:	dc58      	bgt.n	10003034 <Set_CC_CV_Control_Mode+0x180>
10002f82:	2380      	movs	r3, #128	; 0x80
10002f84:	019b      	lsls	r3, r3, #6
10002f86:	6003      	str	r3, [r0, #0]
10002f88:	495c      	ldr	r1, [pc, #368]	; (100030fc <Set_CC_CV_Control_Mode+0x248>)
10002f8a:	468c      	mov	ip, r1
10002f8c:	4462      	add	r2, ip
10002f8e:	0050      	lsls	r0, r2, #1
10002f90:	2168      	movs	r1, #104	; 0x68
10002f92:	1882      	adds	r2, r0, r2
10002f94:	4856      	ldr	r0, [pc, #344]	; (100030f0 <Set_CC_CV_Control_Mode+0x23c>)
10002f96:	00d2      	lsls	r2, r2, #3
10002f98:	1a9a      	subs	r2, r3, r2
10002f9a:	6803      	ldr	r3, [r0, #0]
10002f9c:	4351      	muls	r1, r2
10002f9e:	469c      	mov	ip, r3
10002fa0:	4b57      	ldr	r3, [pc, #348]	; (10003100 <Set_CC_CV_Control_Mode+0x24c>)
10002fa2:	13c9      	asrs	r1, r1, #15
10002fa4:	435a      	muls	r2, r3
10002fa6:	4461      	add	r1, ip
10002fa8:	13d2      	asrs	r2, r2, #15
10002faa:	4b56      	ldr	r3, [pc, #344]	; (10003104 <Set_CC_CV_Control_Mode+0x250>)
10002fac:	1852      	adds	r2, r2, r1
10002fae:	6001      	str	r1, [r0, #0]
10002fb0:	429a      	cmp	r2, r3
10002fb2:	dd11      	ble.n	10002fd8 <Set_CC_CV_Control_Mode+0x124>
10002fb4:	1c1a      	adds	r2, r3, #0
10002fb6:	4c4f      	ldr	r4, [pc, #316]	; (100030f4 <Set_CC_CV_Control_Mode+0x240>)
10002fb8:	6821      	ldr	r1, [r4, #0]
10002fba:	6001      	str	r1, [r0, #0]
10002fbc:	6021      	str	r1, [r4, #0]
10002fbe:	4952      	ldr	r1, [pc, #328]	; (10003108 <Set_CC_CV_Control_Mode+0x254>)
10002fc0:	6888      	ldr	r0, [r1, #8]
10002fc2:	6b03      	ldr	r3, [r0, #48]	; 0x30
10002fc4:	3301      	adds	r3, #1
10002fc6:	b29b      	uxth	r3, r3
10002fc8:	435a      	muls	r2, r3
10002fca:	13d2      	asrs	r2, r2, #15
10002fcc:	1a9a      	subs	r2, r3, r2
10002fce:	63c2      	str	r2, [r0, #60]	; 0x3c
10002fd0:	2210      	movs	r2, #16
10002fd2:	684b      	ldr	r3, [r1, #4]
10002fd4:	611a      	str	r2, [r3, #16]
10002fd6:	e77b      	b.n	10002ed0 <Set_CC_CV_Control_Mode+0x1c>
10002fd8:	4c46      	ldr	r4, [pc, #280]	; (100030f4 <Set_CC_CV_Control_Mode+0x240>)
10002fda:	2a00      	cmp	r2, #0
10002fdc:	daee      	bge.n	10002fbc <Set_CC_CV_Control_Mode+0x108>
10002fde:	6821      	ldr	r1, [r4, #0]
10002fe0:	2200      	movs	r2, #0
10002fe2:	6001      	str	r1, [r0, #0]
10002fe4:	e7ea      	b.n	10002fbc <Set_CC_CV_Control_Mode+0x108>
10002fe6:	6001      	str	r1, [r0, #0]
10002fe8:	1c0b      	adds	r3, r1, #0
10002fea:	e7cd      	b.n	10002f88 <Set_CC_CV_Control_Mode+0xd4>
10002fec:	2b00      	cmp	r3, #0
10002fee:	daa6      	bge.n	10002f3e <Set_CC_CV_Control_Mode+0x8a>
10002ff0:	6820      	ldr	r0, [r4, #0]
10002ff2:	2300      	movs	r3, #0
10002ff4:	6010      	str	r0, [r2, #0]
10002ff6:	e7a2      	b.n	10002f3e <Set_CC_CV_Control_Mode+0x8a>
10002ff8:	4940      	ldr	r1, [pc, #256]	; (100030fc <Set_CC_CV_Control_Mode+0x248>)
10002ffa:	4b3c      	ldr	r3, [pc, #240]	; (100030ec <Set_CC_CV_Control_Mode+0x238>)
10002ffc:	468c      	mov	ip, r1
10002ffe:	4462      	add	r2, ip
10003000:	0051      	lsls	r1, r2, #1
10003002:	188a      	adds	r2, r1, r2
10003004:	2168      	movs	r1, #104	; 0x68
10003006:	881b      	ldrh	r3, [r3, #0]
10003008:	4839      	ldr	r0, [pc, #228]	; (100030f0 <Set_CC_CV_Control_Mode+0x23c>)
1000300a:	00d2      	lsls	r2, r2, #3
1000300c:	1a9a      	subs	r2, r3, r2
1000300e:	6803      	ldr	r3, [r0, #0]
10003010:	4351      	muls	r1, r2
10003012:	469c      	mov	ip, r3
10003014:	4b3a      	ldr	r3, [pc, #232]	; (10003100 <Set_CC_CV_Control_Mode+0x24c>)
10003016:	13c9      	asrs	r1, r1, #15
10003018:	4353      	muls	r3, r2
1000301a:	4461      	add	r1, ip
1000301c:	13db      	asrs	r3, r3, #15
1000301e:	4a39      	ldr	r2, [pc, #228]	; (10003104 <Set_CC_CV_Control_Mode+0x250>)
10003020:	185b      	adds	r3, r3, r1
10003022:	6001      	str	r1, [r0, #0]
10003024:	4c33      	ldr	r4, [pc, #204]	; (100030f4 <Set_CC_CV_Control_Mode+0x240>)
10003026:	4293      	cmp	r3, r2
10003028:	dd4e      	ble.n	100030c8 <Set_CC_CV_Control_Mode+0x214>
1000302a:	1c13      	adds	r3, r2, #0
1000302c:	6821      	ldr	r1, [r4, #0]
1000302e:	6001      	str	r1, [r0, #0]
10003030:	6021      	str	r1, [r4, #0]
10003032:	e785      	b.n	10002f40 <Set_CC_CV_Control_Mode+0x8c>
10003034:	6003      	str	r3, [r0, #0]
10003036:	e7a7      	b.n	10002f88 <Set_CC_CV_Control_Mode+0xd4>
10003038:	4b37      	ldr	r3, [pc, #220]	; (10003118 <Set_CC_CV_Control_Mode+0x264>)
1000303a:	4938      	ldr	r1, [pc, #224]	; (1000311c <Set_CC_CV_Control_Mode+0x268>)
1000303c:	469c      	mov	ip, r3
1000303e:	4462      	add	r2, ip
10003040:	0053      	lsls	r3, r2, #1
10003042:	189a      	adds	r2, r3, r2
10003044:	00d2      	lsls	r2, r2, #3
10003046:	1a8b      	subs	r3, r1, r2
10003048:	4935      	ldr	r1, [pc, #212]	; (10003120 <Set_CC_CV_Control_Mode+0x26c>)
1000304a:	4a36      	ldr	r2, [pc, #216]	; (10003124 <Set_CC_CV_Control_Mode+0x270>)
1000304c:	6808      	ldr	r0, [r1, #0]
1000304e:	435a      	muls	r2, r3
10003050:	4684      	mov	ip, r0
10003052:	0058      	lsls	r0, r3, #1
10003054:	18c3      	adds	r3, r0, r3
10003056:	482b      	ldr	r0, [pc, #172]	; (10003104 <Set_CC_CV_Control_Mode+0x250>)
10003058:	13d2      	asrs	r2, r2, #15
1000305a:	4462      	add	r2, ip
1000305c:	4684      	mov	ip, r0
1000305e:	039b      	lsls	r3, r3, #14
10003060:	13db      	asrs	r3, r3, #15
10003062:	189b      	adds	r3, r3, r2
10003064:	4463      	add	r3, ip
10003066:	600a      	str	r2, [r1, #0]
10003068:	482f      	ldr	r0, [pc, #188]	; (10003128 <Set_CC_CV_Control_Mode+0x274>)
1000306a:	4563      	cmp	r3, ip
1000306c:	dd04      	ble.n	10003078 <Set_CC_CV_Control_Mode+0x1c4>
1000306e:	4663      	mov	r3, ip
10003070:	6802      	ldr	r2, [r0, #0]
10003072:	600a      	str	r2, [r1, #0]
10003074:	6002      	str	r2, [r0, #0]
10003076:	e763      	b.n	10002f40 <Set_CC_CV_Control_Mode+0x8c>
10003078:	2b00      	cmp	r3, #0
1000307a:	dafb      	bge.n	10003074 <Set_CC_CV_Control_Mode+0x1c0>
1000307c:	6802      	ldr	r2, [r0, #0]
1000307e:	2300      	movs	r3, #0
10003080:	600a      	str	r2, [r1, #0]
10003082:	6002      	str	r2, [r0, #0]
10003084:	e75c      	b.n	10002f40 <Set_CC_CV_Control_Mode+0x8c>
10003086:	4b1d      	ldr	r3, [pc, #116]	; (100030fc <Set_CC_CV_Control_Mode+0x248>)
10003088:	2168      	movs	r1, #104	; 0x68
1000308a:	469c      	mov	ip, r3
1000308c:	4462      	add	r2, ip
1000308e:	0053      	lsls	r3, r2, #1
10003090:	189a      	adds	r2, r3, r2
10003092:	4b26      	ldr	r3, [pc, #152]	; (1000312c <Set_CC_CV_Control_Mode+0x278>)
10003094:	00d2      	lsls	r2, r2, #3
10003096:	1a98      	subs	r0, r3, r2
10003098:	4341      	muls	r1, r0
1000309a:	4d15      	ldr	r5, [pc, #84]	; (100030f0 <Set_CC_CV_Control_Mode+0x23c>)
1000309c:	13c9      	asrs	r1, r1, #15
1000309e:	682b      	ldr	r3, [r5, #0]
100030a0:	4c14      	ldr	r4, [pc, #80]	; (100030f4 <Set_CC_CV_Control_Mode+0x240>)
100030a2:	18ca      	adds	r2, r1, r3
100030a4:	4b16      	ldr	r3, [pc, #88]	; (10003100 <Set_CC_CV_Control_Mode+0x24c>)
100030a6:	4917      	ldr	r1, [pc, #92]	; (10003104 <Set_CC_CV_Control_Mode+0x250>)
100030a8:	4343      	muls	r3, r0
100030aa:	13db      	asrs	r3, r3, #15
100030ac:	189b      	adds	r3, r3, r2
100030ae:	602a      	str	r2, [r5, #0]
100030b0:	428b      	cmp	r3, r1
100030b2:	dd10      	ble.n	100030d6 <Set_CC_CV_Control_Mode+0x222>
100030b4:	1c0b      	adds	r3, r1, #0
100030b6:	6822      	ldr	r2, [r4, #0]
100030b8:	602a      	str	r2, [r5, #0]
100030ba:	6022      	str	r2, [r4, #0]
100030bc:	e740      	b.n	10002f40 <Set_CC_CV_Control_Mode+0x8c>
100030be:	2180      	movs	r1, #128	; 0x80
100030c0:	01c9      	lsls	r1, r1, #7
100030c2:	f7ff fd7d 	bl	10002bc0 <Set_Current_Loop_PI_Charge.part.4>
100030c6:	e703      	b.n	10002ed0 <Set_CC_CV_Control_Mode+0x1c>
100030c8:	2b00      	cmp	r3, #0
100030ca:	dab1      	bge.n	10003030 <Set_CC_CV_Control_Mode+0x17c>
100030cc:	6821      	ldr	r1, [r4, #0]
100030ce:	2300      	movs	r3, #0
100030d0:	6001      	str	r1, [r0, #0]
100030d2:	6021      	str	r1, [r4, #0]
100030d4:	e734      	b.n	10002f40 <Set_CC_CV_Control_Mode+0x8c>
100030d6:	2b00      	cmp	r3, #0
100030d8:	daef      	bge.n	100030ba <Set_CC_CV_Control_Mode+0x206>
100030da:	6822      	ldr	r2, [r4, #0]
100030dc:	2300      	movs	r3, #0
100030de:	602a      	str	r2, [r5, #0]
100030e0:	6022      	str	r2, [r4, #0]
100030e2:	e72d      	b.n	10002f40 <Set_CC_CV_Control_Mode+0x8c>
100030e4:	4912      	ldr	r1, [pc, #72]	; (10003130 <Set_CC_CV_Control_Mode+0x27c>)
100030e6:	f7ff fd6b 	bl	10002bc0 <Set_Current_Loop_PI_Charge.part.4>
100030ea:	e6f1      	b.n	10002ed0 <Set_CC_CV_Control_Mode+0x1c>
100030ec:	200006c0 	.word	0x200006c0
100030f0:	200007cc 	.word	0x200007cc
100030f4:	200007c8 	.word	0x200007c8
100030f8:	00001999 	.word	0x00001999
100030fc:	fffffa55 	.word	0xfffffa55
10003100:	000018be 	.word	0x000018be
10003104:	00007eb8 	.word	0x00007eb8
10003108:	200005a4 	.word	0x200005a4
1000310c:	00021999 	.word	0x00021999
10003110:	0000170a 	.word	0x0000170a
10003114:	00001fff 	.word	0x00001fff
10003118:	fffff96f 	.word	0xfffff96f
1000311c:	ffff8000 	.word	0xffff8000
10003120:	200007c4 	.word	0x200007c4
10003124:	0000028f 	.word	0x0000028f
10003128:	200007c0 	.word	0x200007c0
1000312c:	00006666 	.word	0x00006666
10003130:	00002666 	.word	0x00002666

10003134 <System_Initialize>:
10003134:	b570      	push	{r4, r5, r6, lr}
10003136:	4d1a      	ldr	r5, [pc, #104]	; (100031a0 <System_Initialize+0x6c>)
10003138:	4c1a      	ldr	r4, [pc, #104]	; (100031a4 <System_Initialize+0x70>)
1000313a:	68aa      	ldr	r2, [r5, #8]
1000313c:	4e1a      	ldr	r6, [pc, #104]	; (100031a8 <System_Initialize+0x74>)
1000313e:	6b13      	ldr	r3, [r2, #48]	; 0x30
10003140:	1c28      	adds	r0, r5, #0
10003142:	3301      	adds	r3, #1
10003144:	b29b      	uxth	r3, r3
10003146:	63d3      	str	r3, [r2, #60]	; 0x3c
10003148:	2210      	movs	r2, #16
1000314a:	686b      	ldr	r3, [r5, #4]
1000314c:	611a      	str	r2, [r3, #16]
1000314e:	22a8      	movs	r2, #168	; 0xa8
10003150:	6963      	ldr	r3, [r4, #20]
10003152:	0412      	lsls	r2, r2, #16
10003154:	4033      	ands	r3, r6
10003156:	6163      	str	r3, [r4, #20]
10003158:	6963      	ldr	r3, [r4, #20]
1000315a:	4313      	orrs	r3, r2
1000315c:	22a8      	movs	r2, #168	; 0xa8
1000315e:	6163      	str	r3, [r4, #20]
10003160:	6963      	ldr	r3, [r4, #20]
10003162:	0612      	lsls	r2, r2, #24
10003164:	015b      	lsls	r3, r3, #5
10003166:	095b      	lsrs	r3, r3, #5
10003168:	6163      	str	r3, [r4, #20]
1000316a:	6963      	ldr	r3, [r4, #20]
1000316c:	4313      	orrs	r3, r2
1000316e:	6163      	str	r3, [r4, #20]
10003170:	f7ff fb00 	bl	10002774 <PWM_CCU8_Start>
10003174:	2280      	movs	r2, #128	; 0x80
10003176:	6963      	ldr	r3, [r4, #20]
10003178:	0412      	lsls	r2, r2, #16
1000317a:	401e      	ands	r6, r3
1000317c:	6166      	str	r6, [r4, #20]
1000317e:	6963      	ldr	r3, [r4, #20]
10003180:	1c28      	adds	r0, r5, #0
10003182:	4313      	orrs	r3, r2
10003184:	2280      	movs	r2, #128	; 0x80
10003186:	6163      	str	r3, [r4, #20]
10003188:	6963      	ldr	r3, [r4, #20]
1000318a:	0612      	lsls	r2, r2, #24
1000318c:	015b      	lsls	r3, r3, #5
1000318e:	095b      	lsrs	r3, r3, #5
10003190:	6163      	str	r3, [r4, #20]
10003192:	6963      	ldr	r3, [r4, #20]
10003194:	4313      	orrs	r3, r2
10003196:	6163      	str	r3, [r4, #20]
10003198:	f7ff fb06 	bl	100027a8 <PWM_CCU8_Stop>
1000319c:	bd70      	pop	{r4, r5, r6, pc}
1000319e:	46c0      	nop			; (mov r8, r8)
100031a0:	200005a4 	.word	0x200005a4
100031a4:	40040000 	.word	0x40040000
100031a8:	ff07ffff 	.word	0xff07ffff

100031ac <main>:
100031ac:	b5f0      	push	{r4, r5, r6, r7, lr}
100031ae:	465f      	mov	r7, fp
100031b0:	4656      	mov	r6, sl
100031b2:	464d      	mov	r5, r9
100031b4:	4644      	mov	r4, r8
100031b6:	b4f0      	push	{r4, r5, r6, r7}
100031b8:	b083      	sub	sp, #12
100031ba:	f7ff fcad 	bl	10002b18 <DAVE_Init>
100031be:	2800      	cmp	r0, #0
100031c0:	d000      	beq.n	100031c4 <main+0x18>
100031c2:	e7fe      	b.n	100031c2 <main+0x16>
100031c4:	20fa      	movs	r0, #250	; 0xfa
100031c6:	0080      	lsls	r0, r0, #2
100031c8:	f7ff fcee 	bl	10002ba8 <System_Delay>
100031cc:	f7ff ffb2 	bl	10003134 <System_Initialize>
100031d0:	4816      	ldr	r0, [pc, #88]	; (1000322c <main+0x80>)
100031d2:	f7fe ff8d 	bl	100020f0 <TIMER_Start>
100031d6:	4b16      	ldr	r3, [pc, #88]	; (10003230 <main+0x84>)
100031d8:	4916      	ldr	r1, [pc, #88]	; (10003234 <main+0x88>)
100031da:	1c18      	adds	r0, r3, #0
100031dc:	2201      	movs	r2, #1
100031de:	469b      	mov	fp, r3
100031e0:	f7fe fdc8 	bl	10001d74 <UART_Receive>
100031e4:	4b14      	ldr	r3, [pc, #80]	; (10003238 <main+0x8c>)
100031e6:	4c15      	ldr	r4, [pc, #84]	; (1000323c <main+0x90>)
100031e8:	469a      	mov	sl, r3
100031ea:	4b15      	ldr	r3, [pc, #84]	; (10003240 <main+0x94>)
100031ec:	4f15      	ldr	r7, [pc, #84]	; (10003244 <main+0x98>)
100031ee:	4699      	mov	r9, r3
100031f0:	4b15      	ldr	r3, [pc, #84]	; (10003248 <main+0x9c>)
100031f2:	4e16      	ldr	r6, [pc, #88]	; (1000324c <main+0xa0>)
100031f4:	4698      	mov	r8, r3
100031f6:	4d16      	ldr	r5, [pc, #88]	; (10003250 <main+0xa4>)
100031f8:	464b      	mov	r3, r9
100031fa:	881a      	ldrh	r2, [r3, #0]
100031fc:	4643      	mov	r3, r8
100031fe:	8839      	ldrh	r1, [r7, #0]
10003200:	881b      	ldrh	r3, [r3, #0]
10003202:	9100      	str	r1, [sp, #0]
10003204:	8831      	ldrh	r1, [r6, #0]
10003206:	1c20      	adds	r0, r4, #0
10003208:	9101      	str	r1, [sp, #4]
1000320a:	4651      	mov	r1, sl
1000320c:	f000 ff70 	bl	100040f0 <siprintf>
10003210:	782b      	ldrb	r3, [r5, #0]
10003212:	2b00      	cmp	r3, #0
10003214:	d0f0      	beq.n	100031f8 <main+0x4c>
10003216:	1c20      	adds	r0, r4, #0
10003218:	f000 ff8c 	bl	10004134 <strlen>
1000321c:	1c21      	adds	r1, r4, #0
1000321e:	1c02      	adds	r2, r0, #0
10003220:	4658      	mov	r0, fp
10003222:	f7fe fd6d 	bl	10001d00 <UART_Transmit>
10003226:	2300      	movs	r3, #0
10003228:	702b      	strb	r3, [r5, #0]
1000322a:	e7e5      	b.n	100031f8 <main+0x4c>
1000322c:	2000057c 	.word	0x2000057c
10003230:	20000548 	.word	0x20000548
10003234:	20000980 	.word	0x20000980
10003238:	10007894 	.word	0x10007894
1000323c:	2000091c 	.word	0x2000091c
10003240:	20000916 	.word	0x20000916
10003244:	20000908 	.word	0x20000908
10003248:	20000912 	.word	0x20000912
1000324c:	2000090a 	.word	0x2000090a
10003250:	200006c4 	.word	0x200006c4

10003254 <CCU40_0_IRQHandler>:
10003254:	b5f0      	push	{r4, r5, r6, r7, lr}
10003256:	464f      	mov	r7, r9
10003258:	4646      	mov	r6, r8
1000325a:	b4c0      	push	{r6, r7}
1000325c:	4b63      	ldr	r3, [pc, #396]	; (100033ec <CCU40_0_IRQHandler+0x198>)
1000325e:	b083      	sub	sp, #12
10003260:	881b      	ldrh	r3, [r3, #0]
10003262:	4c63      	ldr	r4, [pc, #396]	; (100033f0 <CCU40_0_IRQHandler+0x19c>)
10003264:	2b02      	cmp	r3, #2
10003266:	d100      	bne.n	1000326a <CCU40_0_IRQHandler+0x16>
10003268:	e0ae      	b.n	100033c8 <CCU40_0_IRQHandler+0x174>
1000326a:	2bd1      	cmp	r3, #209	; 0xd1
1000326c:	d100      	bne.n	10003270 <CCU40_0_IRQHandler+0x1c>
1000326e:	e076      	b.n	1000335e <CCU40_0_IRQHandler+0x10a>
10003270:	2b0b      	cmp	r3, #11
10003272:	d100      	bne.n	10003276 <CCU40_0_IRQHandler+0x22>
10003274:	e08a      	b.n	1000338c <CCU40_0_IRQHandler+0x138>
10003276:	2b00      	cmp	r3, #0
10003278:	d000      	beq.n	1000327c <CCU40_0_IRQHandler+0x28>
1000327a:	e079      	b.n	10003370 <CCU40_0_IRQHandler+0x11c>
1000327c:	7822      	ldrb	r2, [r4, #0]
1000327e:	2a00      	cmp	r2, #0
10003280:	d000      	beq.n	10003284 <CCU40_0_IRQHandler+0x30>
10003282:	e073      	b.n	1000336c <CCU40_0_IRQHandler+0x118>
10003284:	21c0      	movs	r1, #192	; 0xc0
10003286:	0089      	lsls	r1, r1, #2
10003288:	468c      	mov	ip, r1
1000328a:	4b5a      	ldr	r3, [pc, #360]	; (100033f4 <CCU40_0_IRQHandler+0x1a0>)
1000328c:	1c20      	adds	r0, r4, #0
1000328e:	689a      	ldr	r2, [r3, #8]
10003290:	681b      	ldr	r3, [r3, #0]
10003292:	789b      	ldrb	r3, [r3, #2]
10003294:	071b      	lsls	r3, r3, #28
10003296:	0e9b      	lsrs	r3, r3, #26
10003298:	4463      	add	r3, ip
1000329a:	589d      	ldr	r5, [r3, r2]
1000329c:	4b56      	ldr	r3, [pc, #344]	; (100033f8 <CCU40_0_IRQHandler+0x1a4>)
1000329e:	b2ae      	uxth	r6, r5
100032a0:	689a      	ldr	r2, [r3, #8]
100032a2:	681b      	ldr	r3, [r3, #0]
100032a4:	1c31      	adds	r1, r6, #0
100032a6:	789b      	ldrb	r3, [r3, #2]
100032a8:	042d      	lsls	r5, r5, #16
100032aa:	071b      	lsls	r3, r3, #28
100032ac:	0e9b      	lsrs	r3, r3, #26
100032ae:	4463      	add	r3, ip
100032b0:	589f      	ldr	r7, [r3, r2]
100032b2:	4b52      	ldr	r3, [pc, #328]	; (100033fc <CCU40_0_IRQHandler+0x1a8>)
100032b4:	b2bf      	uxth	r7, r7
100032b6:	689a      	ldr	r2, [r3, #8]
100032b8:	681b      	ldr	r3, [r3, #0]
100032ba:	0c2d      	lsrs	r5, r5, #16
100032bc:	789b      	ldrb	r3, [r3, #2]
100032be:	071b      	lsls	r3, r3, #28
100032c0:	0e9b      	lsrs	r3, r3, #26
100032c2:	4463      	add	r3, ip
100032c4:	589b      	ldr	r3, [r3, r2]
100032c6:	466a      	mov	r2, sp
100032c8:	80d3      	strh	r3, [r2, #6]
100032ca:	4698      	mov	r8, r3
100032cc:	88d3      	ldrh	r3, [r2, #6]
100032ce:	4699      	mov	r9, r3
100032d0:	1c1a      	adds	r2, r3, #0
100032d2:	1c3b      	adds	r3, r7, #0
100032d4:	f7ff fcb0 	bl	10002c38 <Check_Protection>
100032d8:	1c20      	adds	r0, r4, #0
100032da:	1c31      	adds	r1, r6, #0
100032dc:	1c3b      	adds	r3, r7, #0
100032de:	464a      	mov	r2, r9
100032e0:	f7ff fcac 	bl	10002c3c <Check_Charging_Mode>
100032e4:	1c20      	adds	r0, r4, #0
100032e6:	1c31      	adds	r1, r6, #0
100032e8:	464a      	mov	r2, r9
100032ea:	f7ff fde3 	bl	10002eb4 <Set_CC_CV_Control_Mode>
100032ee:	7822      	ldrb	r2, [r4, #0]
100032f0:	4b43      	ldr	r3, [pc, #268]	; (10003400 <CCU40_0_IRQHandler+0x1ac>)
100032f2:	2080      	movs	r0, #128	; 0x80
100032f4:	801a      	strh	r2, [r3, #0]
100032f6:	2281      	movs	r2, #129	; 0x81
100032f8:	4b42      	ldr	r3, [pc, #264]	; (10003404 <CCU40_0_IRQHandler+0x1b0>)
100032fa:	0092      	lsls	r2, r2, #2
100032fc:	68db      	ldr	r3, [r3, #12]
100032fe:	0080      	lsls	r0, r0, #2
10003300:	68d9      	ldr	r1, [r3, #12]
10003302:	2680      	movs	r6, #128	; 0x80
10003304:	588b      	ldr	r3, [r1, r2]
10003306:	4c40      	ldr	r4, [pc, #256]	; (10003408 <CCU40_0_IRQHandler+0x1b4>)
10003308:	4303      	orrs	r3, r0
1000330a:	508b      	str	r3, [r1, r2]
1000330c:	493f      	ldr	r1, [pc, #252]	; (1000340c <CCU40_0_IRQHandler+0x1b8>)
1000330e:	4840      	ldr	r0, [pc, #256]	; (10003410 <CCU40_0_IRQHandler+0x1bc>)
10003310:	680b      	ldr	r3, [r1, #0]
10003312:	6802      	ldr	r2, [r0, #0]
10003314:	469c      	mov	ip, r3
10003316:	4643      	mov	r3, r8
10003318:	041b      	lsls	r3, r3, #16
1000331a:	0c1b      	lsrs	r3, r3, #16
1000331c:	189a      	adds	r2, r3, r2
1000331e:	8823      	ldrh	r3, [r4, #0]
10003320:	4465      	add	r5, ip
10003322:	3301      	adds	r3, #1
10003324:	b29b      	uxth	r3, r3
10003326:	600d      	str	r5, [r1, #0]
10003328:	6002      	str	r2, [r0, #0]
1000332a:	8023      	strh	r3, [r4, #0]
1000332c:	0236      	lsls	r6, r6, #8
1000332e:	42b3      	cmp	r3, r6
10003330:	d033      	beq.n	1000339a <CCU40_0_IRQHandler+0x146>
10003332:	4a38      	ldr	r2, [pc, #224]	; (10003414 <CCU40_0_IRQHandler+0x1c0>)
10003334:	4938      	ldr	r1, [pc, #224]	; (10003418 <CCU40_0_IRQHandler+0x1c4>)
10003336:	8813      	ldrh	r3, [r2, #0]
10003338:	3301      	adds	r3, #1
1000333a:	b29b      	uxth	r3, r3
1000333c:	8013      	strh	r3, [r2, #0]
1000333e:	428b      	cmp	r3, r1
10003340:	d108      	bne.n	10003354 <CCU40_0_IRQHandler+0x100>
10003342:	4936      	ldr	r1, [pc, #216]	; (1000341c <CCU40_0_IRQHandler+0x1c8>)
10003344:	880b      	ldrh	r3, [r1, #0]
10003346:	3301      	adds	r3, #1
10003348:	800b      	strh	r3, [r1, #0]
1000334a:	2101      	movs	r1, #1
1000334c:	4b34      	ldr	r3, [pc, #208]	; (10003420 <CCU40_0_IRQHandler+0x1cc>)
1000334e:	7019      	strb	r1, [r3, #0]
10003350:	2300      	movs	r3, #0
10003352:	8013      	strh	r3, [r2, #0]
10003354:	b003      	add	sp, #12
10003356:	bc0c      	pop	{r2, r3}
10003358:	4690      	mov	r8, r2
1000335a:	4699      	mov	r9, r3
1000335c:	bdf0      	pop	{r4, r5, r6, r7, pc}
1000335e:	7822      	ldrb	r2, [r4, #0]
10003360:	2ad2      	cmp	r2, #210	; 0xd2
10003362:	d100      	bne.n	10003366 <CCU40_0_IRQHandler+0x112>
10003364:	e78e      	b.n	10003284 <CCU40_0_IRQHandler+0x30>
10003366:	2a0c      	cmp	r2, #12
10003368:	d100      	bne.n	1000336c <CCU40_0_IRQHandler+0x118>
1000336a:	e78b      	b.n	10003284 <CCU40_0_IRQHandler+0x30>
1000336c:	7023      	strb	r3, [r4, #0]
1000336e:	e789      	b.n	10003284 <CCU40_0_IRQHandler+0x30>
10003370:	2b0d      	cmp	r3, #13
10003372:	d000      	beq.n	10003376 <CCU40_0_IRQHandler+0x122>
10003374:	e786      	b.n	10003284 <CCU40_0_IRQHandler+0x30>
10003376:	7822      	ldrb	r2, [r4, #0]
10003378:	1c11      	adds	r1, r2, #0
1000337a:	390d      	subs	r1, #13
1000337c:	2905      	cmp	r1, #5
1000337e:	d800      	bhi.n	10003382 <CCU40_0_IRQHandler+0x12e>
10003380:	e780      	b.n	10003284 <CCU40_0_IRQHandler+0x30>
10003382:	2a09      	cmp	r2, #9
10003384:	d100      	bne.n	10003388 <CCU40_0_IRQHandler+0x134>
10003386:	e77d      	b.n	10003284 <CCU40_0_IRQHandler+0x30>
10003388:	7023      	strb	r3, [r4, #0]
1000338a:	e77b      	b.n	10003284 <CCU40_0_IRQHandler+0x30>
1000338c:	7822      	ldrb	r2, [r4, #0]
1000338e:	3a0a      	subs	r2, #10
10003390:	2a01      	cmp	r2, #1
10003392:	d800      	bhi.n	10003396 <CCU40_0_IRQHandler+0x142>
10003394:	e776      	b.n	10003284 <CCU40_0_IRQHandler+0x30>
10003396:	7023      	strb	r3, [r4, #0]
10003398:	e774      	b.n	10003284 <CCU40_0_IRQHandler+0x30>
1000339a:	4b22      	ldr	r3, [pc, #136]	; (10003424 <CCU40_0_IRQHandler+0x1d0>)
1000339c:	0bed      	lsrs	r5, r5, #15
1000339e:	801d      	strh	r5, [r3, #0]
100033a0:	0bd3      	lsrs	r3, r2, #15
100033a2:	4a21      	ldr	r2, [pc, #132]	; (10003428 <CCU40_0_IRQHandler+0x1d4>)
100033a4:	b29b      	uxth	r3, r3
100033a6:	4293      	cmp	r3, r2
100033a8:	d919      	bls.n	100033de <CCU40_0_IRQHandler+0x18a>
100033aa:	1c1d      	adds	r5, r3, #0
100033ac:	4a1f      	ldr	r2, [pc, #124]	; (1000342c <CCU40_0_IRQHandler+0x1d8>)
100033ae:	35dc      	adds	r5, #220	; 0xdc
100033b0:	8015      	strh	r5, [r2, #0]
100033b2:	4a1f      	ldr	r2, [pc, #124]	; (10003430 <CCU40_0_IRQHandler+0x1dc>)
100033b4:	4694      	mov	ip, r2
100033b6:	4463      	add	r3, ip
100033b8:	b29b      	uxth	r3, r3
100033ba:	4a1e      	ldr	r2, [pc, #120]	; (10003434 <CCU40_0_IRQHandler+0x1e0>)
100033bc:	8013      	strh	r3, [r2, #0]
100033be:	2300      	movs	r3, #0
100033c0:	600b      	str	r3, [r1, #0]
100033c2:	6003      	str	r3, [r0, #0]
100033c4:	8023      	strh	r3, [r4, #0]
100033c6:	e7b4      	b.n	10003332 <CCU40_0_IRQHandler+0xde>
100033c8:	7822      	ldrb	r2, [r4, #0]
100033ca:	2a02      	cmp	r2, #2
100033cc:	d100      	bne.n	100033d0 <CCU40_0_IRQHandler+0x17c>
100033ce:	e759      	b.n	10003284 <CCU40_0_IRQHandler+0x30>
100033d0:	1f91      	subs	r1, r2, #6
100033d2:	2901      	cmp	r1, #1
100033d4:	d800      	bhi.n	100033d8 <CCU40_0_IRQHandler+0x184>
100033d6:	e755      	b.n	10003284 <CCU40_0_IRQHandler+0x30>
100033d8:	2a09      	cmp	r2, #9
100033da:	d1d5      	bne.n	10003388 <CCU40_0_IRQHandler+0x134>
100033dc:	e752      	b.n	10003284 <CCU40_0_IRQHandler+0x30>
100033de:	4a13      	ldr	r2, [pc, #76]	; (1000342c <CCU40_0_IRQHandler+0x1d8>)
100033e0:	8013      	strh	r3, [r2, #0]
100033e2:	4a15      	ldr	r2, [pc, #84]	; (10003438 <CCU40_0_IRQHandler+0x1e4>)
100033e4:	1ad3      	subs	r3, r2, r3
100033e6:	b29b      	uxth	r3, r3
100033e8:	e7e7      	b.n	100033ba <CCU40_0_IRQHandler+0x166>
100033ea:	46c0      	nop			; (mov r8, r8)
100033ec:	20000918 	.word	0x20000918
100033f0:	200007d0 	.word	0x200007d0
100033f4:	20000668 	.word	0x20000668
100033f8:	2000067c 	.word	0x2000067c
100033fc:	200006a0 	.word	0x200006a0
10003400:	2000090a 	.word	0x2000090a
10003404:	2000062c 	.word	0x2000062c
10003408:	200007d2 	.word	0x200007d2
1000340c:	200007d4 	.word	0x200007d4
10003410:	200007dc 	.word	0x200007dc
10003414:	200007d8 	.word	0x200007d8
10003418:	0000c350 	.word	0x0000c350
1000341c:	20000916 	.word	0x20000916
10003420:	200006c4 	.word	0x200006c4
10003424:	20000912 	.word	0x20000912
10003428:	00000686 	.word	0x00000686
1000342c:	2000090c 	.word	0x2000090c
10003430:	fffffa55 	.word	0xfffffa55
10003434:	20000908 	.word	0x20000908
10003438:	00000687 	.word	0x00000687

1000343c <UART_End_of_Receive_Call_Back>:
1000343c:	b510      	push	{r4, lr}
1000343e:	4c05      	ldr	r4, [pc, #20]	; (10003454 <UART_End_of_Receive_Call_Back+0x18>)
10003440:	2201      	movs	r2, #1
10003442:	1c21      	adds	r1, r4, #0
10003444:	4804      	ldr	r0, [pc, #16]	; (10003458 <UART_End_of_Receive_Call_Back+0x1c>)
10003446:	f7fe fc95 	bl	10001d74 <UART_Receive>
1000344a:	7822      	ldrb	r2, [r4, #0]
1000344c:	4b03      	ldr	r3, [pc, #12]	; (1000345c <UART_End_of_Receive_Call_Back+0x20>)
1000344e:	801a      	strh	r2, [r3, #0]
10003450:	bd10      	pop	{r4, pc}
10003452:	46c0      	nop			; (mov r8, r8)
10003454:	20000980 	.word	0x20000980
10003458:	20000548 	.word	0x20000548
1000345c:	20000918 	.word	0x20000918

10003460 <__aeabi_uidiv>:
10003460:	2200      	movs	r2, #0
10003462:	0843      	lsrs	r3, r0, #1
10003464:	428b      	cmp	r3, r1
10003466:	d374      	bcc.n	10003552 <__aeabi_uidiv+0xf2>
10003468:	0903      	lsrs	r3, r0, #4
1000346a:	428b      	cmp	r3, r1
1000346c:	d35f      	bcc.n	1000352e <__aeabi_uidiv+0xce>
1000346e:	0a03      	lsrs	r3, r0, #8
10003470:	428b      	cmp	r3, r1
10003472:	d344      	bcc.n	100034fe <__aeabi_uidiv+0x9e>
10003474:	0b03      	lsrs	r3, r0, #12
10003476:	428b      	cmp	r3, r1
10003478:	d328      	bcc.n	100034cc <__aeabi_uidiv+0x6c>
1000347a:	0c03      	lsrs	r3, r0, #16
1000347c:	428b      	cmp	r3, r1
1000347e:	d30d      	bcc.n	1000349c <__aeabi_uidiv+0x3c>
10003480:	22ff      	movs	r2, #255	; 0xff
10003482:	0209      	lsls	r1, r1, #8
10003484:	ba12      	rev	r2, r2
10003486:	0c03      	lsrs	r3, r0, #16
10003488:	428b      	cmp	r3, r1
1000348a:	d302      	bcc.n	10003492 <__aeabi_uidiv+0x32>
1000348c:	1212      	asrs	r2, r2, #8
1000348e:	0209      	lsls	r1, r1, #8
10003490:	d065      	beq.n	1000355e <__aeabi_uidiv+0xfe>
10003492:	0b03      	lsrs	r3, r0, #12
10003494:	428b      	cmp	r3, r1
10003496:	d319      	bcc.n	100034cc <__aeabi_uidiv+0x6c>
10003498:	e000      	b.n	1000349c <__aeabi_uidiv+0x3c>
1000349a:	0a09      	lsrs	r1, r1, #8
1000349c:	0bc3      	lsrs	r3, r0, #15
1000349e:	428b      	cmp	r3, r1
100034a0:	d301      	bcc.n	100034a6 <__aeabi_uidiv+0x46>
100034a2:	03cb      	lsls	r3, r1, #15
100034a4:	1ac0      	subs	r0, r0, r3
100034a6:	4152      	adcs	r2, r2
100034a8:	0b83      	lsrs	r3, r0, #14
100034aa:	428b      	cmp	r3, r1
100034ac:	d301      	bcc.n	100034b2 <__aeabi_uidiv+0x52>
100034ae:	038b      	lsls	r3, r1, #14
100034b0:	1ac0      	subs	r0, r0, r3
100034b2:	4152      	adcs	r2, r2
100034b4:	0b43      	lsrs	r3, r0, #13
100034b6:	428b      	cmp	r3, r1
100034b8:	d301      	bcc.n	100034be <__aeabi_uidiv+0x5e>
100034ba:	034b      	lsls	r3, r1, #13
100034bc:	1ac0      	subs	r0, r0, r3
100034be:	4152      	adcs	r2, r2
100034c0:	0b03      	lsrs	r3, r0, #12
100034c2:	428b      	cmp	r3, r1
100034c4:	d301      	bcc.n	100034ca <__aeabi_uidiv+0x6a>
100034c6:	030b      	lsls	r3, r1, #12
100034c8:	1ac0      	subs	r0, r0, r3
100034ca:	4152      	adcs	r2, r2
100034cc:	0ac3      	lsrs	r3, r0, #11
100034ce:	428b      	cmp	r3, r1
100034d0:	d301      	bcc.n	100034d6 <__aeabi_uidiv+0x76>
100034d2:	02cb      	lsls	r3, r1, #11
100034d4:	1ac0      	subs	r0, r0, r3
100034d6:	4152      	adcs	r2, r2
100034d8:	0a83      	lsrs	r3, r0, #10
100034da:	428b      	cmp	r3, r1
100034dc:	d301      	bcc.n	100034e2 <__aeabi_uidiv+0x82>
100034de:	028b      	lsls	r3, r1, #10
100034e0:	1ac0      	subs	r0, r0, r3
100034e2:	4152      	adcs	r2, r2
100034e4:	0a43      	lsrs	r3, r0, #9
100034e6:	428b      	cmp	r3, r1
100034e8:	d301      	bcc.n	100034ee <__aeabi_uidiv+0x8e>
100034ea:	024b      	lsls	r3, r1, #9
100034ec:	1ac0      	subs	r0, r0, r3
100034ee:	4152      	adcs	r2, r2
100034f0:	0a03      	lsrs	r3, r0, #8
100034f2:	428b      	cmp	r3, r1
100034f4:	d301      	bcc.n	100034fa <__aeabi_uidiv+0x9a>
100034f6:	020b      	lsls	r3, r1, #8
100034f8:	1ac0      	subs	r0, r0, r3
100034fa:	4152      	adcs	r2, r2
100034fc:	d2cd      	bcs.n	1000349a <__aeabi_uidiv+0x3a>
100034fe:	09c3      	lsrs	r3, r0, #7
10003500:	428b      	cmp	r3, r1
10003502:	d301      	bcc.n	10003508 <__aeabi_uidiv+0xa8>
10003504:	01cb      	lsls	r3, r1, #7
10003506:	1ac0      	subs	r0, r0, r3
10003508:	4152      	adcs	r2, r2
1000350a:	0983      	lsrs	r3, r0, #6
1000350c:	428b      	cmp	r3, r1
1000350e:	d301      	bcc.n	10003514 <__aeabi_uidiv+0xb4>
10003510:	018b      	lsls	r3, r1, #6
10003512:	1ac0      	subs	r0, r0, r3
10003514:	4152      	adcs	r2, r2
10003516:	0943      	lsrs	r3, r0, #5
10003518:	428b      	cmp	r3, r1
1000351a:	d301      	bcc.n	10003520 <__aeabi_uidiv+0xc0>
1000351c:	014b      	lsls	r3, r1, #5
1000351e:	1ac0      	subs	r0, r0, r3
10003520:	4152      	adcs	r2, r2
10003522:	0903      	lsrs	r3, r0, #4
10003524:	428b      	cmp	r3, r1
10003526:	d301      	bcc.n	1000352c <__aeabi_uidiv+0xcc>
10003528:	010b      	lsls	r3, r1, #4
1000352a:	1ac0      	subs	r0, r0, r3
1000352c:	4152      	adcs	r2, r2
1000352e:	08c3      	lsrs	r3, r0, #3
10003530:	428b      	cmp	r3, r1
10003532:	d301      	bcc.n	10003538 <__aeabi_uidiv+0xd8>
10003534:	00cb      	lsls	r3, r1, #3
10003536:	1ac0      	subs	r0, r0, r3
10003538:	4152      	adcs	r2, r2
1000353a:	0883      	lsrs	r3, r0, #2
1000353c:	428b      	cmp	r3, r1
1000353e:	d301      	bcc.n	10003544 <__aeabi_uidiv+0xe4>
10003540:	008b      	lsls	r3, r1, #2
10003542:	1ac0      	subs	r0, r0, r3
10003544:	4152      	adcs	r2, r2
10003546:	0843      	lsrs	r3, r0, #1
10003548:	428b      	cmp	r3, r1
1000354a:	d301      	bcc.n	10003550 <__aeabi_uidiv+0xf0>
1000354c:	004b      	lsls	r3, r1, #1
1000354e:	1ac0      	subs	r0, r0, r3
10003550:	4152      	adcs	r2, r2
10003552:	1a41      	subs	r1, r0, r1
10003554:	d200      	bcs.n	10003558 <__aeabi_uidiv+0xf8>
10003556:	4601      	mov	r1, r0
10003558:	4152      	adcs	r2, r2
1000355a:	4610      	mov	r0, r2
1000355c:	4770      	bx	lr
1000355e:	e7ff      	b.n	10003560 <__aeabi_uidiv+0x100>
10003560:	b501      	push	{r0, lr}
10003562:	2000      	movs	r0, #0
10003564:	f000 f8fc 	bl	10003760 <__aeabi_idiv0>
10003568:	bd02      	pop	{r1, pc}
1000356a:	46c0      	nop			; (mov r8, r8)

1000356c <__aeabi_uidivmod>:
1000356c:	2900      	cmp	r1, #0
1000356e:	d0f7      	beq.n	10003560 <__aeabi_uidiv+0x100>
10003570:	b503      	push	{r0, r1, lr}
10003572:	f7ff ff75 	bl	10003460 <__aeabi_uidiv>
10003576:	bc0e      	pop	{r1, r2, r3}
10003578:	4342      	muls	r2, r0
1000357a:	1a89      	subs	r1, r1, r2
1000357c:	4718      	bx	r3
1000357e:	46c0      	nop			; (mov r8, r8)

10003580 <__aeabi_idiv>:
10003580:	4603      	mov	r3, r0
10003582:	430b      	orrs	r3, r1
10003584:	d47f      	bmi.n	10003686 <__aeabi_idiv+0x106>
10003586:	2200      	movs	r2, #0
10003588:	0843      	lsrs	r3, r0, #1
1000358a:	428b      	cmp	r3, r1
1000358c:	d374      	bcc.n	10003678 <__aeabi_idiv+0xf8>
1000358e:	0903      	lsrs	r3, r0, #4
10003590:	428b      	cmp	r3, r1
10003592:	d35f      	bcc.n	10003654 <__aeabi_idiv+0xd4>
10003594:	0a03      	lsrs	r3, r0, #8
10003596:	428b      	cmp	r3, r1
10003598:	d344      	bcc.n	10003624 <__aeabi_idiv+0xa4>
1000359a:	0b03      	lsrs	r3, r0, #12
1000359c:	428b      	cmp	r3, r1
1000359e:	d328      	bcc.n	100035f2 <__aeabi_idiv+0x72>
100035a0:	0c03      	lsrs	r3, r0, #16
100035a2:	428b      	cmp	r3, r1
100035a4:	d30d      	bcc.n	100035c2 <__aeabi_idiv+0x42>
100035a6:	22ff      	movs	r2, #255	; 0xff
100035a8:	0209      	lsls	r1, r1, #8
100035aa:	ba12      	rev	r2, r2
100035ac:	0c03      	lsrs	r3, r0, #16
100035ae:	428b      	cmp	r3, r1
100035b0:	d302      	bcc.n	100035b8 <__aeabi_idiv+0x38>
100035b2:	1212      	asrs	r2, r2, #8
100035b4:	0209      	lsls	r1, r1, #8
100035b6:	d065      	beq.n	10003684 <__aeabi_idiv+0x104>
100035b8:	0b03      	lsrs	r3, r0, #12
100035ba:	428b      	cmp	r3, r1
100035bc:	d319      	bcc.n	100035f2 <__aeabi_idiv+0x72>
100035be:	e000      	b.n	100035c2 <__aeabi_idiv+0x42>
100035c0:	0a09      	lsrs	r1, r1, #8
100035c2:	0bc3      	lsrs	r3, r0, #15
100035c4:	428b      	cmp	r3, r1
100035c6:	d301      	bcc.n	100035cc <__aeabi_idiv+0x4c>
100035c8:	03cb      	lsls	r3, r1, #15
100035ca:	1ac0      	subs	r0, r0, r3
100035cc:	4152      	adcs	r2, r2
100035ce:	0b83      	lsrs	r3, r0, #14
100035d0:	428b      	cmp	r3, r1
100035d2:	d301      	bcc.n	100035d8 <__aeabi_idiv+0x58>
100035d4:	038b      	lsls	r3, r1, #14
100035d6:	1ac0      	subs	r0, r0, r3
100035d8:	4152      	adcs	r2, r2
100035da:	0b43      	lsrs	r3, r0, #13
100035dc:	428b      	cmp	r3, r1
100035de:	d301      	bcc.n	100035e4 <__aeabi_idiv+0x64>
100035e0:	034b      	lsls	r3, r1, #13
100035e2:	1ac0      	subs	r0, r0, r3
100035e4:	4152      	adcs	r2, r2
100035e6:	0b03      	lsrs	r3, r0, #12
100035e8:	428b      	cmp	r3, r1
100035ea:	d301      	bcc.n	100035f0 <__aeabi_idiv+0x70>
100035ec:	030b      	lsls	r3, r1, #12
100035ee:	1ac0      	subs	r0, r0, r3
100035f0:	4152      	adcs	r2, r2
100035f2:	0ac3      	lsrs	r3, r0, #11
100035f4:	428b      	cmp	r3, r1
100035f6:	d301      	bcc.n	100035fc <__aeabi_idiv+0x7c>
100035f8:	02cb      	lsls	r3, r1, #11
100035fa:	1ac0      	subs	r0, r0, r3
100035fc:	4152      	adcs	r2, r2
100035fe:	0a83      	lsrs	r3, r0, #10
10003600:	428b      	cmp	r3, r1
10003602:	d301      	bcc.n	10003608 <__aeabi_idiv+0x88>
10003604:	028b      	lsls	r3, r1, #10
10003606:	1ac0      	subs	r0, r0, r3
10003608:	4152      	adcs	r2, r2
1000360a:	0a43      	lsrs	r3, r0, #9
1000360c:	428b      	cmp	r3, r1
1000360e:	d301      	bcc.n	10003614 <__aeabi_idiv+0x94>
10003610:	024b      	lsls	r3, r1, #9
10003612:	1ac0      	subs	r0, r0, r3
10003614:	4152      	adcs	r2, r2
10003616:	0a03      	lsrs	r3, r0, #8
10003618:	428b      	cmp	r3, r1
1000361a:	d301      	bcc.n	10003620 <__aeabi_idiv+0xa0>
1000361c:	020b      	lsls	r3, r1, #8
1000361e:	1ac0      	subs	r0, r0, r3
10003620:	4152      	adcs	r2, r2
10003622:	d2cd      	bcs.n	100035c0 <__aeabi_idiv+0x40>
10003624:	09c3      	lsrs	r3, r0, #7
10003626:	428b      	cmp	r3, r1
10003628:	d301      	bcc.n	1000362e <__aeabi_idiv+0xae>
1000362a:	01cb      	lsls	r3, r1, #7
1000362c:	1ac0      	subs	r0, r0, r3
1000362e:	4152      	adcs	r2, r2
10003630:	0983      	lsrs	r3, r0, #6
10003632:	428b      	cmp	r3, r1
10003634:	d301      	bcc.n	1000363a <__aeabi_idiv+0xba>
10003636:	018b      	lsls	r3, r1, #6
10003638:	1ac0      	subs	r0, r0, r3
1000363a:	4152      	adcs	r2, r2
1000363c:	0943      	lsrs	r3, r0, #5
1000363e:	428b      	cmp	r3, r1
10003640:	d301      	bcc.n	10003646 <__aeabi_idiv+0xc6>
10003642:	014b      	lsls	r3, r1, #5
10003644:	1ac0      	subs	r0, r0, r3
10003646:	4152      	adcs	r2, r2
10003648:	0903      	lsrs	r3, r0, #4
1000364a:	428b      	cmp	r3, r1
1000364c:	d301      	bcc.n	10003652 <__aeabi_idiv+0xd2>
1000364e:	010b      	lsls	r3, r1, #4
10003650:	1ac0      	subs	r0, r0, r3
10003652:	4152      	adcs	r2, r2
10003654:	08c3      	lsrs	r3, r0, #3
10003656:	428b      	cmp	r3, r1
10003658:	d301      	bcc.n	1000365e <__aeabi_idiv+0xde>
1000365a:	00cb      	lsls	r3, r1, #3
1000365c:	1ac0      	subs	r0, r0, r3
1000365e:	4152      	adcs	r2, r2
10003660:	0883      	lsrs	r3, r0, #2
10003662:	428b      	cmp	r3, r1
10003664:	d301      	bcc.n	1000366a <__aeabi_idiv+0xea>
10003666:	008b      	lsls	r3, r1, #2
10003668:	1ac0      	subs	r0, r0, r3
1000366a:	4152      	adcs	r2, r2
1000366c:	0843      	lsrs	r3, r0, #1
1000366e:	428b      	cmp	r3, r1
10003670:	d301      	bcc.n	10003676 <__aeabi_idiv+0xf6>
10003672:	004b      	lsls	r3, r1, #1
10003674:	1ac0      	subs	r0, r0, r3
10003676:	4152      	adcs	r2, r2
10003678:	1a41      	subs	r1, r0, r1
1000367a:	d200      	bcs.n	1000367e <__aeabi_idiv+0xfe>
1000367c:	4601      	mov	r1, r0
1000367e:	4152      	adcs	r2, r2
10003680:	4610      	mov	r0, r2
10003682:	4770      	bx	lr
10003684:	e05d      	b.n	10003742 <__aeabi_idiv+0x1c2>
10003686:	0fca      	lsrs	r2, r1, #31
10003688:	d000      	beq.n	1000368c <__aeabi_idiv+0x10c>
1000368a:	4249      	negs	r1, r1
1000368c:	1003      	asrs	r3, r0, #32
1000368e:	d300      	bcc.n	10003692 <__aeabi_idiv+0x112>
10003690:	4240      	negs	r0, r0
10003692:	4053      	eors	r3, r2
10003694:	2200      	movs	r2, #0
10003696:	469c      	mov	ip, r3
10003698:	0903      	lsrs	r3, r0, #4
1000369a:	428b      	cmp	r3, r1
1000369c:	d32d      	bcc.n	100036fa <__aeabi_idiv+0x17a>
1000369e:	0a03      	lsrs	r3, r0, #8
100036a0:	428b      	cmp	r3, r1
100036a2:	d312      	bcc.n	100036ca <__aeabi_idiv+0x14a>
100036a4:	22fc      	movs	r2, #252	; 0xfc
100036a6:	0189      	lsls	r1, r1, #6
100036a8:	ba12      	rev	r2, r2
100036aa:	0a03      	lsrs	r3, r0, #8
100036ac:	428b      	cmp	r3, r1
100036ae:	d30c      	bcc.n	100036ca <__aeabi_idiv+0x14a>
100036b0:	0189      	lsls	r1, r1, #6
100036b2:	1192      	asrs	r2, r2, #6
100036b4:	428b      	cmp	r3, r1
100036b6:	d308      	bcc.n	100036ca <__aeabi_idiv+0x14a>
100036b8:	0189      	lsls	r1, r1, #6
100036ba:	1192      	asrs	r2, r2, #6
100036bc:	428b      	cmp	r3, r1
100036be:	d304      	bcc.n	100036ca <__aeabi_idiv+0x14a>
100036c0:	0189      	lsls	r1, r1, #6
100036c2:	d03a      	beq.n	1000373a <__aeabi_idiv+0x1ba>
100036c4:	1192      	asrs	r2, r2, #6
100036c6:	e000      	b.n	100036ca <__aeabi_idiv+0x14a>
100036c8:	0989      	lsrs	r1, r1, #6
100036ca:	09c3      	lsrs	r3, r0, #7
100036cc:	428b      	cmp	r3, r1
100036ce:	d301      	bcc.n	100036d4 <__aeabi_idiv+0x154>
100036d0:	01cb      	lsls	r3, r1, #7
100036d2:	1ac0      	subs	r0, r0, r3
100036d4:	4152      	adcs	r2, r2
100036d6:	0983      	lsrs	r3, r0, #6
100036d8:	428b      	cmp	r3, r1
100036da:	d301      	bcc.n	100036e0 <__aeabi_idiv+0x160>
100036dc:	018b      	lsls	r3, r1, #6
100036de:	1ac0      	subs	r0, r0, r3
100036e0:	4152      	adcs	r2, r2
100036e2:	0943      	lsrs	r3, r0, #5
100036e4:	428b      	cmp	r3, r1
100036e6:	d301      	bcc.n	100036ec <__aeabi_idiv+0x16c>
100036e8:	014b      	lsls	r3, r1, #5
100036ea:	1ac0      	subs	r0, r0, r3
100036ec:	4152      	adcs	r2, r2
100036ee:	0903      	lsrs	r3, r0, #4
100036f0:	428b      	cmp	r3, r1
100036f2:	d301      	bcc.n	100036f8 <__aeabi_idiv+0x178>
100036f4:	010b      	lsls	r3, r1, #4
100036f6:	1ac0      	subs	r0, r0, r3
100036f8:	4152      	adcs	r2, r2
100036fa:	08c3      	lsrs	r3, r0, #3
100036fc:	428b      	cmp	r3, r1
100036fe:	d301      	bcc.n	10003704 <__aeabi_idiv+0x184>
10003700:	00cb      	lsls	r3, r1, #3
10003702:	1ac0      	subs	r0, r0, r3
10003704:	4152      	adcs	r2, r2
10003706:	0883      	lsrs	r3, r0, #2
10003708:	428b      	cmp	r3, r1
1000370a:	d301      	bcc.n	10003710 <__aeabi_idiv+0x190>
1000370c:	008b      	lsls	r3, r1, #2
1000370e:	1ac0      	subs	r0, r0, r3
10003710:	4152      	adcs	r2, r2
10003712:	d2d9      	bcs.n	100036c8 <__aeabi_idiv+0x148>
10003714:	0843      	lsrs	r3, r0, #1
10003716:	428b      	cmp	r3, r1
10003718:	d301      	bcc.n	1000371e <__aeabi_idiv+0x19e>
1000371a:	004b      	lsls	r3, r1, #1
1000371c:	1ac0      	subs	r0, r0, r3
1000371e:	4152      	adcs	r2, r2
10003720:	1a41      	subs	r1, r0, r1
10003722:	d200      	bcs.n	10003726 <__aeabi_idiv+0x1a6>
10003724:	4601      	mov	r1, r0
10003726:	4663      	mov	r3, ip
10003728:	4152      	adcs	r2, r2
1000372a:	105b      	asrs	r3, r3, #1
1000372c:	4610      	mov	r0, r2
1000372e:	d301      	bcc.n	10003734 <__aeabi_idiv+0x1b4>
10003730:	4240      	negs	r0, r0
10003732:	2b00      	cmp	r3, #0
10003734:	d500      	bpl.n	10003738 <__aeabi_idiv+0x1b8>
10003736:	4249      	negs	r1, r1
10003738:	4770      	bx	lr
1000373a:	4663      	mov	r3, ip
1000373c:	105b      	asrs	r3, r3, #1
1000373e:	d300      	bcc.n	10003742 <__aeabi_idiv+0x1c2>
10003740:	4240      	negs	r0, r0
10003742:	b501      	push	{r0, lr}
10003744:	2000      	movs	r0, #0
10003746:	f000 f80b 	bl	10003760 <__aeabi_idiv0>
1000374a:	bd02      	pop	{r1, pc}

1000374c <__aeabi_idivmod>:
1000374c:	2900      	cmp	r1, #0
1000374e:	d0f8      	beq.n	10003742 <__aeabi_idiv+0x1c2>
10003750:	b503      	push	{r0, r1, lr}
10003752:	f7ff ff15 	bl	10003580 <__aeabi_idiv>
10003756:	bc0e      	pop	{r1, r2, r3}
10003758:	4342      	muls	r2, r0
1000375a:	1a89      	subs	r1, r1, r2
1000375c:	4718      	bx	r3
1000375e:	46c0      	nop			; (mov r8, r8)

10003760 <__aeabi_idiv0>:
10003760:	4770      	bx	lr
10003762:	46c0      	nop			; (mov r8, r8)

10003764 <__clzsi2>:
10003764:	211c      	movs	r1, #28
10003766:	2301      	movs	r3, #1
10003768:	041b      	lsls	r3, r3, #16
1000376a:	4298      	cmp	r0, r3
1000376c:	d301      	bcc.n	10003772 <__clzsi2+0xe>
1000376e:	0c00      	lsrs	r0, r0, #16
10003770:	3910      	subs	r1, #16
10003772:	0a1b      	lsrs	r3, r3, #8
10003774:	4298      	cmp	r0, r3
10003776:	d301      	bcc.n	1000377c <__clzsi2+0x18>
10003778:	0a00      	lsrs	r0, r0, #8
1000377a:	3908      	subs	r1, #8
1000377c:	091b      	lsrs	r3, r3, #4
1000377e:	4298      	cmp	r0, r3
10003780:	d301      	bcc.n	10003786 <__clzsi2+0x22>
10003782:	0900      	lsrs	r0, r0, #4
10003784:	3904      	subs	r1, #4
10003786:	a202      	add	r2, pc, #8	; (adr r2, 10003790 <__clzsi2+0x2c>)
10003788:	5c10      	ldrb	r0, [r2, r0]
1000378a:	1840      	adds	r0, r0, r1
1000378c:	4770      	bx	lr
1000378e:	46c0      	nop			; (mov r8, r8)
10003790:	02020304 	.word	0x02020304
10003794:	01010101 	.word	0x01010101
	...

100037a0 <__errno>:
100037a0:	4b01      	ldr	r3, [pc, #4]	; (100037a8 <__errno+0x8>)
100037a2:	6818      	ldr	r0, [r3, #0]
100037a4:	4770      	bx	lr
100037a6:	46c0      	nop			; (mov r8, r8)
100037a8:	20000728 	.word	0x20000728

100037ac <__libc_init_array>:
100037ac:	4b0e      	ldr	r3, [pc, #56]	; (100037e8 <__libc_init_array+0x3c>)
100037ae:	b570      	push	{r4, r5, r6, lr}
100037b0:	2500      	movs	r5, #0
100037b2:	1c1e      	adds	r6, r3, #0
100037b4:	4c0d      	ldr	r4, [pc, #52]	; (100037ec <__libc_init_array+0x40>)
100037b6:	1ae4      	subs	r4, r4, r3
100037b8:	10a4      	asrs	r4, r4, #2
100037ba:	42a5      	cmp	r5, r4
100037bc:	d004      	beq.n	100037c8 <__libc_init_array+0x1c>
100037be:	00ab      	lsls	r3, r5, #2
100037c0:	58f3      	ldr	r3, [r6, r3]
100037c2:	4798      	blx	r3
100037c4:	3501      	adds	r5, #1
100037c6:	e7f8      	b.n	100037ba <__libc_init_array+0xe>
100037c8:	f7fe fa92 	bl	10001cf0 <_init>
100037cc:	4b08      	ldr	r3, [pc, #32]	; (100037f0 <__libc_init_array+0x44>)
100037ce:	2500      	movs	r5, #0
100037d0:	1c1e      	adds	r6, r3, #0
100037d2:	4c08      	ldr	r4, [pc, #32]	; (100037f4 <__libc_init_array+0x48>)
100037d4:	1ae4      	subs	r4, r4, r3
100037d6:	10a4      	asrs	r4, r4, #2
100037d8:	42a5      	cmp	r5, r4
100037da:	d004      	beq.n	100037e6 <__libc_init_array+0x3a>
100037dc:	00ab      	lsls	r3, r5, #2
100037de:	58f3      	ldr	r3, [r6, r3]
100037e0:	4798      	blx	r3
100037e2:	3501      	adds	r5, #1
100037e4:	e7f8      	b.n	100037d8 <__libc_init_array+0x2c>
100037e6:	bd70      	pop	{r4, r5, r6, pc}
100037e8:	20000764 	.word	0x20000764
100037ec:	20000764 	.word	0x20000764
100037f0:	20000764 	.word	0x20000764
100037f4:	20000764 	.word	0x20000764

100037f8 <__cvt>:
100037f8:	b5f0      	push	{r4, r5, r6, r7, lr}
100037fa:	b08b      	sub	sp, #44	; 0x2c
100037fc:	1c14      	adds	r4, r2, #0
100037fe:	1e1d      	subs	r5, r3, #0
10003800:	9912      	ldr	r1, [sp, #72]	; 0x48
10003802:	da06      	bge.n	10003812 <__cvt+0x1a>
10003804:	2480      	movs	r4, #128	; 0x80
10003806:	0624      	lsls	r4, r4, #24
10003808:	192b      	adds	r3, r5, r4
1000380a:	1c1d      	adds	r5, r3, #0
1000380c:	1c14      	adds	r4, r2, #0
1000380e:	232d      	movs	r3, #45	; 0x2d
10003810:	e000      	b.n	10003814 <__cvt+0x1c>
10003812:	2300      	movs	r3, #0
10003814:	700b      	strb	r3, [r1, #0]
10003816:	2320      	movs	r3, #32
10003818:	9e14      	ldr	r6, [sp, #80]	; 0x50
1000381a:	2203      	movs	r2, #3
1000381c:	439e      	bics	r6, r3
1000381e:	2e46      	cmp	r6, #70	; 0x46
10003820:	d007      	beq.n	10003832 <__cvt+0x3a>
10003822:	1c33      	adds	r3, r6, #0
10003824:	3b45      	subs	r3, #69	; 0x45
10003826:	4259      	negs	r1, r3
10003828:	414b      	adcs	r3, r1
1000382a:	9910      	ldr	r1, [sp, #64]	; 0x40
1000382c:	3a01      	subs	r2, #1
1000382e:	18cb      	adds	r3, r1, r3
10003830:	9310      	str	r3, [sp, #64]	; 0x40
10003832:	9b10      	ldr	r3, [sp, #64]	; 0x40
10003834:	9200      	str	r2, [sp, #0]
10003836:	9301      	str	r3, [sp, #4]
10003838:	9b13      	ldr	r3, [sp, #76]	; 0x4c
1000383a:	1c22      	adds	r2, r4, #0
1000383c:	9302      	str	r3, [sp, #8]
1000383e:	ab08      	add	r3, sp, #32
10003840:	9303      	str	r3, [sp, #12]
10003842:	ab09      	add	r3, sp, #36	; 0x24
10003844:	9304      	str	r3, [sp, #16]
10003846:	1c2b      	adds	r3, r5, #0
10003848:	f000 fd02 	bl	10004250 <_dtoa_r>
1000384c:	1c07      	adds	r7, r0, #0
1000384e:	2e47      	cmp	r6, #71	; 0x47
10003850:	d102      	bne.n	10003858 <__cvt+0x60>
10003852:	9b11      	ldr	r3, [sp, #68]	; 0x44
10003854:	07db      	lsls	r3, r3, #31
10003856:	d52c      	bpl.n	100038b2 <__cvt+0xba>
10003858:	9b10      	ldr	r3, [sp, #64]	; 0x40
1000385a:	18fb      	adds	r3, r7, r3
1000385c:	9307      	str	r3, [sp, #28]
1000385e:	2e46      	cmp	r6, #70	; 0x46
10003860:	d114      	bne.n	1000388c <__cvt+0x94>
10003862:	783b      	ldrb	r3, [r7, #0]
10003864:	2b30      	cmp	r3, #48	; 0x30
10003866:	d10c      	bne.n	10003882 <__cvt+0x8a>
10003868:	1c20      	adds	r0, r4, #0
1000386a:	1c29      	adds	r1, r5, #0
1000386c:	2200      	movs	r2, #0
1000386e:	2300      	movs	r3, #0
10003870:	f002 f878 	bl	10005964 <__aeabi_dcmpeq>
10003874:	2800      	cmp	r0, #0
10003876:	d104      	bne.n	10003882 <__cvt+0x8a>
10003878:	2301      	movs	r3, #1
1000387a:	9a10      	ldr	r2, [sp, #64]	; 0x40
1000387c:	1a9b      	subs	r3, r3, r2
1000387e:	9a13      	ldr	r2, [sp, #76]	; 0x4c
10003880:	6013      	str	r3, [r2, #0]
10003882:	9b13      	ldr	r3, [sp, #76]	; 0x4c
10003884:	9a07      	ldr	r2, [sp, #28]
10003886:	681b      	ldr	r3, [r3, #0]
10003888:	18d3      	adds	r3, r2, r3
1000388a:	9307      	str	r3, [sp, #28]
1000388c:	1c20      	adds	r0, r4, #0
1000388e:	1c29      	adds	r1, r5, #0
10003890:	2200      	movs	r2, #0
10003892:	2300      	movs	r3, #0
10003894:	f002 f866 	bl	10005964 <__aeabi_dcmpeq>
10003898:	2800      	cmp	r0, #0
1000389a:	d001      	beq.n	100038a0 <__cvt+0xa8>
1000389c:	9b07      	ldr	r3, [sp, #28]
1000389e:	9309      	str	r3, [sp, #36]	; 0x24
100038a0:	9b09      	ldr	r3, [sp, #36]	; 0x24
100038a2:	9a07      	ldr	r2, [sp, #28]
100038a4:	4293      	cmp	r3, r2
100038a6:	d204      	bcs.n	100038b2 <__cvt+0xba>
100038a8:	1c5a      	adds	r2, r3, #1
100038aa:	9209      	str	r2, [sp, #36]	; 0x24
100038ac:	2230      	movs	r2, #48	; 0x30
100038ae:	701a      	strb	r2, [r3, #0]
100038b0:	e7f6      	b.n	100038a0 <__cvt+0xa8>
100038b2:	1c38      	adds	r0, r7, #0
100038b4:	9b09      	ldr	r3, [sp, #36]	; 0x24
100038b6:	9a15      	ldr	r2, [sp, #84]	; 0x54
100038b8:	1bdb      	subs	r3, r3, r7
100038ba:	6013      	str	r3, [r2, #0]
100038bc:	b00b      	add	sp, #44	; 0x2c
100038be:	bdf0      	pop	{r4, r5, r6, r7, pc}

100038c0 <__exponent>:
100038c0:	b5f7      	push	{r0, r1, r2, r4, r5, r6, r7, lr}
100038c2:	232b      	movs	r3, #43	; 0x2b
100038c4:	1c07      	adds	r7, r0, #0
100038c6:	1c0c      	adds	r4, r1, #0
100038c8:	7002      	strb	r2, [r0, #0]
100038ca:	1c86      	adds	r6, r0, #2
100038cc:	2900      	cmp	r1, #0
100038ce:	da01      	bge.n	100038d4 <__exponent+0x14>
100038d0:	232d      	movs	r3, #45	; 0x2d
100038d2:	424c      	negs	r4, r1
100038d4:	707b      	strb	r3, [r7, #1]
100038d6:	2c09      	cmp	r4, #9
100038d8:	dd1c      	ble.n	10003914 <__exponent+0x54>
100038da:	466b      	mov	r3, sp
100038dc:	1ddd      	adds	r5, r3, #7
100038de:	1c20      	adds	r0, r4, #0
100038e0:	210a      	movs	r1, #10
100038e2:	f7ff ff33 	bl	1000374c <__aeabi_idivmod>
100038e6:	3d01      	subs	r5, #1
100038e8:	3130      	adds	r1, #48	; 0x30
100038ea:	7029      	strb	r1, [r5, #0]
100038ec:	1c20      	adds	r0, r4, #0
100038ee:	210a      	movs	r1, #10
100038f0:	f7ff fe46 	bl	10003580 <__aeabi_idiv>
100038f4:	1e04      	subs	r4, r0, #0
100038f6:	2c09      	cmp	r4, #9
100038f8:	dcf1      	bgt.n	100038de <__exponent+0x1e>
100038fa:	3d01      	subs	r5, #1
100038fc:	3430      	adds	r4, #48	; 0x30
100038fe:	702c      	strb	r4, [r5, #0]
10003900:	466b      	mov	r3, sp
10003902:	3307      	adds	r3, #7
10003904:	1c30      	adds	r0, r6, #0
10003906:	42ab      	cmp	r3, r5
10003908:	d909      	bls.n	1000391e <__exponent+0x5e>
1000390a:	782b      	ldrb	r3, [r5, #0]
1000390c:	3501      	adds	r5, #1
1000390e:	7033      	strb	r3, [r6, #0]
10003910:	3601      	adds	r6, #1
10003912:	e7f5      	b.n	10003900 <__exponent+0x40>
10003914:	2330      	movs	r3, #48	; 0x30
10003916:	18e4      	adds	r4, r4, r3
10003918:	7033      	strb	r3, [r6, #0]
1000391a:	1cb0      	adds	r0, r6, #2
1000391c:	7074      	strb	r4, [r6, #1]
1000391e:	1bc0      	subs	r0, r0, r7
10003920:	bdfe      	pop	{r1, r2, r3, r4, r5, r6, r7, pc}
	...

10003924 <_printf_float>:
10003924:	b5f0      	push	{r4, r5, r6, r7, lr}
10003926:	b093      	sub	sp, #76	; 0x4c
10003928:	1c0c      	adds	r4, r1, #0
1000392a:	9208      	str	r2, [sp, #32]
1000392c:	9e18      	ldr	r6, [sp, #96]	; 0x60
1000392e:	9309      	str	r3, [sp, #36]	; 0x24
10003930:	1c05      	adds	r5, r0, #0
10003932:	f001 fa8d 	bl	10004e50 <_localeconv_r>
10003936:	6803      	ldr	r3, [r0, #0]
10003938:	1c18      	adds	r0, r3, #0
1000393a:	930b      	str	r3, [sp, #44]	; 0x2c
1000393c:	f000 fbfa 	bl	10004134 <strlen>
10003940:	2300      	movs	r3, #0
10003942:	2207      	movs	r2, #7
10003944:	9310      	str	r3, [sp, #64]	; 0x40
10003946:	6833      	ldr	r3, [r6, #0]
10003948:	900c      	str	r0, [sp, #48]	; 0x30
1000394a:	3307      	adds	r3, #7
1000394c:	4393      	bics	r3, r2
1000394e:	1c1a      	adds	r2, r3, #0
10003950:	6818      	ldr	r0, [r3, #0]
10003952:	6859      	ldr	r1, [r3, #4]
10003954:	3208      	adds	r2, #8
10003956:	7e27      	ldrb	r7, [r4, #24]
10003958:	6032      	str	r2, [r6, #0]
1000395a:	64a0      	str	r0, [r4, #72]	; 0x48
1000395c:	64e1      	str	r1, [r4, #76]	; 0x4c
1000395e:	f000 fb9f 	bl	100040a0 <__fpclassifyd>
10003962:	2801      	cmp	r0, #1
10003964:	d118      	bne.n	10003998 <_printf_float+0x74>
10003966:	6ca0      	ldr	r0, [r4, #72]	; 0x48
10003968:	6ce1      	ldr	r1, [r4, #76]	; 0x4c
1000396a:	2200      	movs	r2, #0
1000396c:	2300      	movs	r3, #0
1000396e:	f001 ffff 	bl	10005970 <__aeabi_dcmplt>
10003972:	2800      	cmp	r0, #0
10003974:	d003      	beq.n	1000397e <_printf_float+0x5a>
10003976:	1c23      	adds	r3, r4, #0
10003978:	222d      	movs	r2, #45	; 0x2d
1000397a:	3343      	adds	r3, #67	; 0x43
1000397c:	701a      	strb	r2, [r3, #0]
1000397e:	4bb7      	ldr	r3, [pc, #732]	; (10003c5c <_printf_float+0x338>)
10003980:	930a      	str	r3, [sp, #40]	; 0x28
10003982:	2f47      	cmp	r7, #71	; 0x47
10003984:	d901      	bls.n	1000398a <_printf_float+0x66>
10003986:	4bb6      	ldr	r3, [pc, #728]	; (10003c60 <_printf_float+0x33c>)
10003988:	930a      	str	r3, [sp, #40]	; 0x28
1000398a:	2303      	movs	r3, #3
1000398c:	6822      	ldr	r2, [r4, #0]
1000398e:	6123      	str	r3, [r4, #16]
10003990:	3301      	adds	r3, #1
10003992:	439a      	bics	r2, r3
10003994:	6022      	str	r2, [r4, #0]
10003996:	e012      	b.n	100039be <_printf_float+0x9a>
10003998:	6ca0      	ldr	r0, [r4, #72]	; 0x48
1000399a:	6ce1      	ldr	r1, [r4, #76]	; 0x4c
1000399c:	f000 fb80 	bl	100040a0 <__fpclassifyd>
100039a0:	6826      	ldr	r6, [r4, #0]
100039a2:	2800      	cmp	r0, #0
100039a4:	d10d      	bne.n	100039c2 <_printf_float+0x9e>
100039a6:	4baf      	ldr	r3, [pc, #700]	; (10003c64 <_printf_float+0x340>)
100039a8:	930a      	str	r3, [sp, #40]	; 0x28
100039aa:	2f47      	cmp	r7, #71	; 0x47
100039ac:	d901      	bls.n	100039b2 <_printf_float+0x8e>
100039ae:	4bae      	ldr	r3, [pc, #696]	; (10003c68 <_printf_float+0x344>)
100039b0:	930a      	str	r3, [sp, #40]	; 0x28
100039b2:	2303      	movs	r3, #3
100039b4:	1c31      	adds	r1, r6, #0
100039b6:	6123      	str	r3, [r4, #16]
100039b8:	3301      	adds	r3, #1
100039ba:	4399      	bics	r1, r3
100039bc:	6021      	str	r1, [r4, #0]
100039be:	2600      	movs	r6, #0
100039c0:	e080      	b.n	10003ac4 <_printf_float+0x1a0>
100039c2:	2180      	movs	r1, #128	; 0x80
100039c4:	6860      	ldr	r0, [r4, #4]
100039c6:	00c9      	lsls	r1, r1, #3
100039c8:	1c43      	adds	r3, r0, #1
100039ca:	d101      	bne.n	100039d0 <_printf_float+0xac>
100039cc:	2306      	movs	r3, #6
100039ce:	e009      	b.n	100039e4 <_printf_float+0xc0>
100039d0:	6ca2      	ldr	r2, [r4, #72]	; 0x48
100039d2:	6ce3      	ldr	r3, [r4, #76]	; 0x4c
100039d4:	2f67      	cmp	r7, #103	; 0x67
100039d6:	d001      	beq.n	100039dc <_printf_float+0xb8>
100039d8:	2f47      	cmp	r7, #71	; 0x47
100039da:	d104      	bne.n	100039e6 <_printf_float+0xc2>
100039dc:	2800      	cmp	r0, #0
100039de:	d000      	beq.n	100039e2 <_printf_float+0xbe>
100039e0:	e1c1      	b.n	10003d66 <_printf_float+0x442>
100039e2:	2301      	movs	r3, #1
100039e4:	6063      	str	r3, [r4, #4]
100039e6:	6863      	ldr	r3, [r4, #4]
100039e8:	4331      	orrs	r1, r6
100039ea:	9300      	str	r3, [sp, #0]
100039ec:	2323      	movs	r3, #35	; 0x23
100039ee:	6021      	str	r1, [r4, #0]
100039f0:	9101      	str	r1, [sp, #4]
100039f2:	2100      	movs	r1, #0
100039f4:	aa06      	add	r2, sp, #24
100039f6:	189b      	adds	r3, r3, r2
100039f8:	9302      	str	r3, [sp, #8]
100039fa:	ab0f      	add	r3, sp, #60	; 0x3c
100039fc:	9303      	str	r3, [sp, #12]
100039fe:	ab10      	add	r3, sp, #64	; 0x40
10003a00:	9305      	str	r3, [sp, #20]
10003a02:	9704      	str	r7, [sp, #16]
10003a04:	6ca2      	ldr	r2, [r4, #72]	; 0x48
10003a06:	6ce3      	ldr	r3, [r4, #76]	; 0x4c
10003a08:	9106      	str	r1, [sp, #24]
10003a0a:	1c28      	adds	r0, r5, #0
10003a0c:	f7ff fef4 	bl	100037f8 <__cvt>
10003a10:	2320      	movs	r3, #32
10003a12:	1c3a      	adds	r2, r7, #0
10003a14:	900a      	str	r0, [sp, #40]	; 0x28
10003a16:	439a      	bics	r2, r3
10003a18:	2a47      	cmp	r2, #71	; 0x47
10003a1a:	d107      	bne.n	10003a2c <_printf_float+0x108>
10003a1c:	9b0f      	ldr	r3, [sp, #60]	; 0x3c
10003a1e:	1cda      	adds	r2, r3, #3
10003a20:	db02      	blt.n	10003a28 <_printf_float+0x104>
10003a22:	6862      	ldr	r2, [r4, #4]
10003a24:	4293      	cmp	r3, r2
10003a26:	dd2d      	ble.n	10003a84 <_printf_float+0x160>
10003a28:	3f02      	subs	r7, #2
10003a2a:	b2ff      	uxtb	r7, r7
10003a2c:	990f      	ldr	r1, [sp, #60]	; 0x3c
10003a2e:	2f65      	cmp	r7, #101	; 0x65
10003a30:	d812      	bhi.n	10003a58 <_printf_float+0x134>
10003a32:	1c20      	adds	r0, r4, #0
10003a34:	3901      	subs	r1, #1
10003a36:	1c3a      	adds	r2, r7, #0
10003a38:	3050      	adds	r0, #80	; 0x50
10003a3a:	910f      	str	r1, [sp, #60]	; 0x3c
10003a3c:	f7ff ff40 	bl	100038c0 <__exponent>
10003a40:	9a10      	ldr	r2, [sp, #64]	; 0x40
10003a42:	1c06      	adds	r6, r0, #0
10003a44:	1883      	adds	r3, r0, r2
10003a46:	6123      	str	r3, [r4, #16]
10003a48:	2a01      	cmp	r2, #1
10003a4a:	dc02      	bgt.n	10003a52 <_printf_float+0x12e>
10003a4c:	6822      	ldr	r2, [r4, #0]
10003a4e:	07d2      	lsls	r2, r2, #31
10003a50:	d52e      	bpl.n	10003ab0 <_printf_float+0x18c>
10003a52:	3301      	adds	r3, #1
10003a54:	6123      	str	r3, [r4, #16]
10003a56:	e02b      	b.n	10003ab0 <_printf_float+0x18c>
10003a58:	2f66      	cmp	r7, #102	; 0x66
10003a5a:	d114      	bne.n	10003a86 <_printf_float+0x162>
10003a5c:	6863      	ldr	r3, [r4, #4]
10003a5e:	2900      	cmp	r1, #0
10003a60:	dd08      	ble.n	10003a74 <_printf_float+0x150>
10003a62:	6121      	str	r1, [r4, #16]
10003a64:	2b00      	cmp	r3, #0
10003a66:	d102      	bne.n	10003a6e <_printf_float+0x14a>
10003a68:	6822      	ldr	r2, [r4, #0]
10003a6a:	07d2      	lsls	r2, r2, #31
10003a6c:	d51d      	bpl.n	10003aaa <_printf_float+0x186>
10003a6e:	3301      	adds	r3, #1
10003a70:	18cb      	adds	r3, r1, r3
10003a72:	e011      	b.n	10003a98 <_printf_float+0x174>
10003a74:	2b00      	cmp	r3, #0
10003a76:	d103      	bne.n	10003a80 <_printf_float+0x15c>
10003a78:	2201      	movs	r2, #1
10003a7a:	6821      	ldr	r1, [r4, #0]
10003a7c:	4211      	tst	r1, r2
10003a7e:	d013      	beq.n	10003aa8 <_printf_float+0x184>
10003a80:	1c9a      	adds	r2, r3, #2
10003a82:	e011      	b.n	10003aa8 <_printf_float+0x184>
10003a84:	2767      	movs	r7, #103	; 0x67
10003a86:	9b0f      	ldr	r3, [sp, #60]	; 0x3c
10003a88:	9810      	ldr	r0, [sp, #64]	; 0x40
10003a8a:	4283      	cmp	r3, r0
10003a8c:	db06      	blt.n	10003a9c <_printf_float+0x178>
10003a8e:	6822      	ldr	r2, [r4, #0]
10003a90:	6123      	str	r3, [r4, #16]
10003a92:	07d2      	lsls	r2, r2, #31
10003a94:	d509      	bpl.n	10003aaa <_printf_float+0x186>
10003a96:	3301      	adds	r3, #1
10003a98:	6123      	str	r3, [r4, #16]
10003a9a:	e006      	b.n	10003aaa <_printf_float+0x186>
10003a9c:	2201      	movs	r2, #1
10003a9e:	2b00      	cmp	r3, #0
10003aa0:	dc01      	bgt.n	10003aa6 <_printf_float+0x182>
10003aa2:	2102      	movs	r1, #2
10003aa4:	1aca      	subs	r2, r1, r3
10003aa6:	1882      	adds	r2, r0, r2
10003aa8:	6122      	str	r2, [r4, #16]
10003aaa:	2600      	movs	r6, #0
10003aac:	9b0f      	ldr	r3, [sp, #60]	; 0x3c
10003aae:	65a3      	str	r3, [r4, #88]	; 0x58
10003ab0:	2323      	movs	r3, #35	; 0x23
10003ab2:	aa06      	add	r2, sp, #24
10003ab4:	189b      	adds	r3, r3, r2
10003ab6:	781b      	ldrb	r3, [r3, #0]
10003ab8:	2b00      	cmp	r3, #0
10003aba:	d003      	beq.n	10003ac4 <_printf_float+0x1a0>
10003abc:	1c23      	adds	r3, r4, #0
10003abe:	222d      	movs	r2, #45	; 0x2d
10003ac0:	3343      	adds	r3, #67	; 0x43
10003ac2:	701a      	strb	r2, [r3, #0]
10003ac4:	9b09      	ldr	r3, [sp, #36]	; 0x24
10003ac6:	1c28      	adds	r0, r5, #0
10003ac8:	9300      	str	r3, [sp, #0]
10003aca:	1c21      	adds	r1, r4, #0
10003acc:	9b08      	ldr	r3, [sp, #32]
10003ace:	aa11      	add	r2, sp, #68	; 0x44
10003ad0:	f000 f960 	bl	10003d94 <_printf_common>
10003ad4:	1c43      	adds	r3, r0, #1
10003ad6:	d102      	bne.n	10003ade <_printf_float+0x1ba>
10003ad8:	2001      	movs	r0, #1
10003ada:	4240      	negs	r0, r0
10003adc:	e157      	b.n	10003d8e <_printf_float+0x46a>
10003ade:	6822      	ldr	r2, [r4, #0]
10003ae0:	0553      	lsls	r3, r2, #21
10003ae2:	d404      	bmi.n	10003aee <_printf_float+0x1ca>
10003ae4:	1c28      	adds	r0, r5, #0
10003ae6:	9908      	ldr	r1, [sp, #32]
10003ae8:	9a0a      	ldr	r2, [sp, #40]	; 0x28
10003aea:	6923      	ldr	r3, [r4, #16]
10003aec:	e117      	b.n	10003d1e <_printf_float+0x3fa>
10003aee:	2f65      	cmp	r7, #101	; 0x65
10003af0:	d800      	bhi.n	10003af4 <_printf_float+0x1d0>
10003af2:	e0d5      	b.n	10003ca0 <_printf_float+0x37c>
10003af4:	6ca0      	ldr	r0, [r4, #72]	; 0x48
10003af6:	6ce1      	ldr	r1, [r4, #76]	; 0x4c
10003af8:	2200      	movs	r2, #0
10003afa:	2300      	movs	r3, #0
10003afc:	f001 ff32 	bl	10005964 <__aeabi_dcmpeq>
10003b00:	2800      	cmp	r0, #0
10003b02:	d02b      	beq.n	10003b5c <_printf_float+0x238>
10003b04:	2301      	movs	r3, #1
10003b06:	1c28      	adds	r0, r5, #0
10003b08:	9908      	ldr	r1, [sp, #32]
10003b0a:	4a58      	ldr	r2, [pc, #352]	; (10003c6c <_printf_float+0x348>)
10003b0c:	9e09      	ldr	r6, [sp, #36]	; 0x24
10003b0e:	47b0      	blx	r6
10003b10:	1c43      	adds	r3, r0, #1
10003b12:	d0e1      	beq.n	10003ad8 <_printf_float+0x1b4>
10003b14:	9b0f      	ldr	r3, [sp, #60]	; 0x3c
10003b16:	9a10      	ldr	r2, [sp, #64]	; 0x40
10003b18:	4293      	cmp	r3, r2
10003b1a:	db07      	blt.n	10003b2c <_printf_float+0x208>
10003b1c:	6823      	ldr	r3, [r4, #0]
10003b1e:	07db      	lsls	r3, r3, #31
10003b20:	d404      	bmi.n	10003b2c <_printf_float+0x208>
10003b22:	6823      	ldr	r3, [r4, #0]
10003b24:	079b      	lsls	r3, r3, #30
10003b26:	d500      	bpl.n	10003b2a <_printf_float+0x206>
10003b28:	e11b      	b.n	10003d62 <_printf_float+0x43e>
10003b2a:	e114      	b.n	10003d56 <_printf_float+0x432>
10003b2c:	9e09      	ldr	r6, [sp, #36]	; 0x24
10003b2e:	1c28      	adds	r0, r5, #0
10003b30:	9908      	ldr	r1, [sp, #32]
10003b32:	9a0b      	ldr	r2, [sp, #44]	; 0x2c
10003b34:	9b0c      	ldr	r3, [sp, #48]	; 0x30
10003b36:	47b0      	blx	r6
10003b38:	2600      	movs	r6, #0
10003b3a:	1c43      	adds	r3, r0, #1
10003b3c:	d0cc      	beq.n	10003ad8 <_printf_float+0x1b4>
10003b3e:	9b10      	ldr	r3, [sp, #64]	; 0x40
10003b40:	3b01      	subs	r3, #1
10003b42:	429e      	cmp	r6, r3
10003b44:	daed      	bge.n	10003b22 <_printf_float+0x1fe>
10003b46:	1c22      	adds	r2, r4, #0
10003b48:	2301      	movs	r3, #1
10003b4a:	1c28      	adds	r0, r5, #0
10003b4c:	9908      	ldr	r1, [sp, #32]
10003b4e:	321a      	adds	r2, #26
10003b50:	9f09      	ldr	r7, [sp, #36]	; 0x24
10003b52:	47b8      	blx	r7
10003b54:	1c43      	adds	r3, r0, #1
10003b56:	d0bf      	beq.n	10003ad8 <_printf_float+0x1b4>
10003b58:	3601      	adds	r6, #1
10003b5a:	e7f0      	b.n	10003b3e <_printf_float+0x21a>
10003b5c:	9b0f      	ldr	r3, [sp, #60]	; 0x3c
10003b5e:	2b00      	cmp	r3, #0
10003b60:	dc2b      	bgt.n	10003bba <_printf_float+0x296>
10003b62:	2301      	movs	r3, #1
10003b64:	1c28      	adds	r0, r5, #0
10003b66:	9908      	ldr	r1, [sp, #32]
10003b68:	4a40      	ldr	r2, [pc, #256]	; (10003c6c <_printf_float+0x348>)
10003b6a:	9e09      	ldr	r6, [sp, #36]	; 0x24
10003b6c:	47b0      	blx	r6
10003b6e:	1c43      	adds	r3, r0, #1
10003b70:	d0b2      	beq.n	10003ad8 <_printf_float+0x1b4>
10003b72:	9b0f      	ldr	r3, [sp, #60]	; 0x3c
10003b74:	2b00      	cmp	r3, #0
10003b76:	d105      	bne.n	10003b84 <_printf_float+0x260>
10003b78:	9b10      	ldr	r3, [sp, #64]	; 0x40
10003b7a:	2b00      	cmp	r3, #0
10003b7c:	d102      	bne.n	10003b84 <_printf_float+0x260>
10003b7e:	6823      	ldr	r3, [r4, #0]
10003b80:	07db      	lsls	r3, r3, #31
10003b82:	d5ce      	bpl.n	10003b22 <_printf_float+0x1fe>
10003b84:	9e09      	ldr	r6, [sp, #36]	; 0x24
10003b86:	1c28      	adds	r0, r5, #0
10003b88:	9908      	ldr	r1, [sp, #32]
10003b8a:	9a0b      	ldr	r2, [sp, #44]	; 0x2c
10003b8c:	9b0c      	ldr	r3, [sp, #48]	; 0x30
10003b8e:	47b0      	blx	r6
10003b90:	2600      	movs	r6, #0
10003b92:	1c43      	adds	r3, r0, #1
10003b94:	d0a0      	beq.n	10003ad8 <_printf_float+0x1b4>
10003b96:	9b0f      	ldr	r3, [sp, #60]	; 0x3c
10003b98:	1c28      	adds	r0, r5, #0
10003b9a:	425b      	negs	r3, r3
10003b9c:	9908      	ldr	r1, [sp, #32]
10003b9e:	429e      	cmp	r6, r3
10003ba0:	da08      	bge.n	10003bb4 <_printf_float+0x290>
10003ba2:	1c22      	adds	r2, r4, #0
10003ba4:	2301      	movs	r3, #1
10003ba6:	321a      	adds	r2, #26
10003ba8:	9f09      	ldr	r7, [sp, #36]	; 0x24
10003baa:	47b8      	blx	r7
10003bac:	1c43      	adds	r3, r0, #1
10003bae:	d093      	beq.n	10003ad8 <_printf_float+0x1b4>
10003bb0:	3601      	adds	r6, #1
10003bb2:	e7f0      	b.n	10003b96 <_printf_float+0x272>
10003bb4:	9a0a      	ldr	r2, [sp, #40]	; 0x28
10003bb6:	9b10      	ldr	r3, [sp, #64]	; 0x40
10003bb8:	e0b1      	b.n	10003d1e <_printf_float+0x3fa>
10003bba:	9b10      	ldr	r3, [sp, #64]	; 0x40
10003bbc:	6da6      	ldr	r6, [r4, #88]	; 0x58
10003bbe:	429e      	cmp	r6, r3
10003bc0:	dd00      	ble.n	10003bc4 <_printf_float+0x2a0>
10003bc2:	1c1e      	adds	r6, r3, #0
10003bc4:	2e00      	cmp	r6, #0
10003bc6:	dc01      	bgt.n	10003bcc <_printf_float+0x2a8>
10003bc8:	2300      	movs	r3, #0
10003bca:	e014      	b.n	10003bf6 <_printf_float+0x2d2>
10003bcc:	1c33      	adds	r3, r6, #0
10003bce:	1c28      	adds	r0, r5, #0
10003bd0:	9908      	ldr	r1, [sp, #32]
10003bd2:	9a0a      	ldr	r2, [sp, #40]	; 0x28
10003bd4:	9f09      	ldr	r7, [sp, #36]	; 0x24
10003bd6:	47b8      	blx	r7
10003bd8:	1c43      	adds	r3, r0, #1
10003bda:	d1f5      	bne.n	10003bc8 <_printf_float+0x2a4>
10003bdc:	e77c      	b.n	10003ad8 <_printf_float+0x1b4>
10003bde:	1c22      	adds	r2, r4, #0
10003be0:	2301      	movs	r3, #1
10003be2:	1c28      	adds	r0, r5, #0
10003be4:	9908      	ldr	r1, [sp, #32]
10003be6:	321a      	adds	r2, #26
10003be8:	9f09      	ldr	r7, [sp, #36]	; 0x24
10003bea:	47b8      	blx	r7
10003bec:	1c43      	adds	r3, r0, #1
10003bee:	d100      	bne.n	10003bf2 <_printf_float+0x2ce>
10003bf0:	e772      	b.n	10003ad8 <_printf_float+0x1b4>
10003bf2:	9b0d      	ldr	r3, [sp, #52]	; 0x34
10003bf4:	3301      	adds	r3, #1
10003bf6:	930d      	str	r3, [sp, #52]	; 0x34
10003bf8:	43f3      	mvns	r3, r6
10003bfa:	6da2      	ldr	r2, [r4, #88]	; 0x58
10003bfc:	17db      	asrs	r3, r3, #31
10003bfe:	990d      	ldr	r1, [sp, #52]	; 0x34
10003c00:	4033      	ands	r3, r6
10003c02:	1ad3      	subs	r3, r2, r3
10003c04:	4299      	cmp	r1, r3
10003c06:	dbea      	blt.n	10003bde <_printf_float+0x2ba>
10003c08:	9b0a      	ldr	r3, [sp, #40]	; 0x28
10003c0a:	189e      	adds	r6, r3, r2
10003c0c:	9b0f      	ldr	r3, [sp, #60]	; 0x3c
10003c0e:	9a10      	ldr	r2, [sp, #64]	; 0x40
10003c10:	4293      	cmp	r3, r2
10003c12:	db0e      	blt.n	10003c32 <_printf_float+0x30e>
10003c14:	6823      	ldr	r3, [r4, #0]
10003c16:	07db      	lsls	r3, r3, #31
10003c18:	d40b      	bmi.n	10003c32 <_printf_float+0x30e>
10003c1a:	9b10      	ldr	r3, [sp, #64]	; 0x40
10003c1c:	9a0a      	ldr	r2, [sp, #40]	; 0x28
10003c1e:	18d7      	adds	r7, r2, r3
10003c20:	9a0f      	ldr	r2, [sp, #60]	; 0x3c
10003c22:	1bbf      	subs	r7, r7, r6
10003c24:	1a9b      	subs	r3, r3, r2
10003c26:	429f      	cmp	r7, r3
10003c28:	dd00      	ble.n	10003c2c <_printf_float+0x308>
10003c2a:	1c1f      	adds	r7, r3, #0
10003c2c:	2f00      	cmp	r7, #0
10003c2e:	dc09      	bgt.n	10003c44 <_printf_float+0x320>
10003c30:	e011      	b.n	10003c56 <_printf_float+0x332>
10003c32:	9b0c      	ldr	r3, [sp, #48]	; 0x30
10003c34:	1c28      	adds	r0, r5, #0
10003c36:	9908      	ldr	r1, [sp, #32]
10003c38:	9a0b      	ldr	r2, [sp, #44]	; 0x2c
10003c3a:	9f09      	ldr	r7, [sp, #36]	; 0x24
10003c3c:	47b8      	blx	r7
10003c3e:	1c43      	adds	r3, r0, #1
10003c40:	d1eb      	bne.n	10003c1a <_printf_float+0x2f6>
10003c42:	e749      	b.n	10003ad8 <_printf_float+0x1b4>
10003c44:	1c32      	adds	r2, r6, #0
10003c46:	1c3b      	adds	r3, r7, #0
10003c48:	1c28      	adds	r0, r5, #0
10003c4a:	9908      	ldr	r1, [sp, #32]
10003c4c:	9e09      	ldr	r6, [sp, #36]	; 0x24
10003c4e:	47b0      	blx	r6
10003c50:	1c43      	adds	r3, r0, #1
10003c52:	d100      	bne.n	10003c56 <_printf_float+0x332>
10003c54:	e740      	b.n	10003ad8 <_printf_float+0x1b4>
10003c56:	2300      	movs	r3, #0
10003c58:	e016      	b.n	10003c88 <_printf_float+0x364>
10003c5a:	46c0      	nop			; (mov r8, r8)
10003c5c:	100078c6 	.word	0x100078c6
10003c60:	100078ca 	.word	0x100078ca
10003c64:	100078ce 	.word	0x100078ce
10003c68:	100078d2 	.word	0x100078d2
10003c6c:	100078d6 	.word	0x100078d6
10003c70:	1c22      	adds	r2, r4, #0
10003c72:	2301      	movs	r3, #1
10003c74:	1c28      	adds	r0, r5, #0
10003c76:	9908      	ldr	r1, [sp, #32]
10003c78:	321a      	adds	r2, #26
10003c7a:	9e09      	ldr	r6, [sp, #36]	; 0x24
10003c7c:	47b0      	blx	r6
10003c7e:	1c43      	adds	r3, r0, #1
10003c80:	d100      	bne.n	10003c84 <_printf_float+0x360>
10003c82:	e729      	b.n	10003ad8 <_printf_float+0x1b4>
10003c84:	9b0a      	ldr	r3, [sp, #40]	; 0x28
10003c86:	3301      	adds	r3, #1
10003c88:	930a      	str	r3, [sp, #40]	; 0x28
10003c8a:	9a0f      	ldr	r2, [sp, #60]	; 0x3c
10003c8c:	9b10      	ldr	r3, [sp, #64]	; 0x40
10003c8e:	1a9a      	subs	r2, r3, r2
10003c90:	43fb      	mvns	r3, r7
10003c92:	17db      	asrs	r3, r3, #31
10003c94:	403b      	ands	r3, r7
10003c96:	1ad3      	subs	r3, r2, r3
10003c98:	9a0a      	ldr	r2, [sp, #40]	; 0x28
10003c9a:	429a      	cmp	r2, r3
10003c9c:	dbe8      	blt.n	10003c70 <_printf_float+0x34c>
10003c9e:	e740      	b.n	10003b22 <_printf_float+0x1fe>
10003ca0:	9b10      	ldr	r3, [sp, #64]	; 0x40
10003ca2:	1c28      	adds	r0, r5, #0
10003ca4:	9908      	ldr	r1, [sp, #32]
10003ca6:	2b01      	cmp	r3, #1
10003ca8:	dc02      	bgt.n	10003cb0 <_printf_float+0x38c>
10003caa:	2301      	movs	r3, #1
10003cac:	421a      	tst	r2, r3
10003cae:	d03c      	beq.n	10003d2a <_printf_float+0x406>
10003cb0:	2301      	movs	r3, #1
10003cb2:	9a0a      	ldr	r2, [sp, #40]	; 0x28
10003cb4:	9f09      	ldr	r7, [sp, #36]	; 0x24
10003cb6:	47b8      	blx	r7
10003cb8:	1c43      	adds	r3, r0, #1
10003cba:	d100      	bne.n	10003cbe <_printf_float+0x39a>
10003cbc:	e70c      	b.n	10003ad8 <_printf_float+0x1b4>
10003cbe:	9b0c      	ldr	r3, [sp, #48]	; 0x30
10003cc0:	1c28      	adds	r0, r5, #0
10003cc2:	9908      	ldr	r1, [sp, #32]
10003cc4:	9a0b      	ldr	r2, [sp, #44]	; 0x2c
10003cc6:	9f09      	ldr	r7, [sp, #36]	; 0x24
10003cc8:	47b8      	blx	r7
10003cca:	1c43      	adds	r3, r0, #1
10003ccc:	d100      	bne.n	10003cd0 <_printf_float+0x3ac>
10003cce:	e703      	b.n	10003ad8 <_printf_float+0x1b4>
10003cd0:	6ca0      	ldr	r0, [r4, #72]	; 0x48
10003cd2:	6ce1      	ldr	r1, [r4, #76]	; 0x4c
10003cd4:	2300      	movs	r3, #0
10003cd6:	2200      	movs	r2, #0
10003cd8:	f001 fe44 	bl	10005964 <__aeabi_dcmpeq>
10003cdc:	2300      	movs	r3, #0
10003cde:	2800      	cmp	r0, #0
10003ce0:	d112      	bne.n	10003d08 <_printf_float+0x3e4>
10003ce2:	9a0a      	ldr	r2, [sp, #40]	; 0x28
10003ce4:	9b10      	ldr	r3, [sp, #64]	; 0x40
10003ce6:	3201      	adds	r2, #1
10003ce8:	3b01      	subs	r3, #1
10003cea:	1c28      	adds	r0, r5, #0
10003cec:	9908      	ldr	r1, [sp, #32]
10003cee:	e01d      	b.n	10003d2c <_printf_float+0x408>
10003cf0:	1c22      	adds	r2, r4, #0
10003cf2:	2301      	movs	r3, #1
10003cf4:	1c28      	adds	r0, r5, #0
10003cf6:	9908      	ldr	r1, [sp, #32]
10003cf8:	321a      	adds	r2, #26
10003cfa:	9f09      	ldr	r7, [sp, #36]	; 0x24
10003cfc:	47b8      	blx	r7
10003cfe:	1c43      	adds	r3, r0, #1
10003d00:	d100      	bne.n	10003d04 <_printf_float+0x3e0>
10003d02:	e6e9      	b.n	10003ad8 <_printf_float+0x1b4>
10003d04:	9b0a      	ldr	r3, [sp, #40]	; 0x28
10003d06:	3301      	adds	r3, #1
10003d08:	930a      	str	r3, [sp, #40]	; 0x28
10003d0a:	9b10      	ldr	r3, [sp, #64]	; 0x40
10003d0c:	9a0a      	ldr	r2, [sp, #40]	; 0x28
10003d0e:	3b01      	subs	r3, #1
10003d10:	429a      	cmp	r2, r3
10003d12:	dbed      	blt.n	10003cf0 <_printf_float+0x3cc>
10003d14:	1c22      	adds	r2, r4, #0
10003d16:	1c28      	adds	r0, r5, #0
10003d18:	1c33      	adds	r3, r6, #0
10003d1a:	9908      	ldr	r1, [sp, #32]
10003d1c:	3250      	adds	r2, #80	; 0x50
10003d1e:	9e09      	ldr	r6, [sp, #36]	; 0x24
10003d20:	47b0      	blx	r6
10003d22:	1c43      	adds	r3, r0, #1
10003d24:	d000      	beq.n	10003d28 <_printf_float+0x404>
10003d26:	e6fc      	b.n	10003b22 <_printf_float+0x1fe>
10003d28:	e6d6      	b.n	10003ad8 <_printf_float+0x1b4>
10003d2a:	9a0a      	ldr	r2, [sp, #40]	; 0x28
10003d2c:	9f09      	ldr	r7, [sp, #36]	; 0x24
10003d2e:	47b8      	blx	r7
10003d30:	1c43      	adds	r3, r0, #1
10003d32:	d1ef      	bne.n	10003d14 <_printf_float+0x3f0>
10003d34:	e6d0      	b.n	10003ad8 <_printf_float+0x1b4>
10003d36:	1c22      	adds	r2, r4, #0
10003d38:	2301      	movs	r3, #1
10003d3a:	1c28      	adds	r0, r5, #0
10003d3c:	9908      	ldr	r1, [sp, #32]
10003d3e:	3219      	adds	r2, #25
10003d40:	9f09      	ldr	r7, [sp, #36]	; 0x24
10003d42:	47b8      	blx	r7
10003d44:	1c43      	adds	r3, r0, #1
10003d46:	d100      	bne.n	10003d4a <_printf_float+0x426>
10003d48:	e6c6      	b.n	10003ad8 <_printf_float+0x1b4>
10003d4a:	3601      	adds	r6, #1
10003d4c:	68e3      	ldr	r3, [r4, #12]
10003d4e:	9a11      	ldr	r2, [sp, #68]	; 0x44
10003d50:	1a9b      	subs	r3, r3, r2
10003d52:	429e      	cmp	r6, r3
10003d54:	dbef      	blt.n	10003d36 <_printf_float+0x412>
10003d56:	9b11      	ldr	r3, [sp, #68]	; 0x44
10003d58:	68e0      	ldr	r0, [r4, #12]
10003d5a:	4298      	cmp	r0, r3
10003d5c:	da17      	bge.n	10003d8e <_printf_float+0x46a>
10003d5e:	1c18      	adds	r0, r3, #0
10003d60:	e015      	b.n	10003d8e <_printf_float+0x46a>
10003d62:	2600      	movs	r6, #0
10003d64:	e7f2      	b.n	10003d4c <_printf_float+0x428>
10003d66:	4331      	orrs	r1, r6
10003d68:	6021      	str	r1, [r4, #0]
10003d6a:	9101      	str	r1, [sp, #4]
10003d6c:	2123      	movs	r1, #35	; 0x23
10003d6e:	9000      	str	r0, [sp, #0]
10003d70:	a806      	add	r0, sp, #24
10003d72:	1809      	adds	r1, r1, r0
10003d74:	9102      	str	r1, [sp, #8]
10003d76:	a90f      	add	r1, sp, #60	; 0x3c
10003d78:	9103      	str	r1, [sp, #12]
10003d7a:	a910      	add	r1, sp, #64	; 0x40
10003d7c:	9105      	str	r1, [sp, #20]
10003d7e:	2100      	movs	r1, #0
10003d80:	9704      	str	r7, [sp, #16]
10003d82:	9106      	str	r1, [sp, #24]
10003d84:	1c28      	adds	r0, r5, #0
10003d86:	f7ff fd37 	bl	100037f8 <__cvt>
10003d8a:	900a      	str	r0, [sp, #40]	; 0x28
10003d8c:	e646      	b.n	10003a1c <_printf_float+0xf8>
10003d8e:	b013      	add	sp, #76	; 0x4c
10003d90:	bdf0      	pop	{r4, r5, r6, r7, pc}
10003d92:	46c0      	nop			; (mov r8, r8)

10003d94 <_printf_common>:
10003d94:	b5f7      	push	{r0, r1, r2, r4, r5, r6, r7, lr}
10003d96:	1c17      	adds	r7, r2, #0
10003d98:	9301      	str	r3, [sp, #4]
10003d9a:	690a      	ldr	r2, [r1, #16]
10003d9c:	688b      	ldr	r3, [r1, #8]
10003d9e:	9000      	str	r0, [sp, #0]
10003da0:	1c0c      	adds	r4, r1, #0
10003da2:	4293      	cmp	r3, r2
10003da4:	da00      	bge.n	10003da8 <_printf_common+0x14>
10003da6:	1c13      	adds	r3, r2, #0
10003da8:	1c22      	adds	r2, r4, #0
10003daa:	603b      	str	r3, [r7, #0]
10003dac:	3243      	adds	r2, #67	; 0x43
10003dae:	7812      	ldrb	r2, [r2, #0]
10003db0:	2a00      	cmp	r2, #0
10003db2:	d001      	beq.n	10003db8 <_printf_common+0x24>
10003db4:	3301      	adds	r3, #1
10003db6:	603b      	str	r3, [r7, #0]
10003db8:	6823      	ldr	r3, [r4, #0]
10003dba:	069b      	lsls	r3, r3, #26
10003dbc:	d502      	bpl.n	10003dc4 <_printf_common+0x30>
10003dbe:	683b      	ldr	r3, [r7, #0]
10003dc0:	3302      	adds	r3, #2
10003dc2:	603b      	str	r3, [r7, #0]
10003dc4:	2506      	movs	r5, #6
10003dc6:	6823      	ldr	r3, [r4, #0]
10003dc8:	401d      	ands	r5, r3
10003dca:	d01e      	beq.n	10003e0a <_printf_common+0x76>
10003dcc:	1c23      	adds	r3, r4, #0
10003dce:	3343      	adds	r3, #67	; 0x43
10003dd0:	781b      	ldrb	r3, [r3, #0]
10003dd2:	1e5a      	subs	r2, r3, #1
10003dd4:	4193      	sbcs	r3, r2
10003dd6:	6822      	ldr	r2, [r4, #0]
10003dd8:	0692      	lsls	r2, r2, #26
10003dda:	d51c      	bpl.n	10003e16 <_printf_common+0x82>
10003ddc:	2030      	movs	r0, #48	; 0x30
10003dde:	18e1      	adds	r1, r4, r3
10003de0:	3140      	adds	r1, #64	; 0x40
10003de2:	70c8      	strb	r0, [r1, #3]
10003de4:	1c21      	adds	r1, r4, #0
10003de6:	1c5a      	adds	r2, r3, #1
10003de8:	3145      	adds	r1, #69	; 0x45
10003dea:	7809      	ldrb	r1, [r1, #0]
10003dec:	18a2      	adds	r2, r4, r2
10003dee:	3240      	adds	r2, #64	; 0x40
10003df0:	3302      	adds	r3, #2
10003df2:	70d1      	strb	r1, [r2, #3]
10003df4:	e00f      	b.n	10003e16 <_printf_common+0x82>
10003df6:	1c22      	adds	r2, r4, #0
10003df8:	2301      	movs	r3, #1
10003dfa:	9800      	ldr	r0, [sp, #0]
10003dfc:	9901      	ldr	r1, [sp, #4]
10003dfe:	3219      	adds	r2, #25
10003e00:	9e08      	ldr	r6, [sp, #32]
10003e02:	47b0      	blx	r6
10003e04:	1c43      	adds	r3, r0, #1
10003e06:	d00e      	beq.n	10003e26 <_printf_common+0x92>
10003e08:	3501      	adds	r5, #1
10003e0a:	68e3      	ldr	r3, [r4, #12]
10003e0c:	683a      	ldr	r2, [r7, #0]
10003e0e:	1a9b      	subs	r3, r3, r2
10003e10:	429d      	cmp	r5, r3
10003e12:	dbf0      	blt.n	10003df6 <_printf_common+0x62>
10003e14:	e7da      	b.n	10003dcc <_printf_common+0x38>
10003e16:	1c22      	adds	r2, r4, #0
10003e18:	9800      	ldr	r0, [sp, #0]
10003e1a:	9901      	ldr	r1, [sp, #4]
10003e1c:	3243      	adds	r2, #67	; 0x43
10003e1e:	9d08      	ldr	r5, [sp, #32]
10003e20:	47a8      	blx	r5
10003e22:	1c43      	adds	r3, r0, #1
10003e24:	d102      	bne.n	10003e2c <_printf_common+0x98>
10003e26:	2001      	movs	r0, #1
10003e28:	4240      	negs	r0, r0
10003e2a:	e020      	b.n	10003e6e <_printf_common+0xda>
10003e2c:	2306      	movs	r3, #6
10003e2e:	6820      	ldr	r0, [r4, #0]
10003e30:	68e1      	ldr	r1, [r4, #12]
10003e32:	683a      	ldr	r2, [r7, #0]
10003e34:	4003      	ands	r3, r0
10003e36:	2500      	movs	r5, #0
10003e38:	2b04      	cmp	r3, #4
10003e3a:	d103      	bne.n	10003e44 <_printf_common+0xb0>
10003e3c:	1a8d      	subs	r5, r1, r2
10003e3e:	43eb      	mvns	r3, r5
10003e40:	17db      	asrs	r3, r3, #31
10003e42:	401d      	ands	r5, r3
10003e44:	68a3      	ldr	r3, [r4, #8]
10003e46:	6922      	ldr	r2, [r4, #16]
10003e48:	4293      	cmp	r3, r2
10003e4a:	dd01      	ble.n	10003e50 <_printf_common+0xbc>
10003e4c:	1a9b      	subs	r3, r3, r2
10003e4e:	18ed      	adds	r5, r5, r3
10003e50:	2700      	movs	r7, #0
10003e52:	42af      	cmp	r7, r5
10003e54:	da0a      	bge.n	10003e6c <_printf_common+0xd8>
10003e56:	1c22      	adds	r2, r4, #0
10003e58:	2301      	movs	r3, #1
10003e5a:	9800      	ldr	r0, [sp, #0]
10003e5c:	9901      	ldr	r1, [sp, #4]
10003e5e:	321a      	adds	r2, #26
10003e60:	9e08      	ldr	r6, [sp, #32]
10003e62:	47b0      	blx	r6
10003e64:	1c43      	adds	r3, r0, #1
10003e66:	d0de      	beq.n	10003e26 <_printf_common+0x92>
10003e68:	3701      	adds	r7, #1
10003e6a:	e7f2      	b.n	10003e52 <_printf_common+0xbe>
10003e6c:	2000      	movs	r0, #0
10003e6e:	bdfe      	pop	{r1, r2, r3, r4, r5, r6, r7, pc}

10003e70 <_printf_i>:
10003e70:	b5f0      	push	{r4, r5, r6, r7, lr}
10003e72:	b08b      	sub	sp, #44	; 0x2c
10003e74:	9206      	str	r2, [sp, #24]
10003e76:	1c0a      	adds	r2, r1, #0
10003e78:	3243      	adds	r2, #67	; 0x43
10003e7a:	9307      	str	r3, [sp, #28]
10003e7c:	9005      	str	r0, [sp, #20]
10003e7e:	9204      	str	r2, [sp, #16]
10003e80:	7e0a      	ldrb	r2, [r1, #24]
10003e82:	1c0c      	adds	r4, r1, #0
10003e84:	9b10      	ldr	r3, [sp, #64]	; 0x40
10003e86:	2a6e      	cmp	r2, #110	; 0x6e
10003e88:	d100      	bne.n	10003e8c <_printf_i+0x1c>
10003e8a:	e0a8      	b.n	10003fde <_printf_i+0x16e>
10003e8c:	d811      	bhi.n	10003eb2 <_printf_i+0x42>
10003e8e:	2a63      	cmp	r2, #99	; 0x63
10003e90:	d022      	beq.n	10003ed8 <_printf_i+0x68>
10003e92:	d809      	bhi.n	10003ea8 <_printf_i+0x38>
10003e94:	2a00      	cmp	r2, #0
10003e96:	d100      	bne.n	10003e9a <_printf_i+0x2a>
10003e98:	e0b2      	b.n	10004000 <_printf_i+0x190>
10003e9a:	2a58      	cmp	r2, #88	; 0x58
10003e9c:	d000      	beq.n	10003ea0 <_printf_i+0x30>
10003e9e:	e0c2      	b.n	10004026 <_printf_i+0x1b6>
10003ea0:	3145      	adds	r1, #69	; 0x45
10003ea2:	700a      	strb	r2, [r1, #0]
10003ea4:	4a7c      	ldr	r2, [pc, #496]	; (10004098 <_printf_i+0x228>)
10003ea6:	e04f      	b.n	10003f48 <_printf_i+0xd8>
10003ea8:	2a64      	cmp	r2, #100	; 0x64
10003eaa:	d01d      	beq.n	10003ee8 <_printf_i+0x78>
10003eac:	2a69      	cmp	r2, #105	; 0x69
10003eae:	d01b      	beq.n	10003ee8 <_printf_i+0x78>
10003eb0:	e0b9      	b.n	10004026 <_printf_i+0x1b6>
10003eb2:	2a73      	cmp	r2, #115	; 0x73
10003eb4:	d100      	bne.n	10003eb8 <_printf_i+0x48>
10003eb6:	e0a7      	b.n	10004008 <_printf_i+0x198>
10003eb8:	d809      	bhi.n	10003ece <_printf_i+0x5e>
10003eba:	2a6f      	cmp	r2, #111	; 0x6f
10003ebc:	d029      	beq.n	10003f12 <_printf_i+0xa2>
10003ebe:	2a70      	cmp	r2, #112	; 0x70
10003ec0:	d000      	beq.n	10003ec4 <_printf_i+0x54>
10003ec2:	e0b0      	b.n	10004026 <_printf_i+0x1b6>
10003ec4:	2220      	movs	r2, #32
10003ec6:	6809      	ldr	r1, [r1, #0]
10003ec8:	430a      	orrs	r2, r1
10003eca:	6022      	str	r2, [r4, #0]
10003ecc:	e037      	b.n	10003f3e <_printf_i+0xce>
10003ece:	2a75      	cmp	r2, #117	; 0x75
10003ed0:	d01f      	beq.n	10003f12 <_printf_i+0xa2>
10003ed2:	2a78      	cmp	r2, #120	; 0x78
10003ed4:	d033      	beq.n	10003f3e <_printf_i+0xce>
10003ed6:	e0a6      	b.n	10004026 <_printf_i+0x1b6>
10003ed8:	1c0d      	adds	r5, r1, #0
10003eda:	681a      	ldr	r2, [r3, #0]
10003edc:	3542      	adds	r5, #66	; 0x42
10003ede:	1d11      	adds	r1, r2, #4
10003ee0:	6019      	str	r1, [r3, #0]
10003ee2:	6813      	ldr	r3, [r2, #0]
10003ee4:	702b      	strb	r3, [r5, #0]
10003ee6:	e0a1      	b.n	1000402c <_printf_i+0x1bc>
10003ee8:	6821      	ldr	r1, [r4, #0]
10003eea:	681a      	ldr	r2, [r3, #0]
10003eec:	0608      	lsls	r0, r1, #24
10003eee:	d503      	bpl.n	10003ef8 <_printf_i+0x88>
10003ef0:	1d11      	adds	r1, r2, #4
10003ef2:	6019      	str	r1, [r3, #0]
10003ef4:	6816      	ldr	r6, [r2, #0]
10003ef6:	e005      	b.n	10003f04 <_printf_i+0x94>
10003ef8:	0649      	lsls	r1, r1, #25
10003efa:	d5f9      	bpl.n	10003ef0 <_printf_i+0x80>
10003efc:	1d11      	adds	r1, r2, #4
10003efe:	6019      	str	r1, [r3, #0]
10003f00:	2300      	movs	r3, #0
10003f02:	5ed6      	ldrsh	r6, [r2, r3]
10003f04:	2e00      	cmp	r6, #0
10003f06:	da3b      	bge.n	10003f80 <_printf_i+0x110>
10003f08:	232d      	movs	r3, #45	; 0x2d
10003f0a:	9a04      	ldr	r2, [sp, #16]
10003f0c:	4276      	negs	r6, r6
10003f0e:	7013      	strb	r3, [r2, #0]
10003f10:	e036      	b.n	10003f80 <_printf_i+0x110>
10003f12:	6821      	ldr	r1, [r4, #0]
10003f14:	681a      	ldr	r2, [r3, #0]
10003f16:	0608      	lsls	r0, r1, #24
10003f18:	d503      	bpl.n	10003f22 <_printf_i+0xb2>
10003f1a:	1d11      	adds	r1, r2, #4
10003f1c:	6019      	str	r1, [r3, #0]
10003f1e:	6816      	ldr	r6, [r2, #0]
10003f20:	e005      	b.n	10003f2e <_printf_i+0xbe>
10003f22:	0649      	lsls	r1, r1, #25
10003f24:	d5f9      	bpl.n	10003f1a <_printf_i+0xaa>
10003f26:	1d11      	adds	r1, r2, #4
10003f28:	6019      	str	r1, [r3, #0]
10003f2a:	6816      	ldr	r6, [r2, #0]
10003f2c:	b2b6      	uxth	r6, r6
10003f2e:	4b5a      	ldr	r3, [pc, #360]	; (10004098 <_printf_i+0x228>)
10003f30:	7e22      	ldrb	r2, [r4, #24]
10003f32:	9303      	str	r3, [sp, #12]
10003f34:	270a      	movs	r7, #10
10003f36:	2a6f      	cmp	r2, #111	; 0x6f
10003f38:	d11d      	bne.n	10003f76 <_printf_i+0x106>
10003f3a:	2708      	movs	r7, #8
10003f3c:	e01b      	b.n	10003f76 <_printf_i+0x106>
10003f3e:	1c22      	adds	r2, r4, #0
10003f40:	2178      	movs	r1, #120	; 0x78
10003f42:	3245      	adds	r2, #69	; 0x45
10003f44:	7011      	strb	r1, [r2, #0]
10003f46:	4a55      	ldr	r2, [pc, #340]	; (1000409c <_printf_i+0x22c>)
10003f48:	6819      	ldr	r1, [r3, #0]
10003f4a:	9203      	str	r2, [sp, #12]
10003f4c:	1d08      	adds	r0, r1, #4
10003f4e:	6822      	ldr	r2, [r4, #0]
10003f50:	6018      	str	r0, [r3, #0]
10003f52:	680e      	ldr	r6, [r1, #0]
10003f54:	0610      	lsls	r0, r2, #24
10003f56:	d402      	bmi.n	10003f5e <_printf_i+0xee>
10003f58:	0650      	lsls	r0, r2, #25
10003f5a:	d500      	bpl.n	10003f5e <_printf_i+0xee>
10003f5c:	b2b6      	uxth	r6, r6
10003f5e:	07d3      	lsls	r3, r2, #31
10003f60:	d502      	bpl.n	10003f68 <_printf_i+0xf8>
10003f62:	2320      	movs	r3, #32
10003f64:	431a      	orrs	r2, r3
10003f66:	6022      	str	r2, [r4, #0]
10003f68:	2710      	movs	r7, #16
10003f6a:	2e00      	cmp	r6, #0
10003f6c:	d103      	bne.n	10003f76 <_printf_i+0x106>
10003f6e:	2320      	movs	r3, #32
10003f70:	6822      	ldr	r2, [r4, #0]
10003f72:	439a      	bics	r2, r3
10003f74:	6022      	str	r2, [r4, #0]
10003f76:	1c23      	adds	r3, r4, #0
10003f78:	2200      	movs	r2, #0
10003f7a:	3343      	adds	r3, #67	; 0x43
10003f7c:	701a      	strb	r2, [r3, #0]
10003f7e:	e002      	b.n	10003f86 <_printf_i+0x116>
10003f80:	270a      	movs	r7, #10
10003f82:	4b45      	ldr	r3, [pc, #276]	; (10004098 <_printf_i+0x228>)
10003f84:	9303      	str	r3, [sp, #12]
10003f86:	6863      	ldr	r3, [r4, #4]
10003f88:	60a3      	str	r3, [r4, #8]
10003f8a:	2b00      	cmp	r3, #0
10003f8c:	db03      	blt.n	10003f96 <_printf_i+0x126>
10003f8e:	2204      	movs	r2, #4
10003f90:	6821      	ldr	r1, [r4, #0]
10003f92:	4391      	bics	r1, r2
10003f94:	6021      	str	r1, [r4, #0]
10003f96:	2e00      	cmp	r6, #0
10003f98:	d102      	bne.n	10003fa0 <_printf_i+0x130>
10003f9a:	9d04      	ldr	r5, [sp, #16]
10003f9c:	2b00      	cmp	r3, #0
10003f9e:	d00e      	beq.n	10003fbe <_printf_i+0x14e>
10003fa0:	9d04      	ldr	r5, [sp, #16]
10003fa2:	1c30      	adds	r0, r6, #0
10003fa4:	1c39      	adds	r1, r7, #0
10003fa6:	f7ff fae1 	bl	1000356c <__aeabi_uidivmod>
10003faa:	9b03      	ldr	r3, [sp, #12]
10003fac:	3d01      	subs	r5, #1
10003fae:	5c5b      	ldrb	r3, [r3, r1]
10003fb0:	1c30      	adds	r0, r6, #0
10003fb2:	702b      	strb	r3, [r5, #0]
10003fb4:	1c39      	adds	r1, r7, #0
10003fb6:	f7ff fa53 	bl	10003460 <__aeabi_uidiv>
10003fba:	1e06      	subs	r6, r0, #0
10003fbc:	d1f1      	bne.n	10003fa2 <_printf_i+0x132>
10003fbe:	2f08      	cmp	r7, #8
10003fc0:	d109      	bne.n	10003fd6 <_printf_i+0x166>
10003fc2:	6823      	ldr	r3, [r4, #0]
10003fc4:	07db      	lsls	r3, r3, #31
10003fc6:	d506      	bpl.n	10003fd6 <_printf_i+0x166>
10003fc8:	6863      	ldr	r3, [r4, #4]
10003fca:	6922      	ldr	r2, [r4, #16]
10003fcc:	4293      	cmp	r3, r2
10003fce:	dc02      	bgt.n	10003fd6 <_printf_i+0x166>
10003fd0:	2330      	movs	r3, #48	; 0x30
10003fd2:	3d01      	subs	r5, #1
10003fd4:	702b      	strb	r3, [r5, #0]
10003fd6:	9b04      	ldr	r3, [sp, #16]
10003fd8:	1b5b      	subs	r3, r3, r5
10003fda:	6123      	str	r3, [r4, #16]
10003fdc:	e02b      	b.n	10004036 <_printf_i+0x1c6>
10003fde:	6809      	ldr	r1, [r1, #0]
10003fe0:	681a      	ldr	r2, [r3, #0]
10003fe2:	0608      	lsls	r0, r1, #24
10003fe4:	d407      	bmi.n	10003ff6 <_printf_i+0x186>
10003fe6:	0649      	lsls	r1, r1, #25
10003fe8:	d505      	bpl.n	10003ff6 <_printf_i+0x186>
10003fea:	1d11      	adds	r1, r2, #4
10003fec:	6019      	str	r1, [r3, #0]
10003fee:	6813      	ldr	r3, [r2, #0]
10003ff0:	8aa2      	ldrh	r2, [r4, #20]
10003ff2:	801a      	strh	r2, [r3, #0]
10003ff4:	e004      	b.n	10004000 <_printf_i+0x190>
10003ff6:	1d11      	adds	r1, r2, #4
10003ff8:	6019      	str	r1, [r3, #0]
10003ffa:	6813      	ldr	r3, [r2, #0]
10003ffc:	6962      	ldr	r2, [r4, #20]
10003ffe:	601a      	str	r2, [r3, #0]
10004000:	2300      	movs	r3, #0
10004002:	9d04      	ldr	r5, [sp, #16]
10004004:	6123      	str	r3, [r4, #16]
10004006:	e016      	b.n	10004036 <_printf_i+0x1c6>
10004008:	681a      	ldr	r2, [r3, #0]
1000400a:	1d11      	adds	r1, r2, #4
1000400c:	6019      	str	r1, [r3, #0]
1000400e:	6815      	ldr	r5, [r2, #0]
10004010:	2100      	movs	r1, #0
10004012:	1c28      	adds	r0, r5, #0
10004014:	6862      	ldr	r2, [r4, #4]
10004016:	f000 ff29 	bl	10004e6c <memchr>
1000401a:	2800      	cmp	r0, #0
1000401c:	d001      	beq.n	10004022 <_printf_i+0x1b2>
1000401e:	1b40      	subs	r0, r0, r5
10004020:	6060      	str	r0, [r4, #4]
10004022:	6863      	ldr	r3, [r4, #4]
10004024:	e003      	b.n	1000402e <_printf_i+0x1be>
10004026:	1c25      	adds	r5, r4, #0
10004028:	3542      	adds	r5, #66	; 0x42
1000402a:	702a      	strb	r2, [r5, #0]
1000402c:	2301      	movs	r3, #1
1000402e:	6123      	str	r3, [r4, #16]
10004030:	2300      	movs	r3, #0
10004032:	9a04      	ldr	r2, [sp, #16]
10004034:	7013      	strb	r3, [r2, #0]
10004036:	9b07      	ldr	r3, [sp, #28]
10004038:	9805      	ldr	r0, [sp, #20]
1000403a:	9300      	str	r3, [sp, #0]
1000403c:	1c21      	adds	r1, r4, #0
1000403e:	9b06      	ldr	r3, [sp, #24]
10004040:	aa09      	add	r2, sp, #36	; 0x24
10004042:	f7ff fea7 	bl	10003d94 <_printf_common>
10004046:	1c43      	adds	r3, r0, #1
10004048:	d102      	bne.n	10004050 <_printf_i+0x1e0>
1000404a:	2001      	movs	r0, #1
1000404c:	4240      	negs	r0, r0
1000404e:	e021      	b.n	10004094 <_printf_i+0x224>
10004050:	1c2a      	adds	r2, r5, #0
10004052:	6923      	ldr	r3, [r4, #16]
10004054:	9805      	ldr	r0, [sp, #20]
10004056:	9906      	ldr	r1, [sp, #24]
10004058:	9d07      	ldr	r5, [sp, #28]
1000405a:	47a8      	blx	r5
1000405c:	1c43      	adds	r3, r0, #1
1000405e:	d0f4      	beq.n	1000404a <_printf_i+0x1da>
10004060:	6823      	ldr	r3, [r4, #0]
10004062:	079b      	lsls	r3, r3, #30
10004064:	d405      	bmi.n	10004072 <_printf_i+0x202>
10004066:	9b09      	ldr	r3, [sp, #36]	; 0x24
10004068:	68e0      	ldr	r0, [r4, #12]
1000406a:	4298      	cmp	r0, r3
1000406c:	da12      	bge.n	10004094 <_printf_i+0x224>
1000406e:	1c18      	adds	r0, r3, #0
10004070:	e010      	b.n	10004094 <_printf_i+0x224>
10004072:	2500      	movs	r5, #0
10004074:	68e3      	ldr	r3, [r4, #12]
10004076:	9a09      	ldr	r2, [sp, #36]	; 0x24
10004078:	1a9b      	subs	r3, r3, r2
1000407a:	429d      	cmp	r5, r3
1000407c:	daf3      	bge.n	10004066 <_printf_i+0x1f6>
1000407e:	1c22      	adds	r2, r4, #0
10004080:	2301      	movs	r3, #1
10004082:	9805      	ldr	r0, [sp, #20]
10004084:	9906      	ldr	r1, [sp, #24]
10004086:	3219      	adds	r2, #25
10004088:	9e07      	ldr	r6, [sp, #28]
1000408a:	47b0      	blx	r6
1000408c:	1c43      	adds	r3, r0, #1
1000408e:	d0dc      	beq.n	1000404a <_printf_i+0x1da>
10004090:	3501      	adds	r5, #1
10004092:	e7ef      	b.n	10004074 <_printf_i+0x204>
10004094:	b00b      	add	sp, #44	; 0x2c
10004096:	bdf0      	pop	{r4, r5, r6, r7, pc}
10004098:	100078d8 	.word	0x100078d8
1000409c:	100078e9 	.word	0x100078e9

100040a0 <__fpclassifyd>:
100040a0:	b530      	push	{r4, r5, lr}
100040a2:	1c0c      	adds	r4, r1, #0
100040a4:	2302      	movs	r3, #2
100040a6:	4304      	orrs	r4, r0
100040a8:	d017      	beq.n	100040da <__fpclassifyd+0x3a>
100040aa:	2480      	movs	r4, #128	; 0x80
100040ac:	0624      	lsls	r4, r4, #24
100040ae:	42a1      	cmp	r1, r4
100040b0:	d101      	bne.n	100040b6 <__fpclassifyd+0x16>
100040b2:	2800      	cmp	r0, #0
100040b4:	d011      	beq.n	100040da <__fpclassifyd+0x3a>
100040b6:	4b0a      	ldr	r3, [pc, #40]	; (100040e0 <__fpclassifyd+0x40>)
100040b8:	0049      	lsls	r1, r1, #1
100040ba:	0849      	lsrs	r1, r1, #1
100040bc:	4a09      	ldr	r2, [pc, #36]	; (100040e4 <__fpclassifyd+0x44>)
100040be:	18cc      	adds	r4, r1, r3
100040c0:	2304      	movs	r3, #4
100040c2:	4294      	cmp	r4, r2
100040c4:	d909      	bls.n	100040da <__fpclassifyd+0x3a>
100040c6:	4a08      	ldr	r2, [pc, #32]	; (100040e8 <__fpclassifyd+0x48>)
100040c8:	3b01      	subs	r3, #1
100040ca:	4291      	cmp	r1, r2
100040cc:	d905      	bls.n	100040da <__fpclassifyd+0x3a>
100040ce:	4a07      	ldr	r2, [pc, #28]	; (100040ec <__fpclassifyd+0x4c>)
100040d0:	2300      	movs	r3, #0
100040d2:	4291      	cmp	r1, r2
100040d4:	d101      	bne.n	100040da <__fpclassifyd+0x3a>
100040d6:	4243      	negs	r3, r0
100040d8:	4143      	adcs	r3, r0
100040da:	1c18      	adds	r0, r3, #0
100040dc:	bd30      	pop	{r4, r5, pc}
100040de:	46c0      	nop			; (mov r8, r8)
100040e0:	fff00000 	.word	0xfff00000
100040e4:	7fdfffff 	.word	0x7fdfffff
100040e8:	000fffff 	.word	0x000fffff
100040ec:	7ff00000 	.word	0x7ff00000

100040f0 <siprintf>:
100040f0:	b40e      	push	{r1, r2, r3}
100040f2:	b510      	push	{r4, lr}
100040f4:	b09d      	sub	sp, #116	; 0x74
100040f6:	a902      	add	r1, sp, #8
100040f8:	9002      	str	r0, [sp, #8]
100040fa:	6108      	str	r0, [r1, #16]
100040fc:	480b      	ldr	r0, [pc, #44]	; (1000412c <siprintf+0x3c>)
100040fe:	2482      	movs	r4, #130	; 0x82
10004100:	6088      	str	r0, [r1, #8]
10004102:	6148      	str	r0, [r1, #20]
10004104:	2001      	movs	r0, #1
10004106:	4240      	negs	r0, r0
10004108:	ab1f      	add	r3, sp, #124	; 0x7c
1000410a:	81c8      	strh	r0, [r1, #14]
1000410c:	4808      	ldr	r0, [pc, #32]	; (10004130 <siprintf+0x40>)
1000410e:	cb04      	ldmia	r3!, {r2}
10004110:	00a4      	lsls	r4, r4, #2
10004112:	6800      	ldr	r0, [r0, #0]
10004114:	9301      	str	r3, [sp, #4]
10004116:	818c      	strh	r4, [r1, #12]
10004118:	f001 fab4 	bl	10005684 <_svfiprintf_r>
1000411c:	2300      	movs	r3, #0
1000411e:	9a02      	ldr	r2, [sp, #8]
10004120:	7013      	strb	r3, [r2, #0]
10004122:	b01d      	add	sp, #116	; 0x74
10004124:	bc10      	pop	{r4}
10004126:	bc08      	pop	{r3}
10004128:	b003      	add	sp, #12
1000412a:	4718      	bx	r3
1000412c:	7fffffff 	.word	0x7fffffff
10004130:	20000728 	.word	0x20000728

10004134 <strlen>:
10004134:	2300      	movs	r3, #0
10004136:	5cc2      	ldrb	r2, [r0, r3]
10004138:	3301      	adds	r3, #1
1000413a:	2a00      	cmp	r2, #0
1000413c:	d1fb      	bne.n	10004136 <strlen+0x2>
1000413e:	1e58      	subs	r0, r3, #1
10004140:	4770      	bx	lr

10004142 <quorem>:
10004142:	b5f0      	push	{r4, r5, r6, r7, lr}
10004144:	6903      	ldr	r3, [r0, #16]
10004146:	690c      	ldr	r4, [r1, #16]
10004148:	b089      	sub	sp, #36	; 0x24
1000414a:	2600      	movs	r6, #0
1000414c:	42a3      	cmp	r3, r4
1000414e:	db7c      	blt.n	1000424a <quorem+0x108>
10004150:	1c0b      	adds	r3, r1, #0
10004152:	3c01      	subs	r4, #1
10004154:	3314      	adds	r3, #20
10004156:	00a5      	lsls	r5, r4, #2
10004158:	9303      	str	r3, [sp, #12]
1000415a:	195b      	adds	r3, r3, r5
1000415c:	9304      	str	r3, [sp, #16]
1000415e:	1c03      	adds	r3, r0, #0
10004160:	3314      	adds	r3, #20
10004162:	9301      	str	r3, [sp, #4]
10004164:	195d      	adds	r5, r3, r5
10004166:	9b04      	ldr	r3, [sp, #16]
10004168:	9107      	str	r1, [sp, #28]
1000416a:	681b      	ldr	r3, [r3, #0]
1000416c:	9002      	str	r0, [sp, #8]
1000416e:	1c59      	adds	r1, r3, #1
10004170:	6828      	ldr	r0, [r5, #0]
10004172:	9305      	str	r3, [sp, #20]
10004174:	f7ff f974 	bl	10003460 <__aeabi_uidiv>
10004178:	1e07      	subs	r7, r0, #0
1000417a:	42b7      	cmp	r7, r6
1000417c:	d035      	beq.n	100041ea <quorem+0xa8>
1000417e:	9b03      	ldr	r3, [sp, #12]
10004180:	9801      	ldr	r0, [sp, #4]
10004182:	469c      	mov	ip, r3
10004184:	9605      	str	r6, [sp, #20]
10004186:	4663      	mov	r3, ip
10004188:	cb04      	ldmia	r3!, {r2}
1000418a:	b291      	uxth	r1, r2
1000418c:	4379      	muls	r1, r7
1000418e:	0c12      	lsrs	r2, r2, #16
10004190:	437a      	muls	r2, r7
10004192:	1871      	adds	r1, r6, r1
10004194:	0c0e      	lsrs	r6, r1, #16
10004196:	469c      	mov	ip, r3
10004198:	18b3      	adds	r3, r6, r2
1000419a:	9306      	str	r3, [sp, #24]
1000419c:	8802      	ldrh	r2, [r0, #0]
1000419e:	0c1e      	lsrs	r6, r3, #16
100041a0:	9b05      	ldr	r3, [sp, #20]
100041a2:	b289      	uxth	r1, r1
100041a4:	18d2      	adds	r2, r2, r3
100041a6:	6803      	ldr	r3, [r0, #0]
100041a8:	1a52      	subs	r2, r2, r1
100041aa:	0c19      	lsrs	r1, r3, #16
100041ac:	466b      	mov	r3, sp
100041ae:	8b1b      	ldrh	r3, [r3, #24]
100041b0:	1acb      	subs	r3, r1, r3
100041b2:	1411      	asrs	r1, r2, #16
100041b4:	185b      	adds	r3, r3, r1
100041b6:	1419      	asrs	r1, r3, #16
100041b8:	b292      	uxth	r2, r2
100041ba:	041b      	lsls	r3, r3, #16
100041bc:	431a      	orrs	r2, r3
100041be:	9b04      	ldr	r3, [sp, #16]
100041c0:	9105      	str	r1, [sp, #20]
100041c2:	c004      	stmia	r0!, {r2}
100041c4:	4563      	cmp	r3, ip
100041c6:	d2de      	bcs.n	10004186 <quorem+0x44>
100041c8:	682b      	ldr	r3, [r5, #0]
100041ca:	2b00      	cmp	r3, #0
100041cc:	d10d      	bne.n	100041ea <quorem+0xa8>
100041ce:	1c23      	adds	r3, r4, #0
100041d0:	9a01      	ldr	r2, [sp, #4]
100041d2:	3d04      	subs	r5, #4
100041d4:	4295      	cmp	r5, r2
100041d6:	d803      	bhi.n	100041e0 <quorem+0x9e>
100041d8:	9a02      	ldr	r2, [sp, #8]
100041da:	1c1c      	adds	r4, r3, #0
100041dc:	6113      	str	r3, [r2, #16]
100041de:	e004      	b.n	100041ea <quorem+0xa8>
100041e0:	682a      	ldr	r2, [r5, #0]
100041e2:	2a00      	cmp	r2, #0
100041e4:	d1f8      	bne.n	100041d8 <quorem+0x96>
100041e6:	3b01      	subs	r3, #1
100041e8:	e7f2      	b.n	100041d0 <quorem+0x8e>
100041ea:	9802      	ldr	r0, [sp, #8]
100041ec:	9907      	ldr	r1, [sp, #28]
100041ee:	f001 f863 	bl	100052b8 <__mcmp>
100041f2:	2800      	cmp	r0, #0
100041f4:	db28      	blt.n	10004248 <quorem+0x106>
100041f6:	2000      	movs	r0, #0
100041f8:	9901      	ldr	r1, [sp, #4]
100041fa:	9a03      	ldr	r2, [sp, #12]
100041fc:	3701      	adds	r7, #1
100041fe:	ca20      	ldmia	r2!, {r5}
10004200:	880b      	ldrh	r3, [r1, #0]
10004202:	1818      	adds	r0, r3, r0
10004204:	b2ab      	uxth	r3, r5
10004206:	1ac3      	subs	r3, r0, r3
10004208:	6808      	ldr	r0, [r1, #0]
1000420a:	0c2d      	lsrs	r5, r5, #16
1000420c:	0c00      	lsrs	r0, r0, #16
1000420e:	1b45      	subs	r5, r0, r5
10004210:	141e      	asrs	r6, r3, #16
10004212:	19ad      	adds	r5, r5, r6
10004214:	1428      	asrs	r0, r5, #16
10004216:	b29b      	uxth	r3, r3
10004218:	042d      	lsls	r5, r5, #16
1000421a:	432b      	orrs	r3, r5
1000421c:	c108      	stmia	r1!, {r3}
1000421e:	9b04      	ldr	r3, [sp, #16]
10004220:	4293      	cmp	r3, r2
10004222:	d2ec      	bcs.n	100041fe <quorem+0xbc>
10004224:	9a01      	ldr	r2, [sp, #4]
10004226:	00a3      	lsls	r3, r4, #2
10004228:	18d3      	adds	r3, r2, r3
1000422a:	681a      	ldr	r2, [r3, #0]
1000422c:	2a00      	cmp	r2, #0
1000422e:	d10b      	bne.n	10004248 <quorem+0x106>
10004230:	9a01      	ldr	r2, [sp, #4]
10004232:	3b04      	subs	r3, #4
10004234:	4293      	cmp	r3, r2
10004236:	d802      	bhi.n	1000423e <quorem+0xfc>
10004238:	9b02      	ldr	r3, [sp, #8]
1000423a:	611c      	str	r4, [r3, #16]
1000423c:	e004      	b.n	10004248 <quorem+0x106>
1000423e:	681a      	ldr	r2, [r3, #0]
10004240:	2a00      	cmp	r2, #0
10004242:	d1f9      	bne.n	10004238 <quorem+0xf6>
10004244:	3c01      	subs	r4, #1
10004246:	e7f3      	b.n	10004230 <quorem+0xee>
10004248:	1c3e      	adds	r6, r7, #0
1000424a:	1c30      	adds	r0, r6, #0
1000424c:	b009      	add	sp, #36	; 0x24
1000424e:	bdf0      	pop	{r4, r5, r6, r7, pc}

10004250 <_dtoa_r>:
10004250:	b5f0      	push	{r4, r5, r6, r7, lr}
10004252:	1c16      	adds	r6, r2, #0
10004254:	1c1f      	adds	r7, r3, #0
10004256:	6a44      	ldr	r4, [r0, #36]	; 0x24
10004258:	b09b      	sub	sp, #108	; 0x6c
1000425a:	9008      	str	r0, [sp, #32]
1000425c:	9d23      	ldr	r5, [sp, #140]	; 0x8c
1000425e:	9606      	str	r6, [sp, #24]
10004260:	9707      	str	r7, [sp, #28]
10004262:	2c00      	cmp	r4, #0
10004264:	d108      	bne.n	10004278 <_dtoa_r+0x28>
10004266:	2010      	movs	r0, #16
10004268:	f000 fdf6 	bl	10004e58 <malloc>
1000426c:	9b08      	ldr	r3, [sp, #32]
1000426e:	6258      	str	r0, [r3, #36]	; 0x24
10004270:	6044      	str	r4, [r0, #4]
10004272:	6084      	str	r4, [r0, #8]
10004274:	6004      	str	r4, [r0, #0]
10004276:	60c4      	str	r4, [r0, #12]
10004278:	9b08      	ldr	r3, [sp, #32]
1000427a:	6a5b      	ldr	r3, [r3, #36]	; 0x24
1000427c:	6819      	ldr	r1, [r3, #0]
1000427e:	2900      	cmp	r1, #0
10004280:	d00b      	beq.n	1000429a <_dtoa_r+0x4a>
10004282:	685a      	ldr	r2, [r3, #4]
10004284:	2301      	movs	r3, #1
10004286:	4093      	lsls	r3, r2
10004288:	604a      	str	r2, [r1, #4]
1000428a:	608b      	str	r3, [r1, #8]
1000428c:	9808      	ldr	r0, [sp, #32]
1000428e:	f000 fe39 	bl	10004f04 <_Bfree>
10004292:	2200      	movs	r2, #0
10004294:	9b08      	ldr	r3, [sp, #32]
10004296:	6a5b      	ldr	r3, [r3, #36]	; 0x24
10004298:	601a      	str	r2, [r3, #0]
1000429a:	9b07      	ldr	r3, [sp, #28]
1000429c:	2b00      	cmp	r3, #0
1000429e:	da05      	bge.n	100042ac <_dtoa_r+0x5c>
100042a0:	2301      	movs	r3, #1
100042a2:	602b      	str	r3, [r5, #0]
100042a4:	007b      	lsls	r3, r7, #1
100042a6:	085b      	lsrs	r3, r3, #1
100042a8:	9307      	str	r3, [sp, #28]
100042aa:	e001      	b.n	100042b0 <_dtoa_r+0x60>
100042ac:	2300      	movs	r3, #0
100042ae:	602b      	str	r3, [r5, #0]
100042b0:	9c07      	ldr	r4, [sp, #28]
100042b2:	4bc6      	ldr	r3, [pc, #792]	; (100045cc <_dtoa_r+0x37c>)
100042b4:	1c22      	adds	r2, r4, #0
100042b6:	9317      	str	r3, [sp, #92]	; 0x5c
100042b8:	401a      	ands	r2, r3
100042ba:	429a      	cmp	r2, r3
100042bc:	d119      	bne.n	100042f2 <_dtoa_r+0xa2>
100042be:	4bc4      	ldr	r3, [pc, #784]	; (100045d0 <_dtoa_r+0x380>)
100042c0:	9a22      	ldr	r2, [sp, #136]	; 0x88
100042c2:	6013      	str	r3, [r2, #0]
100042c4:	9a06      	ldr	r2, [sp, #24]
100042c6:	4bc3      	ldr	r3, [pc, #780]	; (100045d4 <_dtoa_r+0x384>)
100042c8:	2a00      	cmp	r2, #0
100042ca:	d102      	bne.n	100042d2 <_dtoa_r+0x82>
100042cc:	0324      	lsls	r4, r4, #12
100042ce:	d100      	bne.n	100042d2 <_dtoa_r+0x82>
100042d0:	4bc1      	ldr	r3, [pc, #772]	; (100045d8 <_dtoa_r+0x388>)
100042d2:	9a24      	ldr	r2, [sp, #144]	; 0x90
100042d4:	1c18      	adds	r0, r3, #0
100042d6:	2a00      	cmp	r2, #0
100042d8:	d101      	bne.n	100042de <_dtoa_r+0x8e>
100042da:	f000 fdb6 	bl	10004e4a <_dtoa_r+0xbfa>
100042de:	78d9      	ldrb	r1, [r3, #3]
100042e0:	1cda      	adds	r2, r3, #3
100042e2:	2900      	cmp	r1, #0
100042e4:	d000      	beq.n	100042e8 <_dtoa_r+0x98>
100042e6:	3205      	adds	r2, #5
100042e8:	9924      	ldr	r1, [sp, #144]	; 0x90
100042ea:	1c18      	adds	r0, r3, #0
100042ec:	600a      	str	r2, [r1, #0]
100042ee:	f000 fdac 	bl	10004e4a <_dtoa_r+0xbfa>
100042f2:	9e06      	ldr	r6, [sp, #24]
100042f4:	9f07      	ldr	r7, [sp, #28]
100042f6:	2200      	movs	r2, #0
100042f8:	1c30      	adds	r0, r6, #0
100042fa:	1c39      	adds	r1, r7, #0
100042fc:	2300      	movs	r3, #0
100042fe:	f001 fb31 	bl	10005964 <__aeabi_dcmpeq>
10004302:	1e05      	subs	r5, r0, #0
10004304:	d00e      	beq.n	10004324 <_dtoa_r+0xd4>
10004306:	2301      	movs	r3, #1
10004308:	9a22      	ldr	r2, [sp, #136]	; 0x88
1000430a:	6013      	str	r3, [r2, #0]
1000430c:	4bb3      	ldr	r3, [pc, #716]	; (100045dc <_dtoa_r+0x38c>)
1000430e:	9a24      	ldr	r2, [sp, #144]	; 0x90
10004310:	1c18      	adds	r0, r3, #0
10004312:	2a00      	cmp	r2, #0
10004314:	d101      	bne.n	1000431a <_dtoa_r+0xca>
10004316:	f000 fd98 	bl	10004e4a <_dtoa_r+0xbfa>
1000431a:	4ab1      	ldr	r2, [pc, #708]	; (100045e0 <_dtoa_r+0x390>)
1000431c:	9924      	ldr	r1, [sp, #144]	; 0x90
1000431e:	600a      	str	r2, [r1, #0]
10004320:	f000 fd93 	bl	10004e4a <_dtoa_r+0xbfa>
10004324:	ab19      	add	r3, sp, #100	; 0x64
10004326:	9300      	str	r3, [sp, #0]
10004328:	ab18      	add	r3, sp, #96	; 0x60
1000432a:	9301      	str	r3, [sp, #4]
1000432c:	9808      	ldr	r0, [sp, #32]
1000432e:	1c32      	adds	r2, r6, #0
10004330:	1c3b      	adds	r3, r7, #0
10004332:	f001 f847 	bl	100053c4 <__d2b>
10004336:	0061      	lsls	r1, r4, #1
10004338:	900a      	str	r0, [sp, #40]	; 0x28
1000433a:	0d49      	lsrs	r1, r1, #21
1000433c:	d009      	beq.n	10004352 <_dtoa_r+0x102>
1000433e:	0338      	lsls	r0, r7, #12
10004340:	4ca8      	ldr	r4, [pc, #672]	; (100045e4 <_dtoa_r+0x394>)
10004342:	0b00      	lsrs	r0, r0, #12
10004344:	4304      	orrs	r4, r0
10004346:	48a8      	ldr	r0, [pc, #672]	; (100045e8 <_dtoa_r+0x398>)
10004348:	1c32      	adds	r2, r6, #0
1000434a:	1c23      	adds	r3, r4, #0
1000434c:	180e      	adds	r6, r1, r0
1000434e:	9516      	str	r5, [sp, #88]	; 0x58
10004350:	e01c      	b.n	1000438c <_dtoa_r+0x13c>
10004352:	9b18      	ldr	r3, [sp, #96]	; 0x60
10004354:	9a19      	ldr	r2, [sp, #100]	; 0x64
10004356:	189e      	adds	r6, r3, r2
10004358:	4ba4      	ldr	r3, [pc, #656]	; (100045ec <_dtoa_r+0x39c>)
1000435a:	429e      	cmp	r6, r3
1000435c:	db09      	blt.n	10004372 <_dtoa_r+0x122>
1000435e:	4ba4      	ldr	r3, [pc, #656]	; (100045f0 <_dtoa_r+0x3a0>)
10004360:	18f0      	adds	r0, r6, r3
10004362:	9b06      	ldr	r3, [sp, #24]
10004364:	40c3      	lsrs	r3, r0
10004366:	1c18      	adds	r0, r3, #0
10004368:	4ba2      	ldr	r3, [pc, #648]	; (100045f4 <_dtoa_r+0x3a4>)
1000436a:	1b9b      	subs	r3, r3, r6
1000436c:	409c      	lsls	r4, r3
1000436e:	4320      	orrs	r0, r4
10004370:	e004      	b.n	1000437c <_dtoa_r+0x12c>
10004372:	48a1      	ldr	r0, [pc, #644]	; (100045f8 <_dtoa_r+0x3a8>)
10004374:	9b06      	ldr	r3, [sp, #24]
10004376:	1b80      	subs	r0, r0, r6
10004378:	4083      	lsls	r3, r0
1000437a:	1c18      	adds	r0, r3, #0
1000437c:	f003 f90c 	bl	10007598 <__aeabi_ui2d>
10004380:	4c9e      	ldr	r4, [pc, #632]	; (100045fc <_dtoa_r+0x3ac>)
10004382:	1c02      	adds	r2, r0, #0
10004384:	190b      	adds	r3, r1, r4
10004386:	2101      	movs	r1, #1
10004388:	3e01      	subs	r6, #1
1000438a:	9116      	str	r1, [sp, #88]	; 0x58
1000438c:	1c10      	adds	r0, r2, #0
1000438e:	1c19      	adds	r1, r3, #0
10004390:	2200      	movs	r2, #0
10004392:	4b9b      	ldr	r3, [pc, #620]	; (10004600 <_dtoa_r+0x3b0>)
10004394:	f002 fd14 	bl	10006dc0 <__aeabi_dsub>
10004398:	4a9a      	ldr	r2, [pc, #616]	; (10004604 <_dtoa_r+0x3b4>)
1000439a:	4b9b      	ldr	r3, [pc, #620]	; (10004608 <_dtoa_r+0x3b8>)
1000439c:	f002 fa76 	bl	1000688c <__aeabi_dmul>
100043a0:	4a9a      	ldr	r2, [pc, #616]	; (1000460c <_dtoa_r+0x3bc>)
100043a2:	4b9b      	ldr	r3, [pc, #620]	; (10004610 <_dtoa_r+0x3c0>)
100043a4:	f001 fb0c 	bl	100059c0 <__aeabi_dadd>
100043a8:	1c04      	adds	r4, r0, #0
100043aa:	1c30      	adds	r0, r6, #0
100043ac:	1c0d      	adds	r5, r1, #0
100043ae:	f003 f8b7 	bl	10007520 <__aeabi_i2d>
100043b2:	4a98      	ldr	r2, [pc, #608]	; (10004614 <_dtoa_r+0x3c4>)
100043b4:	4b98      	ldr	r3, [pc, #608]	; (10004618 <_dtoa_r+0x3c8>)
100043b6:	f002 fa69 	bl	1000688c <__aeabi_dmul>
100043ba:	1c02      	adds	r2, r0, #0
100043bc:	1c0b      	adds	r3, r1, #0
100043be:	1c20      	adds	r0, r4, #0
100043c0:	1c29      	adds	r1, r5, #0
100043c2:	f001 fafd 	bl	100059c0 <__aeabi_dadd>
100043c6:	1c04      	adds	r4, r0, #0
100043c8:	1c0d      	adds	r5, r1, #0
100043ca:	f003 f873 	bl	100074b4 <__aeabi_d2iz>
100043ce:	1c29      	adds	r1, r5, #0
100043d0:	9003      	str	r0, [sp, #12]
100043d2:	2200      	movs	r2, #0
100043d4:	1c20      	adds	r0, r4, #0
100043d6:	2300      	movs	r3, #0
100043d8:	f001 faca 	bl	10005970 <__aeabi_dcmplt>
100043dc:	2800      	cmp	r0, #0
100043de:	d00d      	beq.n	100043fc <_dtoa_r+0x1ac>
100043e0:	9803      	ldr	r0, [sp, #12]
100043e2:	f003 f89d 	bl	10007520 <__aeabi_i2d>
100043e6:	1c02      	adds	r2, r0, #0
100043e8:	1c0b      	adds	r3, r1, #0
100043ea:	1c20      	adds	r0, r4, #0
100043ec:	1c29      	adds	r1, r5, #0
100043ee:	f001 fab9 	bl	10005964 <__aeabi_dcmpeq>
100043f2:	4243      	negs	r3, r0
100043f4:	4143      	adcs	r3, r0
100043f6:	9a03      	ldr	r2, [sp, #12]
100043f8:	1ad3      	subs	r3, r2, r3
100043fa:	9303      	str	r3, [sp, #12]
100043fc:	2301      	movs	r3, #1
100043fe:	9313      	str	r3, [sp, #76]	; 0x4c
10004400:	9b03      	ldr	r3, [sp, #12]
10004402:	2b16      	cmp	r3, #22
10004404:	d811      	bhi.n	1000442a <_dtoa_r+0x1da>
10004406:	4a85      	ldr	r2, [pc, #532]	; (1000461c <_dtoa_r+0x3cc>)
10004408:	00db      	lsls	r3, r3, #3
1000440a:	18d3      	adds	r3, r2, r3
1000440c:	6818      	ldr	r0, [r3, #0]
1000440e:	6859      	ldr	r1, [r3, #4]
10004410:	9a06      	ldr	r2, [sp, #24]
10004412:	9b07      	ldr	r3, [sp, #28]
10004414:	f001 fac0 	bl	10005998 <__aeabi_dcmpgt>
10004418:	2800      	cmp	r0, #0
1000441a:	d005      	beq.n	10004428 <_dtoa_r+0x1d8>
1000441c:	9b03      	ldr	r3, [sp, #12]
1000441e:	3b01      	subs	r3, #1
10004420:	9303      	str	r3, [sp, #12]
10004422:	2300      	movs	r3, #0
10004424:	9313      	str	r3, [sp, #76]	; 0x4c
10004426:	e000      	b.n	1000442a <_dtoa_r+0x1da>
10004428:	9013      	str	r0, [sp, #76]	; 0x4c
1000442a:	9b18      	ldr	r3, [sp, #96]	; 0x60
1000442c:	1b9e      	subs	r6, r3, r6
1000442e:	2300      	movs	r3, #0
10004430:	930d      	str	r3, [sp, #52]	; 0x34
10004432:	3e01      	subs	r6, #1
10004434:	960e      	str	r6, [sp, #56]	; 0x38
10004436:	d504      	bpl.n	10004442 <_dtoa_r+0x1f2>
10004438:	9b0e      	ldr	r3, [sp, #56]	; 0x38
1000443a:	425b      	negs	r3, r3
1000443c:	930d      	str	r3, [sp, #52]	; 0x34
1000443e:	2300      	movs	r3, #0
10004440:	930e      	str	r3, [sp, #56]	; 0x38
10004442:	9b03      	ldr	r3, [sp, #12]
10004444:	2b00      	cmp	r3, #0
10004446:	db08      	blt.n	1000445a <_dtoa_r+0x20a>
10004448:	9a03      	ldr	r2, [sp, #12]
1000444a:	9b0e      	ldr	r3, [sp, #56]	; 0x38
1000444c:	4694      	mov	ip, r2
1000444e:	4463      	add	r3, ip
10004450:	930e      	str	r3, [sp, #56]	; 0x38
10004452:	2300      	movs	r3, #0
10004454:	9212      	str	r2, [sp, #72]	; 0x48
10004456:	930f      	str	r3, [sp, #60]	; 0x3c
10004458:	e007      	b.n	1000446a <_dtoa_r+0x21a>
1000445a:	9b0d      	ldr	r3, [sp, #52]	; 0x34
1000445c:	9a03      	ldr	r2, [sp, #12]
1000445e:	1a9b      	subs	r3, r3, r2
10004460:	930d      	str	r3, [sp, #52]	; 0x34
10004462:	4253      	negs	r3, r2
10004464:	930f      	str	r3, [sp, #60]	; 0x3c
10004466:	2300      	movs	r3, #0
10004468:	9312      	str	r3, [sp, #72]	; 0x48
1000446a:	9b20      	ldr	r3, [sp, #128]	; 0x80
1000446c:	2501      	movs	r5, #1
1000446e:	2b09      	cmp	r3, #9
10004470:	d827      	bhi.n	100044c2 <_dtoa_r+0x272>
10004472:	2b05      	cmp	r3, #5
10004474:	dd02      	ble.n	1000447c <_dtoa_r+0x22c>
10004476:	2500      	movs	r5, #0
10004478:	3b04      	subs	r3, #4
1000447a:	9320      	str	r3, [sp, #128]	; 0x80
1000447c:	9b20      	ldr	r3, [sp, #128]	; 0x80
1000447e:	1e98      	subs	r0, r3, #2
10004480:	2803      	cmp	r0, #3
10004482:	d823      	bhi.n	100044cc <_dtoa_r+0x27c>
10004484:	f001 fa54 	bl	10005930 <__gnu_thumb1_case_uqi>
10004488:	10040e02 	.word	0x10040e02
1000448c:	2300      	movs	r3, #0
1000448e:	e000      	b.n	10004492 <_dtoa_r+0x242>
10004490:	2301      	movs	r3, #1
10004492:	9310      	str	r3, [sp, #64]	; 0x40
10004494:	9b21      	ldr	r3, [sp, #132]	; 0x84
10004496:	2b00      	cmp	r3, #0
10004498:	dc21      	bgt.n	100044de <_dtoa_r+0x28e>
1000449a:	2301      	movs	r3, #1
1000449c:	930b      	str	r3, [sp, #44]	; 0x2c
1000449e:	9309      	str	r3, [sp, #36]	; 0x24
100044a0:	1c1a      	adds	r2, r3, #0
100044a2:	e01a      	b.n	100044da <_dtoa_r+0x28a>
100044a4:	2300      	movs	r3, #0
100044a6:	e000      	b.n	100044aa <_dtoa_r+0x25a>
100044a8:	2301      	movs	r3, #1
100044aa:	9a03      	ldr	r2, [sp, #12]
100044ac:	9310      	str	r3, [sp, #64]	; 0x40
100044ae:	4694      	mov	ip, r2
100044b0:	9b21      	ldr	r3, [sp, #132]	; 0x84
100044b2:	4463      	add	r3, ip
100044b4:	930b      	str	r3, [sp, #44]	; 0x2c
100044b6:	3301      	adds	r3, #1
100044b8:	9309      	str	r3, [sp, #36]	; 0x24
100044ba:	2b00      	cmp	r3, #0
100044bc:	dc12      	bgt.n	100044e4 <_dtoa_r+0x294>
100044be:	2301      	movs	r3, #1
100044c0:	e010      	b.n	100044e4 <_dtoa_r+0x294>
100044c2:	2300      	movs	r3, #0
100044c4:	9510      	str	r5, [sp, #64]	; 0x40
100044c6:	9320      	str	r3, [sp, #128]	; 0x80
100044c8:	3b01      	subs	r3, #1
100044ca:	e002      	b.n	100044d2 <_dtoa_r+0x282>
100044cc:	2301      	movs	r3, #1
100044ce:	9310      	str	r3, [sp, #64]	; 0x40
100044d0:	3b02      	subs	r3, #2
100044d2:	2200      	movs	r2, #0
100044d4:	930b      	str	r3, [sp, #44]	; 0x2c
100044d6:	9309      	str	r3, [sp, #36]	; 0x24
100044d8:	3313      	adds	r3, #19
100044da:	9221      	str	r2, [sp, #132]	; 0x84
100044dc:	e002      	b.n	100044e4 <_dtoa_r+0x294>
100044de:	9b21      	ldr	r3, [sp, #132]	; 0x84
100044e0:	930b      	str	r3, [sp, #44]	; 0x2c
100044e2:	9309      	str	r3, [sp, #36]	; 0x24
100044e4:	9a08      	ldr	r2, [sp, #32]
100044e6:	6a54      	ldr	r4, [r2, #36]	; 0x24
100044e8:	2200      	movs	r2, #0
100044ea:	6062      	str	r2, [r4, #4]
100044ec:	3204      	adds	r2, #4
100044ee:	1c11      	adds	r1, r2, #0
100044f0:	3114      	adds	r1, #20
100044f2:	4299      	cmp	r1, r3
100044f4:	d804      	bhi.n	10004500 <_dtoa_r+0x2b0>
100044f6:	6861      	ldr	r1, [r4, #4]
100044f8:	0052      	lsls	r2, r2, #1
100044fa:	3101      	adds	r1, #1
100044fc:	6061      	str	r1, [r4, #4]
100044fe:	e7f6      	b.n	100044ee <_dtoa_r+0x29e>
10004500:	9808      	ldr	r0, [sp, #32]
10004502:	6861      	ldr	r1, [r4, #4]
10004504:	f000 fcc6 	bl	10004e94 <_Balloc>
10004508:	9b08      	ldr	r3, [sp, #32]
1000450a:	6020      	str	r0, [r4, #0]
1000450c:	6a5b      	ldr	r3, [r3, #36]	; 0x24
1000450e:	681b      	ldr	r3, [r3, #0]
10004510:	930c      	str	r3, [sp, #48]	; 0x30
10004512:	9b09      	ldr	r3, [sp, #36]	; 0x24
10004514:	2b0e      	cmp	r3, #14
10004516:	d900      	bls.n	1000451a <_dtoa_r+0x2ca>
10004518:	e188      	b.n	1000482c <_dtoa_r+0x5dc>
1000451a:	2d00      	cmp	r5, #0
1000451c:	d100      	bne.n	10004520 <_dtoa_r+0x2d0>
1000451e:	e185      	b.n	1000482c <_dtoa_r+0x5dc>
10004520:	9b06      	ldr	r3, [sp, #24]
10004522:	9c07      	ldr	r4, [sp, #28]
10004524:	9314      	str	r3, [sp, #80]	; 0x50
10004526:	9415      	str	r4, [sp, #84]	; 0x54
10004528:	9b03      	ldr	r3, [sp, #12]
1000452a:	2b00      	cmp	r3, #0
1000452c:	dd30      	ble.n	10004590 <_dtoa_r+0x340>
1000452e:	220f      	movs	r2, #15
10004530:	493a      	ldr	r1, [pc, #232]	; (1000461c <_dtoa_r+0x3cc>)
10004532:	4013      	ands	r3, r2
10004534:	00db      	lsls	r3, r3, #3
10004536:	18cb      	adds	r3, r1, r3
10004538:	685c      	ldr	r4, [r3, #4]
1000453a:	681b      	ldr	r3, [r3, #0]
1000453c:	9304      	str	r3, [sp, #16]
1000453e:	9405      	str	r4, [sp, #20]
10004540:	9b03      	ldr	r3, [sp, #12]
10004542:	2702      	movs	r7, #2
10004544:	111d      	asrs	r5, r3, #4
10004546:	06eb      	lsls	r3, r5, #27
10004548:	d50a      	bpl.n	10004560 <_dtoa_r+0x310>
1000454a:	9814      	ldr	r0, [sp, #80]	; 0x50
1000454c:	9915      	ldr	r1, [sp, #84]	; 0x54
1000454e:	4b34      	ldr	r3, [pc, #208]	; (10004620 <_dtoa_r+0x3d0>)
10004550:	4015      	ands	r5, r2
10004552:	6a1a      	ldr	r2, [r3, #32]
10004554:	6a5b      	ldr	r3, [r3, #36]	; 0x24
10004556:	f001 fd5b 	bl	10006010 <__aeabi_ddiv>
1000455a:	9006      	str	r0, [sp, #24]
1000455c:	9107      	str	r1, [sp, #28]
1000455e:	3701      	adds	r7, #1
10004560:	4c2f      	ldr	r4, [pc, #188]	; (10004620 <_dtoa_r+0x3d0>)
10004562:	2d00      	cmp	r5, #0
10004564:	d00d      	beq.n	10004582 <_dtoa_r+0x332>
10004566:	07eb      	lsls	r3, r5, #31
10004568:	d508      	bpl.n	1000457c <_dtoa_r+0x32c>
1000456a:	9804      	ldr	r0, [sp, #16]
1000456c:	9905      	ldr	r1, [sp, #20]
1000456e:	6822      	ldr	r2, [r4, #0]
10004570:	6863      	ldr	r3, [r4, #4]
10004572:	f002 f98b 	bl	1000688c <__aeabi_dmul>
10004576:	9004      	str	r0, [sp, #16]
10004578:	9105      	str	r1, [sp, #20]
1000457a:	3701      	adds	r7, #1
1000457c:	106d      	asrs	r5, r5, #1
1000457e:	3408      	adds	r4, #8
10004580:	e7ef      	b.n	10004562 <_dtoa_r+0x312>
10004582:	9806      	ldr	r0, [sp, #24]
10004584:	9907      	ldr	r1, [sp, #28]
10004586:	9a04      	ldr	r2, [sp, #16]
10004588:	9b05      	ldr	r3, [sp, #20]
1000458a:	f001 fd41 	bl	10006010 <__aeabi_ddiv>
1000458e:	e049      	b.n	10004624 <_dtoa_r+0x3d4>
10004590:	9b03      	ldr	r3, [sp, #12]
10004592:	2702      	movs	r7, #2
10004594:	425d      	negs	r5, r3
10004596:	2d00      	cmp	r5, #0
10004598:	d046      	beq.n	10004628 <_dtoa_r+0x3d8>
1000459a:	9814      	ldr	r0, [sp, #80]	; 0x50
1000459c:	9915      	ldr	r1, [sp, #84]	; 0x54
1000459e:	230f      	movs	r3, #15
100045a0:	4a1e      	ldr	r2, [pc, #120]	; (1000461c <_dtoa_r+0x3cc>)
100045a2:	402b      	ands	r3, r5
100045a4:	00db      	lsls	r3, r3, #3
100045a6:	18d3      	adds	r3, r2, r3
100045a8:	681a      	ldr	r2, [r3, #0]
100045aa:	685b      	ldr	r3, [r3, #4]
100045ac:	f002 f96e 	bl	1000688c <__aeabi_dmul>
100045b0:	4c1b      	ldr	r4, [pc, #108]	; (10004620 <_dtoa_r+0x3d0>)
100045b2:	112d      	asrs	r5, r5, #4
100045b4:	2d00      	cmp	r5, #0
100045b6:	d035      	beq.n	10004624 <_dtoa_r+0x3d4>
100045b8:	07eb      	lsls	r3, r5, #31
100045ba:	d504      	bpl.n	100045c6 <_dtoa_r+0x376>
100045bc:	6822      	ldr	r2, [r4, #0]
100045be:	6863      	ldr	r3, [r4, #4]
100045c0:	3701      	adds	r7, #1
100045c2:	f002 f963 	bl	1000688c <__aeabi_dmul>
100045c6:	106d      	asrs	r5, r5, #1
100045c8:	3408      	adds	r4, #8
100045ca:	e7f3      	b.n	100045b4 <_dtoa_r+0x364>
100045cc:	7ff00000 	.word	0x7ff00000
100045d0:	0000270f 	.word	0x0000270f
100045d4:	10007903 	.word	0x10007903
100045d8:	100078fa 	.word	0x100078fa
100045dc:	100078d6 	.word	0x100078d6
100045e0:	100078d7 	.word	0x100078d7
100045e4:	3ff00000 	.word	0x3ff00000
100045e8:	fffffc01 	.word	0xfffffc01
100045ec:	fffffbef 	.word	0xfffffbef
100045f0:	00000412 	.word	0x00000412
100045f4:	fffffc0e 	.word	0xfffffc0e
100045f8:	fffffbee 	.word	0xfffffbee
100045fc:	fe100000 	.word	0xfe100000
10004600:	3ff80000 	.word	0x3ff80000
10004604:	636f4361 	.word	0x636f4361
10004608:	3fd287a7 	.word	0x3fd287a7
1000460c:	8b60c8b3 	.word	0x8b60c8b3
10004610:	3fc68a28 	.word	0x3fc68a28
10004614:	509f79fb 	.word	0x509f79fb
10004618:	3fd34413 	.word	0x3fd34413
1000461c:	10007910 	.word	0x10007910
10004620:	100079d8 	.word	0x100079d8
10004624:	9006      	str	r0, [sp, #24]
10004626:	9107      	str	r1, [sp, #28]
10004628:	9b13      	ldr	r3, [sp, #76]	; 0x4c
1000462a:	2b00      	cmp	r3, #0
1000462c:	d01e      	beq.n	1000466c <_dtoa_r+0x41c>
1000462e:	9c06      	ldr	r4, [sp, #24]
10004630:	9d07      	ldr	r5, [sp, #28]
10004632:	2200      	movs	r2, #0
10004634:	1c20      	adds	r0, r4, #0
10004636:	1c29      	adds	r1, r5, #0
10004638:	4bce      	ldr	r3, [pc, #824]	; (10004974 <_dtoa_r+0x724>)
1000463a:	f001 f999 	bl	10005970 <__aeabi_dcmplt>
1000463e:	2800      	cmp	r0, #0
10004640:	d014      	beq.n	1000466c <_dtoa_r+0x41c>
10004642:	9b09      	ldr	r3, [sp, #36]	; 0x24
10004644:	2b00      	cmp	r3, #0
10004646:	d011      	beq.n	1000466c <_dtoa_r+0x41c>
10004648:	9b0b      	ldr	r3, [sp, #44]	; 0x2c
1000464a:	2b00      	cmp	r3, #0
1000464c:	dc00      	bgt.n	10004650 <_dtoa_r+0x400>
1000464e:	e0e9      	b.n	10004824 <_dtoa_r+0x5d4>
10004650:	9b03      	ldr	r3, [sp, #12]
10004652:	1c29      	adds	r1, r5, #0
10004654:	3b01      	subs	r3, #1
10004656:	9311      	str	r3, [sp, #68]	; 0x44
10004658:	1c20      	adds	r0, r4, #0
1000465a:	2200      	movs	r2, #0
1000465c:	4bc6      	ldr	r3, [pc, #792]	; (10004978 <_dtoa_r+0x728>)
1000465e:	f002 f915 	bl	1000688c <__aeabi_dmul>
10004662:	3701      	adds	r7, #1
10004664:	9006      	str	r0, [sp, #24]
10004666:	9107      	str	r1, [sp, #28]
10004668:	9d0b      	ldr	r5, [sp, #44]	; 0x2c
1000466a:	e002      	b.n	10004672 <_dtoa_r+0x422>
1000466c:	9b03      	ldr	r3, [sp, #12]
1000466e:	9d09      	ldr	r5, [sp, #36]	; 0x24
10004670:	9311      	str	r3, [sp, #68]	; 0x44
10004672:	1c38      	adds	r0, r7, #0
10004674:	9b06      	ldr	r3, [sp, #24]
10004676:	9c07      	ldr	r4, [sp, #28]
10004678:	9304      	str	r3, [sp, #16]
1000467a:	9405      	str	r4, [sp, #20]
1000467c:	f002 ff50 	bl	10007520 <__aeabi_i2d>
10004680:	9a04      	ldr	r2, [sp, #16]
10004682:	9b05      	ldr	r3, [sp, #20]
10004684:	f002 f902 	bl	1000688c <__aeabi_dmul>
10004688:	2200      	movs	r2, #0
1000468a:	4bbc      	ldr	r3, [pc, #752]	; (1000497c <_dtoa_r+0x72c>)
1000468c:	f001 f998 	bl	100059c0 <__aeabi_dadd>
10004690:	9006      	str	r0, [sp, #24]
10004692:	9107      	str	r1, [sp, #28]
10004694:	9e06      	ldr	r6, [sp, #24]
10004696:	9f07      	ldr	r7, [sp, #28]
10004698:	9b07      	ldr	r3, [sp, #28]
1000469a:	4ab9      	ldr	r2, [pc, #740]	; (10004980 <_dtoa_r+0x730>)
1000469c:	189c      	adds	r4, r3, r2
1000469e:	2d00      	cmp	r5, #0
100046a0:	d11c      	bne.n	100046dc <_dtoa_r+0x48c>
100046a2:	9804      	ldr	r0, [sp, #16]
100046a4:	9905      	ldr	r1, [sp, #20]
100046a6:	2200      	movs	r2, #0
100046a8:	4bb6      	ldr	r3, [pc, #728]	; (10004984 <_dtoa_r+0x734>)
100046aa:	f002 fb89 	bl	10006dc0 <__aeabi_dsub>
100046ae:	1c32      	adds	r2, r6, #0
100046b0:	1c23      	adds	r3, r4, #0
100046b2:	9004      	str	r0, [sp, #16]
100046b4:	9105      	str	r1, [sp, #20]
100046b6:	f001 f96f 	bl	10005998 <__aeabi_dcmpgt>
100046ba:	2800      	cmp	r0, #0
100046bc:	d000      	beq.n	100046c0 <_dtoa_r+0x470>
100046be:	e263      	b.n	10004b88 <_dtoa_r+0x938>
100046c0:	9804      	ldr	r0, [sp, #16]
100046c2:	9905      	ldr	r1, [sp, #20]
100046c4:	1c32      	adds	r2, r6, #0
100046c6:	4eb0      	ldr	r6, [pc, #704]	; (10004988 <_dtoa_r+0x738>)
100046c8:	9c07      	ldr	r4, [sp, #28]
100046ca:	46b4      	mov	ip, r6
100046cc:	4464      	add	r4, ip
100046ce:	1c23      	adds	r3, r4, #0
100046d0:	f001 f94e 	bl	10005970 <__aeabi_dcmplt>
100046d4:	2800      	cmp	r0, #0
100046d6:	d000      	beq.n	100046da <_dtoa_r+0x48a>
100046d8:	e24c      	b.n	10004b74 <_dtoa_r+0x924>
100046da:	e0a3      	b.n	10004824 <_dtoa_r+0x5d4>
100046dc:	4aab      	ldr	r2, [pc, #684]	; (1000498c <_dtoa_r+0x73c>)
100046de:	1e6b      	subs	r3, r5, #1
100046e0:	9910      	ldr	r1, [sp, #64]	; 0x40
100046e2:	00db      	lsls	r3, r3, #3
100046e4:	18d3      	adds	r3, r2, r3
100046e6:	2900      	cmp	r1, #0
100046e8:	d04e      	beq.n	10004788 <_dtoa_r+0x538>
100046ea:	681a      	ldr	r2, [r3, #0]
100046ec:	685b      	ldr	r3, [r3, #4]
100046ee:	2000      	movs	r0, #0
100046f0:	49a7      	ldr	r1, [pc, #668]	; (10004990 <_dtoa_r+0x740>)
100046f2:	f001 fc8d 	bl	10006010 <__aeabi_ddiv>
100046f6:	1c32      	adds	r2, r6, #0
100046f8:	1c23      	adds	r3, r4, #0
100046fa:	f002 fb61 	bl	10006dc0 <__aeabi_dsub>
100046fe:	9e04      	ldr	r6, [sp, #16]
10004700:	9f05      	ldr	r7, [sp, #20]
10004702:	9b0c      	ldr	r3, [sp, #48]	; 0x30
10004704:	9006      	str	r0, [sp, #24]
10004706:	9107      	str	r1, [sp, #28]
10004708:	9304      	str	r3, [sp, #16]
1000470a:	1c39      	adds	r1, r7, #0
1000470c:	1c30      	adds	r0, r6, #0
1000470e:	f002 fed1 	bl	100074b4 <__aeabi_d2iz>
10004712:	1c04      	adds	r4, r0, #0
10004714:	f002 ff04 	bl	10007520 <__aeabi_i2d>
10004718:	1c02      	adds	r2, r0, #0
1000471a:	1c0b      	adds	r3, r1, #0
1000471c:	1c30      	adds	r0, r6, #0
1000471e:	1c39      	adds	r1, r7, #0
10004720:	f002 fb4e 	bl	10006dc0 <__aeabi_dsub>
10004724:	9b04      	ldr	r3, [sp, #16]
10004726:	3430      	adds	r4, #48	; 0x30
10004728:	3301      	adds	r3, #1
1000472a:	9304      	str	r3, [sp, #16]
1000472c:	3b01      	subs	r3, #1
1000472e:	701c      	strb	r4, [r3, #0]
10004730:	9a06      	ldr	r2, [sp, #24]
10004732:	9b07      	ldr	r3, [sp, #28]
10004734:	1c06      	adds	r6, r0, #0
10004736:	1c0f      	adds	r7, r1, #0
10004738:	f001 f91a 	bl	10005970 <__aeabi_dcmplt>
1000473c:	2800      	cmp	r0, #0
1000473e:	d000      	beq.n	10004742 <_dtoa_r+0x4f2>
10004740:	e361      	b.n	10004e06 <_dtoa_r+0xbb6>
10004742:	1c32      	adds	r2, r6, #0
10004744:	1c3b      	adds	r3, r7, #0
10004746:	2000      	movs	r0, #0
10004748:	498a      	ldr	r1, [pc, #552]	; (10004974 <_dtoa_r+0x724>)
1000474a:	f002 fb39 	bl	10006dc0 <__aeabi_dsub>
1000474e:	9a06      	ldr	r2, [sp, #24]
10004750:	9b07      	ldr	r3, [sp, #28]
10004752:	f001 f90d 	bl	10005970 <__aeabi_dcmplt>
10004756:	2800      	cmp	r0, #0
10004758:	d000      	beq.n	1000475c <_dtoa_r+0x50c>
1000475a:	e0cd      	b.n	100048f8 <_dtoa_r+0x6a8>
1000475c:	9b04      	ldr	r3, [sp, #16]
1000475e:	9a0c      	ldr	r2, [sp, #48]	; 0x30
10004760:	1a9b      	subs	r3, r3, r2
10004762:	42ab      	cmp	r3, r5
10004764:	da5e      	bge.n	10004824 <_dtoa_r+0x5d4>
10004766:	9806      	ldr	r0, [sp, #24]
10004768:	9907      	ldr	r1, [sp, #28]
1000476a:	2200      	movs	r2, #0
1000476c:	4b82      	ldr	r3, [pc, #520]	; (10004978 <_dtoa_r+0x728>)
1000476e:	f002 f88d 	bl	1000688c <__aeabi_dmul>
10004772:	2200      	movs	r2, #0
10004774:	9006      	str	r0, [sp, #24]
10004776:	9107      	str	r1, [sp, #28]
10004778:	4b7f      	ldr	r3, [pc, #508]	; (10004978 <_dtoa_r+0x728>)
1000477a:	1c30      	adds	r0, r6, #0
1000477c:	1c39      	adds	r1, r7, #0
1000477e:	f002 f885 	bl	1000688c <__aeabi_dmul>
10004782:	1c06      	adds	r6, r0, #0
10004784:	1c0f      	adds	r7, r1, #0
10004786:	e7c0      	b.n	1000470a <_dtoa_r+0x4ba>
10004788:	6818      	ldr	r0, [r3, #0]
1000478a:	6859      	ldr	r1, [r3, #4]
1000478c:	1c32      	adds	r2, r6, #0
1000478e:	1c23      	adds	r3, r4, #0
10004790:	f002 f87c 	bl	1000688c <__aeabi_dmul>
10004794:	9e04      	ldr	r6, [sp, #16]
10004796:	9f05      	ldr	r7, [sp, #20]
10004798:	9c0c      	ldr	r4, [sp, #48]	; 0x30
1000479a:	9006      	str	r0, [sp, #24]
1000479c:	9107      	str	r1, [sp, #28]
1000479e:	1963      	adds	r3, r4, r5
100047a0:	9304      	str	r3, [sp, #16]
100047a2:	1c39      	adds	r1, r7, #0
100047a4:	1c30      	adds	r0, r6, #0
100047a6:	f002 fe85 	bl	100074b4 <__aeabi_d2iz>
100047aa:	1c05      	adds	r5, r0, #0
100047ac:	f002 feb8 	bl	10007520 <__aeabi_i2d>
100047b0:	1c0b      	adds	r3, r1, #0
100047b2:	1c02      	adds	r2, r0, #0
100047b4:	1c39      	adds	r1, r7, #0
100047b6:	1c30      	adds	r0, r6, #0
100047b8:	f002 fb02 	bl	10006dc0 <__aeabi_dsub>
100047bc:	3530      	adds	r5, #48	; 0x30
100047be:	9b04      	ldr	r3, [sp, #16]
100047c0:	7025      	strb	r5, [r4, #0]
100047c2:	3401      	adds	r4, #1
100047c4:	1c06      	adds	r6, r0, #0
100047c6:	1c0f      	adds	r7, r1, #0
100047c8:	42a3      	cmp	r3, r4
100047ca:	d124      	bne.n	10004816 <_dtoa_r+0x5c6>
100047cc:	2200      	movs	r2, #0
100047ce:	9806      	ldr	r0, [sp, #24]
100047d0:	9907      	ldr	r1, [sp, #28]
100047d2:	4b6f      	ldr	r3, [pc, #444]	; (10004990 <_dtoa_r+0x740>)
100047d4:	f001 f8f4 	bl	100059c0 <__aeabi_dadd>
100047d8:	1c02      	adds	r2, r0, #0
100047da:	1c0b      	adds	r3, r1, #0
100047dc:	1c30      	adds	r0, r6, #0
100047de:	1c39      	adds	r1, r7, #0
100047e0:	f001 f8da 	bl	10005998 <__aeabi_dcmpgt>
100047e4:	2800      	cmp	r0, #0
100047e6:	d000      	beq.n	100047ea <_dtoa_r+0x59a>
100047e8:	e086      	b.n	100048f8 <_dtoa_r+0x6a8>
100047ea:	9a06      	ldr	r2, [sp, #24]
100047ec:	9b07      	ldr	r3, [sp, #28]
100047ee:	2000      	movs	r0, #0
100047f0:	4967      	ldr	r1, [pc, #412]	; (10004990 <_dtoa_r+0x740>)
100047f2:	f002 fae5 	bl	10006dc0 <__aeabi_dsub>
100047f6:	1c02      	adds	r2, r0, #0
100047f8:	1c0b      	adds	r3, r1, #0
100047fa:	1c30      	adds	r0, r6, #0
100047fc:	1c39      	adds	r1, r7, #0
100047fe:	f001 f8b7 	bl	10005970 <__aeabi_dcmplt>
10004802:	2800      	cmp	r0, #0
10004804:	d00e      	beq.n	10004824 <_dtoa_r+0x5d4>
10004806:	9b04      	ldr	r3, [sp, #16]
10004808:	3b01      	subs	r3, #1
1000480a:	781a      	ldrb	r2, [r3, #0]
1000480c:	2a30      	cmp	r2, #48	; 0x30
1000480e:	d000      	beq.n	10004812 <_dtoa_r+0x5c2>
10004810:	e2f9      	b.n	10004e06 <_dtoa_r+0xbb6>
10004812:	9304      	str	r3, [sp, #16]
10004814:	e7f7      	b.n	10004806 <_dtoa_r+0x5b6>
10004816:	2200      	movs	r2, #0
10004818:	4b57      	ldr	r3, [pc, #348]	; (10004978 <_dtoa_r+0x728>)
1000481a:	f002 f837 	bl	1000688c <__aeabi_dmul>
1000481e:	1c06      	adds	r6, r0, #0
10004820:	1c0f      	adds	r7, r1, #0
10004822:	e7be      	b.n	100047a2 <_dtoa_r+0x552>
10004824:	9b14      	ldr	r3, [sp, #80]	; 0x50
10004826:	9c15      	ldr	r4, [sp, #84]	; 0x54
10004828:	9306      	str	r3, [sp, #24]
1000482a:	9407      	str	r4, [sp, #28]
1000482c:	9b19      	ldr	r3, [sp, #100]	; 0x64
1000482e:	2b00      	cmp	r3, #0
10004830:	da00      	bge.n	10004834 <_dtoa_r+0x5e4>
10004832:	e086      	b.n	10004942 <_dtoa_r+0x6f2>
10004834:	9a03      	ldr	r2, [sp, #12]
10004836:	2a0e      	cmp	r2, #14
10004838:	dd00      	ble.n	1000483c <_dtoa_r+0x5ec>
1000483a:	e082      	b.n	10004942 <_dtoa_r+0x6f2>
1000483c:	00d3      	lsls	r3, r2, #3
1000483e:	4a53      	ldr	r2, [pc, #332]	; (1000498c <_dtoa_r+0x73c>)
10004840:	18d3      	adds	r3, r2, r3
10004842:	681e      	ldr	r6, [r3, #0]
10004844:	685f      	ldr	r7, [r3, #4]
10004846:	9b21      	ldr	r3, [sp, #132]	; 0x84
10004848:	2b00      	cmp	r3, #0
1000484a:	da14      	bge.n	10004876 <_dtoa_r+0x626>
1000484c:	9b09      	ldr	r3, [sp, #36]	; 0x24
1000484e:	2b00      	cmp	r3, #0
10004850:	dc11      	bgt.n	10004876 <_dtoa_r+0x626>
10004852:	d000      	beq.n	10004856 <_dtoa_r+0x606>
10004854:	e190      	b.n	10004b78 <_dtoa_r+0x928>
10004856:	1c30      	adds	r0, r6, #0
10004858:	1c39      	adds	r1, r7, #0
1000485a:	2200      	movs	r2, #0
1000485c:	4b49      	ldr	r3, [pc, #292]	; (10004984 <_dtoa_r+0x734>)
1000485e:	f002 f815 	bl	1000688c <__aeabi_dmul>
10004862:	9a06      	ldr	r2, [sp, #24]
10004864:	9b07      	ldr	r3, [sp, #28]
10004866:	f001 f8a1 	bl	100059ac <__aeabi_dcmpge>
1000486a:	9f09      	ldr	r7, [sp, #36]	; 0x24
1000486c:	1c3e      	adds	r6, r7, #0
1000486e:	2800      	cmp	r0, #0
10004870:	d000      	beq.n	10004874 <_dtoa_r+0x624>
10004872:	e183      	b.n	10004b7c <_dtoa_r+0x92c>
10004874:	e18c      	b.n	10004b90 <_dtoa_r+0x940>
10004876:	9b0c      	ldr	r3, [sp, #48]	; 0x30
10004878:	9c06      	ldr	r4, [sp, #24]
1000487a:	9d07      	ldr	r5, [sp, #28]
1000487c:	9304      	str	r3, [sp, #16]
1000487e:	1c32      	adds	r2, r6, #0
10004880:	1c3b      	adds	r3, r7, #0
10004882:	1c20      	adds	r0, r4, #0
10004884:	1c29      	adds	r1, r5, #0
10004886:	f001 fbc3 	bl	10006010 <__aeabi_ddiv>
1000488a:	f002 fe13 	bl	100074b4 <__aeabi_d2iz>
1000488e:	9006      	str	r0, [sp, #24]
10004890:	f002 fe46 	bl	10007520 <__aeabi_i2d>
10004894:	1c32      	adds	r2, r6, #0
10004896:	1c3b      	adds	r3, r7, #0
10004898:	f001 fff8 	bl	1000688c <__aeabi_dmul>
1000489c:	1c02      	adds	r2, r0, #0
1000489e:	1c0b      	adds	r3, r1, #0
100048a0:	1c20      	adds	r0, r4, #0
100048a2:	1c29      	adds	r1, r5, #0
100048a4:	f002 fa8c 	bl	10006dc0 <__aeabi_dsub>
100048a8:	1c0b      	adds	r3, r1, #0
100048aa:	9904      	ldr	r1, [sp, #16]
100048ac:	1c02      	adds	r2, r0, #0
100048ae:	9806      	ldr	r0, [sp, #24]
100048b0:	3101      	adds	r1, #1
100048b2:	9104      	str	r1, [sp, #16]
100048b4:	3030      	adds	r0, #48	; 0x30
100048b6:	3901      	subs	r1, #1
100048b8:	7008      	strb	r0, [r1, #0]
100048ba:	980c      	ldr	r0, [sp, #48]	; 0x30
100048bc:	9904      	ldr	r1, [sp, #16]
100048be:	1a09      	subs	r1, r1, r0
100048c0:	9809      	ldr	r0, [sp, #36]	; 0x24
100048c2:	4281      	cmp	r1, r0
100048c4:	d12e      	bne.n	10004924 <_dtoa_r+0x6d4>
100048c6:	1c10      	adds	r0, r2, #0
100048c8:	1c19      	adds	r1, r3, #0
100048ca:	f001 f879 	bl	100059c0 <__aeabi_dadd>
100048ce:	1c32      	adds	r2, r6, #0
100048d0:	1c3b      	adds	r3, r7, #0
100048d2:	1c04      	adds	r4, r0, #0
100048d4:	1c0d      	adds	r5, r1, #0
100048d6:	f001 f85f 	bl	10005998 <__aeabi_dcmpgt>
100048da:	2800      	cmp	r0, #0
100048dc:	d110      	bne.n	10004900 <_dtoa_r+0x6b0>
100048de:	1c20      	adds	r0, r4, #0
100048e0:	1c29      	adds	r1, r5, #0
100048e2:	1c32      	adds	r2, r6, #0
100048e4:	1c3b      	adds	r3, r7, #0
100048e6:	f001 f83d 	bl	10005964 <__aeabi_dcmpeq>
100048ea:	2800      	cmp	r0, #0
100048ec:	d100      	bne.n	100048f0 <_dtoa_r+0x6a0>
100048ee:	e28c      	b.n	10004e0a <_dtoa_r+0xbba>
100048f0:	9b06      	ldr	r3, [sp, #24]
100048f2:	07db      	lsls	r3, r3, #31
100048f4:	d404      	bmi.n	10004900 <_dtoa_r+0x6b0>
100048f6:	e288      	b.n	10004e0a <_dtoa_r+0xbba>
100048f8:	9b11      	ldr	r3, [sp, #68]	; 0x44
100048fa:	9303      	str	r3, [sp, #12]
100048fc:	e000      	b.n	10004900 <_dtoa_r+0x6b0>
100048fe:	9304      	str	r3, [sp, #16]
10004900:	9b04      	ldr	r3, [sp, #16]
10004902:	3b01      	subs	r3, #1
10004904:	781a      	ldrb	r2, [r3, #0]
10004906:	2a39      	cmp	r2, #57	; 0x39
10004908:	d108      	bne.n	1000491c <_dtoa_r+0x6cc>
1000490a:	9a0c      	ldr	r2, [sp, #48]	; 0x30
1000490c:	4293      	cmp	r3, r2
1000490e:	d1f6      	bne.n	100048fe <_dtoa_r+0x6ae>
10004910:	9b03      	ldr	r3, [sp, #12]
10004912:	3301      	adds	r3, #1
10004914:	9303      	str	r3, [sp, #12]
10004916:	2330      	movs	r3, #48	; 0x30
10004918:	7013      	strb	r3, [r2, #0]
1000491a:	1c13      	adds	r3, r2, #0
1000491c:	781a      	ldrb	r2, [r3, #0]
1000491e:	3201      	adds	r2, #1
10004920:	701a      	strb	r2, [r3, #0]
10004922:	e272      	b.n	10004e0a <_dtoa_r+0xbba>
10004924:	1c10      	adds	r0, r2, #0
10004926:	1c19      	adds	r1, r3, #0
10004928:	2200      	movs	r2, #0
1000492a:	4b13      	ldr	r3, [pc, #76]	; (10004978 <_dtoa_r+0x728>)
1000492c:	f001 ffae 	bl	1000688c <__aeabi_dmul>
10004930:	2200      	movs	r2, #0
10004932:	2300      	movs	r3, #0
10004934:	1c04      	adds	r4, r0, #0
10004936:	1c0d      	adds	r5, r1, #0
10004938:	f001 f814 	bl	10005964 <__aeabi_dcmpeq>
1000493c:	2800      	cmp	r0, #0
1000493e:	d09e      	beq.n	1000487e <_dtoa_r+0x62e>
10004940:	e263      	b.n	10004e0a <_dtoa_r+0xbba>
10004942:	9a10      	ldr	r2, [sp, #64]	; 0x40
10004944:	2a00      	cmp	r2, #0
10004946:	d044      	beq.n	100049d2 <_dtoa_r+0x782>
10004948:	9a20      	ldr	r2, [sp, #128]	; 0x80
1000494a:	2a01      	cmp	r2, #1
1000494c:	dc0b      	bgt.n	10004966 <_dtoa_r+0x716>
1000494e:	9a16      	ldr	r2, [sp, #88]	; 0x58
10004950:	2a00      	cmp	r2, #0
10004952:	d002      	beq.n	1000495a <_dtoa_r+0x70a>
10004954:	4a0f      	ldr	r2, [pc, #60]	; (10004994 <_dtoa_r+0x744>)
10004956:	189b      	adds	r3, r3, r2
10004958:	e002      	b.n	10004960 <_dtoa_r+0x710>
1000495a:	2336      	movs	r3, #54	; 0x36
1000495c:	9a18      	ldr	r2, [sp, #96]	; 0x60
1000495e:	1a9b      	subs	r3, r3, r2
10004960:	9d0f      	ldr	r5, [sp, #60]	; 0x3c
10004962:	9c0d      	ldr	r4, [sp, #52]	; 0x34
10004964:	e029      	b.n	100049ba <_dtoa_r+0x76a>
10004966:	9b09      	ldr	r3, [sp, #36]	; 0x24
10004968:	1e5d      	subs	r5, r3, #1
1000496a:	9b0f      	ldr	r3, [sp, #60]	; 0x3c
1000496c:	42ab      	cmp	r3, r5
1000496e:	db13      	blt.n	10004998 <_dtoa_r+0x748>
10004970:	1b5d      	subs	r5, r3, r5
10004972:	e018      	b.n	100049a6 <_dtoa_r+0x756>
10004974:	3ff00000 	.word	0x3ff00000
10004978:	40240000 	.word	0x40240000
1000497c:	401c0000 	.word	0x401c0000
10004980:	fcc00000 	.word	0xfcc00000
10004984:	40140000 	.word	0x40140000
10004988:	7cc00000 	.word	0x7cc00000
1000498c:	10007910 	.word	0x10007910
10004990:	3fe00000 	.word	0x3fe00000
10004994:	00000433 	.word	0x00000433
10004998:	9b0f      	ldr	r3, [sp, #60]	; 0x3c
1000499a:	950f      	str	r5, [sp, #60]	; 0x3c
1000499c:	1aea      	subs	r2, r5, r3
1000499e:	2500      	movs	r5, #0
100049a0:	9b12      	ldr	r3, [sp, #72]	; 0x48
100049a2:	189b      	adds	r3, r3, r2
100049a4:	9312      	str	r3, [sp, #72]	; 0x48
100049a6:	9b09      	ldr	r3, [sp, #36]	; 0x24
100049a8:	2b00      	cmp	r3, #0
100049aa:	da04      	bge.n	100049b6 <_dtoa_r+0x766>
100049ac:	9b0d      	ldr	r3, [sp, #52]	; 0x34
100049ae:	9a09      	ldr	r2, [sp, #36]	; 0x24
100049b0:	1a9c      	subs	r4, r3, r2
100049b2:	2300      	movs	r3, #0
100049b4:	e001      	b.n	100049ba <_dtoa_r+0x76a>
100049b6:	9c0d      	ldr	r4, [sp, #52]	; 0x34
100049b8:	9b09      	ldr	r3, [sp, #36]	; 0x24
100049ba:	9a0d      	ldr	r2, [sp, #52]	; 0x34
100049bc:	9808      	ldr	r0, [sp, #32]
100049be:	18d2      	adds	r2, r2, r3
100049c0:	920d      	str	r2, [sp, #52]	; 0x34
100049c2:	9a0e      	ldr	r2, [sp, #56]	; 0x38
100049c4:	2101      	movs	r1, #1
100049c6:	18d3      	adds	r3, r2, r3
100049c8:	930e      	str	r3, [sp, #56]	; 0x38
100049ca:	f000 fb3a 	bl	10005042 <__i2b>
100049ce:	1c06      	adds	r6, r0, #0
100049d0:	e002      	b.n	100049d8 <_dtoa_r+0x788>
100049d2:	9d0f      	ldr	r5, [sp, #60]	; 0x3c
100049d4:	9c0d      	ldr	r4, [sp, #52]	; 0x34
100049d6:	9e10      	ldr	r6, [sp, #64]	; 0x40
100049d8:	2c00      	cmp	r4, #0
100049da:	d00c      	beq.n	100049f6 <_dtoa_r+0x7a6>
100049dc:	9b0e      	ldr	r3, [sp, #56]	; 0x38
100049de:	2b00      	cmp	r3, #0
100049e0:	dd09      	ble.n	100049f6 <_dtoa_r+0x7a6>
100049e2:	42a3      	cmp	r3, r4
100049e4:	dd00      	ble.n	100049e8 <_dtoa_r+0x798>
100049e6:	1c23      	adds	r3, r4, #0
100049e8:	9a0d      	ldr	r2, [sp, #52]	; 0x34
100049ea:	1ae4      	subs	r4, r4, r3
100049ec:	1ad2      	subs	r2, r2, r3
100049ee:	920d      	str	r2, [sp, #52]	; 0x34
100049f0:	9a0e      	ldr	r2, [sp, #56]	; 0x38
100049f2:	1ad3      	subs	r3, r2, r3
100049f4:	930e      	str	r3, [sp, #56]	; 0x38
100049f6:	9b0f      	ldr	r3, [sp, #60]	; 0x3c
100049f8:	2b00      	cmp	r3, #0
100049fa:	dd21      	ble.n	10004a40 <_dtoa_r+0x7f0>
100049fc:	9b10      	ldr	r3, [sp, #64]	; 0x40
100049fe:	2b00      	cmp	r3, #0
10004a00:	d018      	beq.n	10004a34 <_dtoa_r+0x7e4>
10004a02:	2d00      	cmp	r5, #0
10004a04:	dd10      	ble.n	10004a28 <_dtoa_r+0x7d8>
10004a06:	1c31      	adds	r1, r6, #0
10004a08:	1c2a      	adds	r2, r5, #0
10004a0a:	9808      	ldr	r0, [sp, #32]
10004a0c:	f000 fbb0 	bl	10005170 <__pow5mult>
10004a10:	1c06      	adds	r6, r0, #0
10004a12:	9a0a      	ldr	r2, [sp, #40]	; 0x28
10004a14:	1c31      	adds	r1, r6, #0
10004a16:	9808      	ldr	r0, [sp, #32]
10004a18:	f000 fb1c 	bl	10005054 <__multiply>
10004a1c:	1c07      	adds	r7, r0, #0
10004a1e:	990a      	ldr	r1, [sp, #40]	; 0x28
10004a20:	9808      	ldr	r0, [sp, #32]
10004a22:	f000 fa6f 	bl	10004f04 <_Bfree>
10004a26:	970a      	str	r7, [sp, #40]	; 0x28
10004a28:	9b0f      	ldr	r3, [sp, #60]	; 0x3c
10004a2a:	1b5a      	subs	r2, r3, r5
10004a2c:	d008      	beq.n	10004a40 <_dtoa_r+0x7f0>
10004a2e:	9808      	ldr	r0, [sp, #32]
10004a30:	990a      	ldr	r1, [sp, #40]	; 0x28
10004a32:	e002      	b.n	10004a3a <_dtoa_r+0x7ea>
10004a34:	9808      	ldr	r0, [sp, #32]
10004a36:	990a      	ldr	r1, [sp, #40]	; 0x28
10004a38:	9a0f      	ldr	r2, [sp, #60]	; 0x3c
10004a3a:	f000 fb99 	bl	10005170 <__pow5mult>
10004a3e:	900a      	str	r0, [sp, #40]	; 0x28
10004a40:	9808      	ldr	r0, [sp, #32]
10004a42:	2101      	movs	r1, #1
10004a44:	f000 fafd 	bl	10005042 <__i2b>
10004a48:	9b12      	ldr	r3, [sp, #72]	; 0x48
10004a4a:	1c07      	adds	r7, r0, #0
10004a4c:	2b00      	cmp	r3, #0
10004a4e:	dd0a      	ble.n	10004a66 <_dtoa_r+0x816>
10004a50:	1c39      	adds	r1, r7, #0
10004a52:	1c1a      	adds	r2, r3, #0
10004a54:	9808      	ldr	r0, [sp, #32]
10004a56:	f000 fb8b 	bl	10005170 <__pow5mult>
10004a5a:	9b20      	ldr	r3, [sp, #128]	; 0x80
10004a5c:	1c07      	adds	r7, r0, #0
10004a5e:	2500      	movs	r5, #0
10004a60:	2b01      	cmp	r3, #1
10004a62:	dc1b      	bgt.n	10004a9c <_dtoa_r+0x84c>
10004a64:	e003      	b.n	10004a6e <_dtoa_r+0x81e>
10004a66:	9b20      	ldr	r3, [sp, #128]	; 0x80
10004a68:	2500      	movs	r5, #0
10004a6a:	2b01      	cmp	r3, #1
10004a6c:	dc12      	bgt.n	10004a94 <_dtoa_r+0x844>
10004a6e:	2500      	movs	r5, #0
10004a70:	9b06      	ldr	r3, [sp, #24]
10004a72:	42ab      	cmp	r3, r5
10004a74:	d10e      	bne.n	10004a94 <_dtoa_r+0x844>
10004a76:	9b07      	ldr	r3, [sp, #28]
10004a78:	031b      	lsls	r3, r3, #12
10004a7a:	42ab      	cmp	r3, r5
10004a7c:	d10a      	bne.n	10004a94 <_dtoa_r+0x844>
10004a7e:	9b17      	ldr	r3, [sp, #92]	; 0x5c
10004a80:	9a07      	ldr	r2, [sp, #28]
10004a82:	4213      	tst	r3, r2
10004a84:	d006      	beq.n	10004a94 <_dtoa_r+0x844>
10004a86:	9b0d      	ldr	r3, [sp, #52]	; 0x34
10004a88:	3501      	adds	r5, #1
10004a8a:	3301      	adds	r3, #1
10004a8c:	930d      	str	r3, [sp, #52]	; 0x34
10004a8e:	9b0e      	ldr	r3, [sp, #56]	; 0x38
10004a90:	3301      	adds	r3, #1
10004a92:	930e      	str	r3, [sp, #56]	; 0x38
10004a94:	9b12      	ldr	r3, [sp, #72]	; 0x48
10004a96:	2001      	movs	r0, #1
10004a98:	2b00      	cmp	r3, #0
10004a9a:	d008      	beq.n	10004aae <_dtoa_r+0x85e>
10004a9c:	693b      	ldr	r3, [r7, #16]
10004a9e:	3303      	adds	r3, #3
10004aa0:	009b      	lsls	r3, r3, #2
10004aa2:	18fb      	adds	r3, r7, r3
10004aa4:	6858      	ldr	r0, [r3, #4]
10004aa6:	f000 fa82 	bl	10004fae <__hi0bits>
10004aaa:	2320      	movs	r3, #32
10004aac:	1a18      	subs	r0, r3, r0
10004aae:	9b0e      	ldr	r3, [sp, #56]	; 0x38
10004ab0:	18c0      	adds	r0, r0, r3
10004ab2:	231f      	movs	r3, #31
10004ab4:	4018      	ands	r0, r3
10004ab6:	d009      	beq.n	10004acc <_dtoa_r+0x87c>
10004ab8:	3301      	adds	r3, #1
10004aba:	1a1b      	subs	r3, r3, r0
10004abc:	2b04      	cmp	r3, #4
10004abe:	dd02      	ble.n	10004ac6 <_dtoa_r+0x876>
10004ac0:	231c      	movs	r3, #28
10004ac2:	1a18      	subs	r0, r3, r0
10004ac4:	e003      	b.n	10004ace <_dtoa_r+0x87e>
10004ac6:	2b04      	cmp	r3, #4
10004ac8:	d008      	beq.n	10004adc <_dtoa_r+0x88c>
10004aca:	1c18      	adds	r0, r3, #0
10004acc:	301c      	adds	r0, #28
10004ace:	9b0d      	ldr	r3, [sp, #52]	; 0x34
10004ad0:	1824      	adds	r4, r4, r0
10004ad2:	181b      	adds	r3, r3, r0
10004ad4:	930d      	str	r3, [sp, #52]	; 0x34
10004ad6:	9b0e      	ldr	r3, [sp, #56]	; 0x38
10004ad8:	181b      	adds	r3, r3, r0
10004ada:	930e      	str	r3, [sp, #56]	; 0x38
10004adc:	9b0d      	ldr	r3, [sp, #52]	; 0x34
10004ade:	2b00      	cmp	r3, #0
10004ae0:	dd05      	ble.n	10004aee <_dtoa_r+0x89e>
10004ae2:	9808      	ldr	r0, [sp, #32]
10004ae4:	990a      	ldr	r1, [sp, #40]	; 0x28
10004ae6:	1c1a      	adds	r2, r3, #0
10004ae8:	f000 fb94 	bl	10005214 <__lshift>
10004aec:	900a      	str	r0, [sp, #40]	; 0x28
10004aee:	9b0e      	ldr	r3, [sp, #56]	; 0x38
10004af0:	2b00      	cmp	r3, #0
10004af2:	dd05      	ble.n	10004b00 <_dtoa_r+0x8b0>
10004af4:	1c39      	adds	r1, r7, #0
10004af6:	9808      	ldr	r0, [sp, #32]
10004af8:	1c1a      	adds	r2, r3, #0
10004afa:	f000 fb8b 	bl	10005214 <__lshift>
10004afe:	1c07      	adds	r7, r0, #0
10004b00:	9b13      	ldr	r3, [sp, #76]	; 0x4c
10004b02:	2b00      	cmp	r3, #0
10004b04:	d01e      	beq.n	10004b44 <_dtoa_r+0x8f4>
10004b06:	980a      	ldr	r0, [sp, #40]	; 0x28
10004b08:	1c39      	adds	r1, r7, #0
10004b0a:	f000 fbd5 	bl	100052b8 <__mcmp>
10004b0e:	2800      	cmp	r0, #0
10004b10:	da18      	bge.n	10004b44 <_dtoa_r+0x8f4>
10004b12:	9b03      	ldr	r3, [sp, #12]
10004b14:	9808      	ldr	r0, [sp, #32]
10004b16:	3b01      	subs	r3, #1
10004b18:	9303      	str	r3, [sp, #12]
10004b1a:	990a      	ldr	r1, [sp, #40]	; 0x28
10004b1c:	2300      	movs	r3, #0
10004b1e:	220a      	movs	r2, #10
10004b20:	f000 fa09 	bl	10004f36 <__multadd>
10004b24:	9b10      	ldr	r3, [sp, #64]	; 0x40
10004b26:	900a      	str	r0, [sp, #40]	; 0x28
10004b28:	2b00      	cmp	r3, #0
10004b2a:	d100      	bne.n	10004b2e <_dtoa_r+0x8de>
10004b2c:	e17f      	b.n	10004e2e <_dtoa_r+0xbde>
10004b2e:	1c31      	adds	r1, r6, #0
10004b30:	2300      	movs	r3, #0
10004b32:	9808      	ldr	r0, [sp, #32]
10004b34:	220a      	movs	r2, #10
10004b36:	f000 f9fe 	bl	10004f36 <__multadd>
10004b3a:	9b0b      	ldr	r3, [sp, #44]	; 0x2c
10004b3c:	1c06      	adds	r6, r0, #0
10004b3e:	2b00      	cmp	r3, #0
10004b40:	dc3c      	bgt.n	10004bbc <_dtoa_r+0x96c>
10004b42:	e17d      	b.n	10004e40 <_dtoa_r+0xbf0>
10004b44:	9b09      	ldr	r3, [sp, #36]	; 0x24
10004b46:	2b00      	cmp	r3, #0
10004b48:	dc2e      	bgt.n	10004ba8 <_dtoa_r+0x958>
10004b4a:	9b20      	ldr	r3, [sp, #128]	; 0x80
10004b4c:	2b02      	cmp	r3, #2
10004b4e:	dd2b      	ble.n	10004ba8 <_dtoa_r+0x958>
10004b50:	9b09      	ldr	r3, [sp, #36]	; 0x24
10004b52:	930b      	str	r3, [sp, #44]	; 0x2c
10004b54:	9b0b      	ldr	r3, [sp, #44]	; 0x2c
10004b56:	2b00      	cmp	r3, #0
10004b58:	d110      	bne.n	10004b7c <_dtoa_r+0x92c>
10004b5a:	1c39      	adds	r1, r7, #0
10004b5c:	9808      	ldr	r0, [sp, #32]
10004b5e:	2205      	movs	r2, #5
10004b60:	f000 f9e9 	bl	10004f36 <__multadd>
10004b64:	1c07      	adds	r7, r0, #0
10004b66:	980a      	ldr	r0, [sp, #40]	; 0x28
10004b68:	1c39      	adds	r1, r7, #0
10004b6a:	f000 fba5 	bl	100052b8 <__mcmp>
10004b6e:	2800      	cmp	r0, #0
10004b70:	dc0e      	bgt.n	10004b90 <_dtoa_r+0x940>
10004b72:	e003      	b.n	10004b7c <_dtoa_r+0x92c>
10004b74:	1c2f      	adds	r7, r5, #0
10004b76:	e000      	b.n	10004b7a <_dtoa_r+0x92a>
10004b78:	2700      	movs	r7, #0
10004b7a:	1c3e      	adds	r6, r7, #0
10004b7c:	9b21      	ldr	r3, [sp, #132]	; 0x84
10004b7e:	43db      	mvns	r3, r3
10004b80:	9303      	str	r3, [sp, #12]
10004b82:	9b0c      	ldr	r3, [sp, #48]	; 0x30
10004b84:	9304      	str	r3, [sp, #16]
10004b86:	e00c      	b.n	10004ba2 <_dtoa_r+0x952>
10004b88:	1c2f      	adds	r7, r5, #0
10004b8a:	1c2e      	adds	r6, r5, #0
10004b8c:	9b11      	ldr	r3, [sp, #68]	; 0x44
10004b8e:	9303      	str	r3, [sp, #12]
10004b90:	9b0c      	ldr	r3, [sp, #48]	; 0x30
10004b92:	9a0c      	ldr	r2, [sp, #48]	; 0x30
10004b94:	3301      	adds	r3, #1
10004b96:	9304      	str	r3, [sp, #16]
10004b98:	2331      	movs	r3, #49	; 0x31
10004b9a:	7013      	strb	r3, [r2, #0]
10004b9c:	9b03      	ldr	r3, [sp, #12]
10004b9e:	3301      	adds	r3, #1
10004ba0:	9303      	str	r3, [sp, #12]
10004ba2:	9609      	str	r6, [sp, #36]	; 0x24
10004ba4:	2600      	movs	r6, #0
10004ba6:	e11a      	b.n	10004dde <_dtoa_r+0xb8e>
10004ba8:	9b10      	ldr	r3, [sp, #64]	; 0x40
10004baa:	2b00      	cmp	r3, #0
10004bac:	d104      	bne.n	10004bb8 <_dtoa_r+0x968>
10004bae:	9b09      	ldr	r3, [sp, #36]	; 0x24
10004bb0:	930b      	str	r3, [sp, #44]	; 0x2c
10004bb2:	9d0c      	ldr	r5, [sp, #48]	; 0x30
10004bb4:	9c0a      	ldr	r4, [sp, #40]	; 0x28
10004bb6:	e0d0      	b.n	10004d5a <_dtoa_r+0xb0a>
10004bb8:	9b09      	ldr	r3, [sp, #36]	; 0x24
10004bba:	930b      	str	r3, [sp, #44]	; 0x2c
10004bbc:	2c00      	cmp	r4, #0
10004bbe:	dd05      	ble.n	10004bcc <_dtoa_r+0x97c>
10004bc0:	1c31      	adds	r1, r6, #0
10004bc2:	9808      	ldr	r0, [sp, #32]
10004bc4:	1c22      	adds	r2, r4, #0
10004bc6:	f000 fb25 	bl	10005214 <__lshift>
10004bca:	1c06      	adds	r6, r0, #0
10004bcc:	9609      	str	r6, [sp, #36]	; 0x24
10004bce:	2d00      	cmp	r5, #0
10004bd0:	d012      	beq.n	10004bf8 <_dtoa_r+0x9a8>
10004bd2:	6871      	ldr	r1, [r6, #4]
10004bd4:	9808      	ldr	r0, [sp, #32]
10004bd6:	f000 f95d 	bl	10004e94 <_Balloc>
10004bda:	1c31      	adds	r1, r6, #0
10004bdc:	1c04      	adds	r4, r0, #0
10004bde:	6933      	ldr	r3, [r6, #16]
10004be0:	310c      	adds	r1, #12
10004be2:	1c9a      	adds	r2, r3, #2
10004be4:	0092      	lsls	r2, r2, #2
10004be6:	300c      	adds	r0, #12
10004be8:	f000 f94b 	bl	10004e82 <memcpy>
10004bec:	9808      	ldr	r0, [sp, #32]
10004bee:	1c21      	adds	r1, r4, #0
10004bf0:	2201      	movs	r2, #1
10004bf2:	f000 fb0f 	bl	10005214 <__lshift>
10004bf6:	9009      	str	r0, [sp, #36]	; 0x24
10004bf8:	9b0c      	ldr	r3, [sp, #48]	; 0x30
10004bfa:	9a0c      	ldr	r2, [sp, #48]	; 0x30
10004bfc:	930e      	str	r3, [sp, #56]	; 0x38
10004bfe:	9b0b      	ldr	r3, [sp, #44]	; 0x2c
10004c00:	9c0a      	ldr	r4, [sp, #40]	; 0x28
10004c02:	3b01      	subs	r3, #1
10004c04:	18d3      	adds	r3, r2, r3
10004c06:	9310      	str	r3, [sp, #64]	; 0x40
10004c08:	1c39      	adds	r1, r7, #0
10004c0a:	1c20      	adds	r0, r4, #0
10004c0c:	f7ff fa99 	bl	10004142 <quorem>
10004c10:	1c03      	adds	r3, r0, #0
10004c12:	900f      	str	r0, [sp, #60]	; 0x3c
10004c14:	3330      	adds	r3, #48	; 0x30
10004c16:	1c31      	adds	r1, r6, #0
10004c18:	1c20      	adds	r0, r4, #0
10004c1a:	930d      	str	r3, [sp, #52]	; 0x34
10004c1c:	f000 fb4c 	bl	100052b8 <__mcmp>
10004c20:	1c39      	adds	r1, r7, #0
10004c22:	900b      	str	r0, [sp, #44]	; 0x2c
10004c24:	9a09      	ldr	r2, [sp, #36]	; 0x24
10004c26:	9808      	ldr	r0, [sp, #32]
10004c28:	f000 fb61 	bl	100052ee <__mdiff>
10004c2c:	2301      	movs	r3, #1
10004c2e:	9304      	str	r3, [sp, #16]
10004c30:	68c3      	ldr	r3, [r0, #12]
10004c32:	1c05      	adds	r5, r0, #0
10004c34:	2b00      	cmp	r3, #0
10004c36:	d104      	bne.n	10004c42 <_dtoa_r+0x9f2>
10004c38:	1c20      	adds	r0, r4, #0
10004c3a:	1c29      	adds	r1, r5, #0
10004c3c:	f000 fb3c 	bl	100052b8 <__mcmp>
10004c40:	9004      	str	r0, [sp, #16]
10004c42:	9808      	ldr	r0, [sp, #32]
10004c44:	1c29      	adds	r1, r5, #0
10004c46:	f000 f95d 	bl	10004f04 <_Bfree>
10004c4a:	9b04      	ldr	r3, [sp, #16]
10004c4c:	9a20      	ldr	r2, [sp, #128]	; 0x80
10004c4e:	4313      	orrs	r3, r2
10004c50:	d110      	bne.n	10004c74 <_dtoa_r+0xa24>
10004c52:	9a06      	ldr	r2, [sp, #24]
10004c54:	3301      	adds	r3, #1
10004c56:	4213      	tst	r3, r2
10004c58:	d10c      	bne.n	10004c74 <_dtoa_r+0xa24>
10004c5a:	980d      	ldr	r0, [sp, #52]	; 0x34
10004c5c:	940a      	str	r4, [sp, #40]	; 0x28
10004c5e:	2839      	cmp	r0, #57	; 0x39
10004c60:	d03d      	beq.n	10004cde <_dtoa_r+0xa8e>
10004c62:	9b0b      	ldr	r3, [sp, #44]	; 0x2c
10004c64:	2b00      	cmp	r3, #0
10004c66:	dd01      	ble.n	10004c6c <_dtoa_r+0xa1c>
10004c68:	980f      	ldr	r0, [sp, #60]	; 0x3c
10004c6a:	3031      	adds	r0, #49	; 0x31
10004c6c:	9b0e      	ldr	r3, [sp, #56]	; 0x38
10004c6e:	3301      	adds	r3, #1
10004c70:	9304      	str	r3, [sp, #16]
10004c72:	e03e      	b.n	10004cf2 <_dtoa_r+0xaa2>
10004c74:	9b0b      	ldr	r3, [sp, #44]	; 0x2c
10004c76:	2b00      	cmp	r3, #0
10004c78:	da05      	bge.n	10004c86 <_dtoa_r+0xa36>
10004c7a:	9b04      	ldr	r3, [sp, #16]
10004c7c:	9d0d      	ldr	r5, [sp, #52]	; 0x34
10004c7e:	940a      	str	r4, [sp, #40]	; 0x28
10004c80:	2b00      	cmp	r3, #0
10004c82:	dc09      	bgt.n	10004c98 <_dtoa_r+0xa48>
10004c84:	e01c      	b.n	10004cc0 <_dtoa_r+0xa70>
10004c86:	9d0b      	ldr	r5, [sp, #44]	; 0x2c
10004c88:	9b20      	ldr	r3, [sp, #128]	; 0x80
10004c8a:	431d      	orrs	r5, r3
10004c8c:	d11e      	bne.n	10004ccc <_dtoa_r+0xa7c>
10004c8e:	2301      	movs	r3, #1
10004c90:	9a06      	ldr	r2, [sp, #24]
10004c92:	4213      	tst	r3, r2
10004c94:	d11a      	bne.n	10004ccc <_dtoa_r+0xa7c>
10004c96:	e7f0      	b.n	10004c7a <_dtoa_r+0xa2a>
10004c98:	1c21      	adds	r1, r4, #0
10004c9a:	9808      	ldr	r0, [sp, #32]
10004c9c:	2201      	movs	r2, #1
10004c9e:	f000 fab9 	bl	10005214 <__lshift>
10004ca2:	1c39      	adds	r1, r7, #0
10004ca4:	900a      	str	r0, [sp, #40]	; 0x28
10004ca6:	f000 fb07 	bl	100052b8 <__mcmp>
10004caa:	2800      	cmp	r0, #0
10004cac:	dc03      	bgt.n	10004cb6 <_dtoa_r+0xa66>
10004cae:	d107      	bne.n	10004cc0 <_dtoa_r+0xa70>
10004cb0:	9b0d      	ldr	r3, [sp, #52]	; 0x34
10004cb2:	07db      	lsls	r3, r3, #31
10004cb4:	d504      	bpl.n	10004cc0 <_dtoa_r+0xa70>
10004cb6:	9b0d      	ldr	r3, [sp, #52]	; 0x34
10004cb8:	2b39      	cmp	r3, #57	; 0x39
10004cba:	d010      	beq.n	10004cde <_dtoa_r+0xa8e>
10004cbc:	1c1d      	adds	r5, r3, #0
10004cbe:	3501      	adds	r5, #1
10004cc0:	9b0e      	ldr	r3, [sp, #56]	; 0x38
10004cc2:	3301      	adds	r3, #1
10004cc4:	9304      	str	r3, [sp, #16]
10004cc6:	9b0e      	ldr	r3, [sp, #56]	; 0x38
10004cc8:	701d      	strb	r5, [r3, #0]
10004cca:	e088      	b.n	10004dde <_dtoa_r+0xb8e>
10004ccc:	9b0e      	ldr	r3, [sp, #56]	; 0x38
10004cce:	1c5d      	adds	r5, r3, #1
10004cd0:	9b04      	ldr	r3, [sp, #16]
10004cd2:	2b00      	cmp	r3, #0
10004cd4:	dd10      	ble.n	10004cf8 <_dtoa_r+0xaa8>
10004cd6:	9b0d      	ldr	r3, [sp, #52]	; 0x34
10004cd8:	940a      	str	r4, [sp, #40]	; 0x28
10004cda:	2b39      	cmp	r3, #57	; 0x39
10004cdc:	d106      	bne.n	10004cec <_dtoa_r+0xa9c>
10004cde:	9b0e      	ldr	r3, [sp, #56]	; 0x38
10004ce0:	9a0e      	ldr	r2, [sp, #56]	; 0x38
10004ce2:	3301      	adds	r3, #1
10004ce4:	9304      	str	r3, [sp, #16]
10004ce6:	2339      	movs	r3, #57	; 0x39
10004ce8:	7013      	strb	r3, [r2, #0]
10004cea:	e060      	b.n	10004dae <_dtoa_r+0xb5e>
10004cec:	980d      	ldr	r0, [sp, #52]	; 0x34
10004cee:	9504      	str	r5, [sp, #16]
10004cf0:	3001      	adds	r0, #1
10004cf2:	9b0e      	ldr	r3, [sp, #56]	; 0x38
10004cf4:	7018      	strb	r0, [r3, #0]
10004cf6:	e072      	b.n	10004dde <_dtoa_r+0xb8e>
10004cf8:	466a      	mov	r2, sp
10004cfa:	2134      	movs	r1, #52	; 0x34
10004cfc:	1852      	adds	r2, r2, r1
10004cfe:	7812      	ldrb	r2, [r2, #0]
10004d00:	9b0e      	ldr	r3, [sp, #56]	; 0x38
10004d02:	9504      	str	r5, [sp, #16]
10004d04:	701a      	strb	r2, [r3, #0]
10004d06:	9a10      	ldr	r2, [sp, #64]	; 0x40
10004d08:	4293      	cmp	r3, r2
10004d0a:	d03f      	beq.n	10004d8c <_dtoa_r+0xb3c>
10004d0c:	1c21      	adds	r1, r4, #0
10004d0e:	220a      	movs	r2, #10
10004d10:	2300      	movs	r3, #0
10004d12:	9808      	ldr	r0, [sp, #32]
10004d14:	f000 f90f 	bl	10004f36 <__multadd>
10004d18:	9b09      	ldr	r3, [sp, #36]	; 0x24
10004d1a:	1c04      	adds	r4, r0, #0
10004d1c:	1c31      	adds	r1, r6, #0
10004d1e:	9808      	ldr	r0, [sp, #32]
10004d20:	220a      	movs	r2, #10
10004d22:	429e      	cmp	r6, r3
10004d24:	d105      	bne.n	10004d32 <_dtoa_r+0xae2>
10004d26:	2300      	movs	r3, #0
10004d28:	f000 f905 	bl	10004f36 <__multadd>
10004d2c:	1c06      	adds	r6, r0, #0
10004d2e:	9009      	str	r0, [sp, #36]	; 0x24
10004d30:	e00a      	b.n	10004d48 <_dtoa_r+0xaf8>
10004d32:	2300      	movs	r3, #0
10004d34:	f000 f8ff 	bl	10004f36 <__multadd>
10004d38:	9909      	ldr	r1, [sp, #36]	; 0x24
10004d3a:	1c06      	adds	r6, r0, #0
10004d3c:	220a      	movs	r2, #10
10004d3e:	9808      	ldr	r0, [sp, #32]
10004d40:	2300      	movs	r3, #0
10004d42:	f000 f8f8 	bl	10004f36 <__multadd>
10004d46:	9009      	str	r0, [sp, #36]	; 0x24
10004d48:	950e      	str	r5, [sp, #56]	; 0x38
10004d4a:	e75d      	b.n	10004c08 <_dtoa_r+0x9b8>
10004d4c:	1c21      	adds	r1, r4, #0
10004d4e:	9808      	ldr	r0, [sp, #32]
10004d50:	220a      	movs	r2, #10
10004d52:	2300      	movs	r3, #0
10004d54:	f000 f8ef 	bl	10004f36 <__multadd>
10004d58:	1c04      	adds	r4, r0, #0
10004d5a:	1c20      	adds	r0, r4, #0
10004d5c:	1c39      	adds	r1, r7, #0
10004d5e:	f7ff f9f0 	bl	10004142 <quorem>
10004d62:	2234      	movs	r2, #52	; 0x34
10004d64:	466b      	mov	r3, sp
10004d66:	3030      	adds	r0, #48	; 0x30
10004d68:	189b      	adds	r3, r3, r2
10004d6a:	900d      	str	r0, [sp, #52]	; 0x34
10004d6c:	781b      	ldrb	r3, [r3, #0]
10004d6e:	9a0b      	ldr	r2, [sp, #44]	; 0x2c
10004d70:	702b      	strb	r3, [r5, #0]
10004d72:	9b0c      	ldr	r3, [sp, #48]	; 0x30
10004d74:	3501      	adds	r5, #1
10004d76:	1aeb      	subs	r3, r5, r3
10004d78:	4293      	cmp	r3, r2
10004d7a:	dbe7      	blt.n	10004d4c <_dtoa_r+0xafc>
10004d7c:	1e13      	subs	r3, r2, #0
10004d7e:	dc00      	bgt.n	10004d82 <_dtoa_r+0xb32>
10004d80:	2301      	movs	r3, #1
10004d82:	9609      	str	r6, [sp, #36]	; 0x24
10004d84:	2600      	movs	r6, #0
10004d86:	9a0c      	ldr	r2, [sp, #48]	; 0x30
10004d88:	18d3      	adds	r3, r2, r3
10004d8a:	9304      	str	r3, [sp, #16]
10004d8c:	1c21      	adds	r1, r4, #0
10004d8e:	9808      	ldr	r0, [sp, #32]
10004d90:	2201      	movs	r2, #1
10004d92:	f000 fa3f 	bl	10005214 <__lshift>
10004d96:	1c39      	adds	r1, r7, #0
10004d98:	900a      	str	r0, [sp, #40]	; 0x28
10004d9a:	f000 fa8d 	bl	100052b8 <__mcmp>
10004d9e:	2800      	cmp	r0, #0
10004da0:	dc05      	bgt.n	10004dae <_dtoa_r+0xb5e>
10004da2:	d115      	bne.n	10004dd0 <_dtoa_r+0xb80>
10004da4:	9b0d      	ldr	r3, [sp, #52]	; 0x34
10004da6:	07db      	lsls	r3, r3, #31
10004da8:	d401      	bmi.n	10004dae <_dtoa_r+0xb5e>
10004daa:	e011      	b.n	10004dd0 <_dtoa_r+0xb80>
10004dac:	9304      	str	r3, [sp, #16]
10004dae:	9b04      	ldr	r3, [sp, #16]
10004db0:	3b01      	subs	r3, #1
10004db2:	781a      	ldrb	r2, [r3, #0]
10004db4:	2a39      	cmp	r2, #57	; 0x39
10004db6:	d108      	bne.n	10004dca <_dtoa_r+0xb7a>
10004db8:	9a0c      	ldr	r2, [sp, #48]	; 0x30
10004dba:	4293      	cmp	r3, r2
10004dbc:	d1f6      	bne.n	10004dac <_dtoa_r+0xb5c>
10004dbe:	9b03      	ldr	r3, [sp, #12]
10004dc0:	3301      	adds	r3, #1
10004dc2:	9303      	str	r3, [sp, #12]
10004dc4:	2331      	movs	r3, #49	; 0x31
10004dc6:	7013      	strb	r3, [r2, #0]
10004dc8:	e009      	b.n	10004dde <_dtoa_r+0xb8e>
10004dca:	3201      	adds	r2, #1
10004dcc:	701a      	strb	r2, [r3, #0]
10004dce:	e006      	b.n	10004dde <_dtoa_r+0xb8e>
10004dd0:	9b04      	ldr	r3, [sp, #16]
10004dd2:	3b01      	subs	r3, #1
10004dd4:	781a      	ldrb	r2, [r3, #0]
10004dd6:	2a30      	cmp	r2, #48	; 0x30
10004dd8:	d101      	bne.n	10004dde <_dtoa_r+0xb8e>
10004dda:	9304      	str	r3, [sp, #16]
10004ddc:	e7f8      	b.n	10004dd0 <_dtoa_r+0xb80>
10004dde:	9808      	ldr	r0, [sp, #32]
10004de0:	1c39      	adds	r1, r7, #0
10004de2:	f000 f88f 	bl	10004f04 <_Bfree>
10004de6:	9b09      	ldr	r3, [sp, #36]	; 0x24
10004de8:	2b00      	cmp	r3, #0
10004dea:	d00e      	beq.n	10004e0a <_dtoa_r+0xbba>
10004dec:	2e00      	cmp	r6, #0
10004dee:	d005      	beq.n	10004dfc <_dtoa_r+0xbac>
10004df0:	429e      	cmp	r6, r3
10004df2:	d003      	beq.n	10004dfc <_dtoa_r+0xbac>
10004df4:	9808      	ldr	r0, [sp, #32]
10004df6:	1c31      	adds	r1, r6, #0
10004df8:	f000 f884 	bl	10004f04 <_Bfree>
10004dfc:	9808      	ldr	r0, [sp, #32]
10004dfe:	9909      	ldr	r1, [sp, #36]	; 0x24
10004e00:	f000 f880 	bl	10004f04 <_Bfree>
10004e04:	e001      	b.n	10004e0a <_dtoa_r+0xbba>
10004e06:	9b11      	ldr	r3, [sp, #68]	; 0x44
10004e08:	9303      	str	r3, [sp, #12]
10004e0a:	9808      	ldr	r0, [sp, #32]
10004e0c:	990a      	ldr	r1, [sp, #40]	; 0x28
10004e0e:	f000 f879 	bl	10004f04 <_Bfree>
10004e12:	2300      	movs	r3, #0
10004e14:	9a04      	ldr	r2, [sp, #16]
10004e16:	980c      	ldr	r0, [sp, #48]	; 0x30
10004e18:	7013      	strb	r3, [r2, #0]
10004e1a:	9b03      	ldr	r3, [sp, #12]
10004e1c:	9a22      	ldr	r2, [sp, #136]	; 0x88
10004e1e:	3301      	adds	r3, #1
10004e20:	6013      	str	r3, [r2, #0]
10004e22:	9b24      	ldr	r3, [sp, #144]	; 0x90
10004e24:	2b00      	cmp	r3, #0
10004e26:	d010      	beq.n	10004e4a <_dtoa_r+0xbfa>
10004e28:	9a04      	ldr	r2, [sp, #16]
10004e2a:	601a      	str	r2, [r3, #0]
10004e2c:	e00d      	b.n	10004e4a <_dtoa_r+0xbfa>
10004e2e:	9b0b      	ldr	r3, [sp, #44]	; 0x2c
10004e30:	2b00      	cmp	r3, #0
10004e32:	dd00      	ble.n	10004e36 <_dtoa_r+0xbe6>
10004e34:	e6bd      	b.n	10004bb2 <_dtoa_r+0x962>
10004e36:	9b20      	ldr	r3, [sp, #128]	; 0x80
10004e38:	2b02      	cmp	r3, #2
10004e3a:	dd00      	ble.n	10004e3e <_dtoa_r+0xbee>
10004e3c:	e68a      	b.n	10004b54 <_dtoa_r+0x904>
10004e3e:	e6b8      	b.n	10004bb2 <_dtoa_r+0x962>
10004e40:	9b20      	ldr	r3, [sp, #128]	; 0x80
10004e42:	2b02      	cmp	r3, #2
10004e44:	dd00      	ble.n	10004e48 <_dtoa_r+0xbf8>
10004e46:	e685      	b.n	10004b54 <_dtoa_r+0x904>
10004e48:	e6b8      	b.n	10004bbc <_dtoa_r+0x96c>
10004e4a:	b01b      	add	sp, #108	; 0x6c
10004e4c:	bdf0      	pop	{r4, r5, r6, r7, pc}
10004e4e:	46c0      	nop			; (mov r8, r8)

10004e50 <_localeconv_r>:
10004e50:	4800      	ldr	r0, [pc, #0]	; (10004e54 <_localeconv_r+0x4>)
10004e52:	4770      	bx	lr
10004e54:	2000072c 	.word	0x2000072c

10004e58 <malloc>:
10004e58:	b508      	push	{r3, lr}
10004e5a:	4b03      	ldr	r3, [pc, #12]	; (10004e68 <malloc+0x10>)
10004e5c:	1c01      	adds	r1, r0, #0
10004e5e:	6818      	ldr	r0, [r3, #0]
10004e60:	f000 fb58 	bl	10005514 <_malloc_r>
10004e64:	bd08      	pop	{r3, pc}
10004e66:	46c0      	nop			; (mov r8, r8)
10004e68:	20000728 	.word	0x20000728

10004e6c <memchr>:
10004e6c:	b2c9      	uxtb	r1, r1
10004e6e:	1882      	adds	r2, r0, r2
10004e70:	4290      	cmp	r0, r2
10004e72:	d004      	beq.n	10004e7e <memchr+0x12>
10004e74:	7803      	ldrb	r3, [r0, #0]
10004e76:	428b      	cmp	r3, r1
10004e78:	d002      	beq.n	10004e80 <memchr+0x14>
10004e7a:	3001      	adds	r0, #1
10004e7c:	e7f8      	b.n	10004e70 <memchr+0x4>
10004e7e:	2000      	movs	r0, #0
10004e80:	4770      	bx	lr

10004e82 <memcpy>:
10004e82:	2300      	movs	r3, #0
10004e84:	b510      	push	{r4, lr}
10004e86:	4293      	cmp	r3, r2
10004e88:	d003      	beq.n	10004e92 <memcpy+0x10>
10004e8a:	5ccc      	ldrb	r4, [r1, r3]
10004e8c:	54c4      	strb	r4, [r0, r3]
10004e8e:	3301      	adds	r3, #1
10004e90:	e7f9      	b.n	10004e86 <memcpy+0x4>
10004e92:	bd10      	pop	{r4, pc}

10004e94 <_Balloc>:
10004e94:	b570      	push	{r4, r5, r6, lr}
10004e96:	6a46      	ldr	r6, [r0, #36]	; 0x24
10004e98:	1c04      	adds	r4, r0, #0
10004e9a:	1c0d      	adds	r5, r1, #0
10004e9c:	2e00      	cmp	r6, #0
10004e9e:	d107      	bne.n	10004eb0 <_Balloc+0x1c>
10004ea0:	2010      	movs	r0, #16
10004ea2:	f7ff ffd9 	bl	10004e58 <malloc>
10004ea6:	6260      	str	r0, [r4, #36]	; 0x24
10004ea8:	6046      	str	r6, [r0, #4]
10004eaa:	6086      	str	r6, [r0, #8]
10004eac:	6006      	str	r6, [r0, #0]
10004eae:	60c6      	str	r6, [r0, #12]
10004eb0:	6a66      	ldr	r6, [r4, #36]	; 0x24
10004eb2:	68f3      	ldr	r3, [r6, #12]
10004eb4:	2b00      	cmp	r3, #0
10004eb6:	d009      	beq.n	10004ecc <_Balloc+0x38>
10004eb8:	6a62      	ldr	r2, [r4, #36]	; 0x24
10004eba:	00ab      	lsls	r3, r5, #2
10004ebc:	68d2      	ldr	r2, [r2, #12]
10004ebe:	18d3      	adds	r3, r2, r3
10004ec0:	6818      	ldr	r0, [r3, #0]
10004ec2:	2800      	cmp	r0, #0
10004ec4:	d00e      	beq.n	10004ee4 <_Balloc+0x50>
10004ec6:	6802      	ldr	r2, [r0, #0]
10004ec8:	601a      	str	r2, [r3, #0]
10004eca:	e017      	b.n	10004efc <_Balloc+0x68>
10004ecc:	1c20      	adds	r0, r4, #0
10004ece:	2104      	movs	r1, #4
10004ed0:	2221      	movs	r2, #33	; 0x21
10004ed2:	f000 facb 	bl	1000546c <_calloc_r>
10004ed6:	6a63      	ldr	r3, [r4, #36]	; 0x24
10004ed8:	60f0      	str	r0, [r6, #12]
10004eda:	68db      	ldr	r3, [r3, #12]
10004edc:	2b00      	cmp	r3, #0
10004ede:	d1eb      	bne.n	10004eb8 <_Balloc+0x24>
10004ee0:	2000      	movs	r0, #0
10004ee2:	e00e      	b.n	10004f02 <_Balloc+0x6e>
10004ee4:	2101      	movs	r1, #1
10004ee6:	1c0e      	adds	r6, r1, #0
10004ee8:	40ae      	lsls	r6, r5
10004eea:	1d72      	adds	r2, r6, #5
10004eec:	0092      	lsls	r2, r2, #2
10004eee:	1c20      	adds	r0, r4, #0
10004ef0:	f000 fabc 	bl	1000546c <_calloc_r>
10004ef4:	2800      	cmp	r0, #0
10004ef6:	d0f3      	beq.n	10004ee0 <_Balloc+0x4c>
10004ef8:	6045      	str	r5, [r0, #4]
10004efa:	6086      	str	r6, [r0, #8]
10004efc:	2300      	movs	r3, #0
10004efe:	6103      	str	r3, [r0, #16]
10004f00:	60c3      	str	r3, [r0, #12]
10004f02:	bd70      	pop	{r4, r5, r6, pc}

10004f04 <_Bfree>:
10004f04:	b570      	push	{r4, r5, r6, lr}
10004f06:	6a45      	ldr	r5, [r0, #36]	; 0x24
10004f08:	1c06      	adds	r6, r0, #0
10004f0a:	1c0c      	adds	r4, r1, #0
10004f0c:	2d00      	cmp	r5, #0
10004f0e:	d107      	bne.n	10004f20 <_Bfree+0x1c>
10004f10:	2010      	movs	r0, #16
10004f12:	f7ff ffa1 	bl	10004e58 <malloc>
10004f16:	6270      	str	r0, [r6, #36]	; 0x24
10004f18:	6045      	str	r5, [r0, #4]
10004f1a:	6085      	str	r5, [r0, #8]
10004f1c:	6005      	str	r5, [r0, #0]
10004f1e:	60c5      	str	r5, [r0, #12]
10004f20:	2c00      	cmp	r4, #0
10004f22:	d007      	beq.n	10004f34 <_Bfree+0x30>
10004f24:	6a72      	ldr	r2, [r6, #36]	; 0x24
10004f26:	6863      	ldr	r3, [r4, #4]
10004f28:	68d2      	ldr	r2, [r2, #12]
10004f2a:	009b      	lsls	r3, r3, #2
10004f2c:	18d3      	adds	r3, r2, r3
10004f2e:	681a      	ldr	r2, [r3, #0]
10004f30:	6022      	str	r2, [r4, #0]
10004f32:	601c      	str	r4, [r3, #0]
10004f34:	bd70      	pop	{r4, r5, r6, pc}

10004f36 <__multadd>:
10004f36:	b5f7      	push	{r0, r1, r2, r4, r5, r6, r7, lr}
10004f38:	1c1e      	adds	r6, r3, #0
10004f3a:	2314      	movs	r3, #20
10004f3c:	469c      	mov	ip, r3
10004f3e:	1c07      	adds	r7, r0, #0
10004f40:	1c0c      	adds	r4, r1, #0
10004f42:	2000      	movs	r0, #0
10004f44:	690d      	ldr	r5, [r1, #16]
10004f46:	448c      	add	ip, r1
10004f48:	4663      	mov	r3, ip
10004f4a:	8819      	ldrh	r1, [r3, #0]
10004f4c:	681b      	ldr	r3, [r3, #0]
10004f4e:	4351      	muls	r1, r2
10004f50:	0c1b      	lsrs	r3, r3, #16
10004f52:	4353      	muls	r3, r2
10004f54:	1989      	adds	r1, r1, r6
10004f56:	0c0e      	lsrs	r6, r1, #16
10004f58:	18f3      	adds	r3, r6, r3
10004f5a:	b289      	uxth	r1, r1
10004f5c:	0c1e      	lsrs	r6, r3, #16
10004f5e:	041b      	lsls	r3, r3, #16
10004f60:	185b      	adds	r3, r3, r1
10004f62:	4661      	mov	r1, ip
10004f64:	3001      	adds	r0, #1
10004f66:	c108      	stmia	r1!, {r3}
10004f68:	468c      	mov	ip, r1
10004f6a:	42a8      	cmp	r0, r5
10004f6c:	dbec      	blt.n	10004f48 <__multadd+0x12>
10004f6e:	2e00      	cmp	r6, #0
10004f70:	d01b      	beq.n	10004faa <__multadd+0x74>
10004f72:	68a3      	ldr	r3, [r4, #8]
10004f74:	429d      	cmp	r5, r3
10004f76:	db12      	blt.n	10004f9e <__multadd+0x68>
10004f78:	6863      	ldr	r3, [r4, #4]
10004f7a:	1c38      	adds	r0, r7, #0
10004f7c:	1c59      	adds	r1, r3, #1
10004f7e:	f7ff ff89 	bl	10004e94 <_Balloc>
10004f82:	1c21      	adds	r1, r4, #0
10004f84:	6923      	ldr	r3, [r4, #16]
10004f86:	9001      	str	r0, [sp, #4]
10004f88:	1c9a      	adds	r2, r3, #2
10004f8a:	310c      	adds	r1, #12
10004f8c:	0092      	lsls	r2, r2, #2
10004f8e:	300c      	adds	r0, #12
10004f90:	f7ff ff77 	bl	10004e82 <memcpy>
10004f94:	1c21      	adds	r1, r4, #0
10004f96:	1c38      	adds	r0, r7, #0
10004f98:	f7ff ffb4 	bl	10004f04 <_Bfree>
10004f9c:	9c01      	ldr	r4, [sp, #4]
10004f9e:	1d2b      	adds	r3, r5, #4
10004fa0:	009b      	lsls	r3, r3, #2
10004fa2:	18e3      	adds	r3, r4, r3
10004fa4:	3501      	adds	r5, #1
10004fa6:	605e      	str	r6, [r3, #4]
10004fa8:	6125      	str	r5, [r4, #16]
10004faa:	1c20      	adds	r0, r4, #0
10004fac:	bdfe      	pop	{r1, r2, r3, r4, r5, r6, r7, pc}

10004fae <__hi0bits>:
10004fae:	2200      	movs	r2, #0
10004fb0:	1c03      	adds	r3, r0, #0
10004fb2:	0c01      	lsrs	r1, r0, #16
10004fb4:	4291      	cmp	r1, r2
10004fb6:	d101      	bne.n	10004fbc <__hi0bits+0xe>
10004fb8:	0403      	lsls	r3, r0, #16
10004fba:	3210      	adds	r2, #16
10004fbc:	0e19      	lsrs	r1, r3, #24
10004fbe:	d101      	bne.n	10004fc4 <__hi0bits+0x16>
10004fc0:	3208      	adds	r2, #8
10004fc2:	021b      	lsls	r3, r3, #8
10004fc4:	0f19      	lsrs	r1, r3, #28
10004fc6:	d101      	bne.n	10004fcc <__hi0bits+0x1e>
10004fc8:	3204      	adds	r2, #4
10004fca:	011b      	lsls	r3, r3, #4
10004fcc:	0f99      	lsrs	r1, r3, #30
10004fce:	d101      	bne.n	10004fd4 <__hi0bits+0x26>
10004fd0:	3202      	adds	r2, #2
10004fd2:	009b      	lsls	r3, r3, #2
10004fd4:	1c10      	adds	r0, r2, #0
10004fd6:	2b00      	cmp	r3, #0
10004fd8:	db03      	blt.n	10004fe2 <__hi0bits+0x34>
10004fda:	2020      	movs	r0, #32
10004fdc:	005b      	lsls	r3, r3, #1
10004fde:	d500      	bpl.n	10004fe2 <__hi0bits+0x34>
10004fe0:	1c50      	adds	r0, r2, #1
10004fe2:	4770      	bx	lr

10004fe4 <__lo0bits>:
10004fe4:	2207      	movs	r2, #7
10004fe6:	6803      	ldr	r3, [r0, #0]
10004fe8:	b510      	push	{r4, lr}
10004fea:	1c01      	adds	r1, r0, #0
10004fec:	401a      	ands	r2, r3
10004fee:	d00c      	beq.n	1000500a <__lo0bits+0x26>
10004ff0:	2401      	movs	r4, #1
10004ff2:	2000      	movs	r0, #0
10004ff4:	4223      	tst	r3, r4
10004ff6:	d123      	bne.n	10005040 <__lo0bits+0x5c>
10004ff8:	2202      	movs	r2, #2
10004ffa:	4213      	tst	r3, r2
10004ffc:	d003      	beq.n	10005006 <__lo0bits+0x22>
10004ffe:	40e3      	lsrs	r3, r4
10005000:	1c20      	adds	r0, r4, #0
10005002:	600b      	str	r3, [r1, #0]
10005004:	e01c      	b.n	10005040 <__lo0bits+0x5c>
10005006:	089b      	lsrs	r3, r3, #2
10005008:	e018      	b.n	1000503c <__lo0bits+0x58>
1000500a:	b298      	uxth	r0, r3
1000500c:	2800      	cmp	r0, #0
1000500e:	d101      	bne.n	10005014 <__lo0bits+0x30>
10005010:	2210      	movs	r2, #16
10005012:	0c1b      	lsrs	r3, r3, #16
10005014:	b2d8      	uxtb	r0, r3
10005016:	2800      	cmp	r0, #0
10005018:	d101      	bne.n	1000501e <__lo0bits+0x3a>
1000501a:	3208      	adds	r2, #8
1000501c:	0a1b      	lsrs	r3, r3, #8
1000501e:	0718      	lsls	r0, r3, #28
10005020:	d101      	bne.n	10005026 <__lo0bits+0x42>
10005022:	3204      	adds	r2, #4
10005024:	091b      	lsrs	r3, r3, #4
10005026:	0798      	lsls	r0, r3, #30
10005028:	d101      	bne.n	1000502e <__lo0bits+0x4a>
1000502a:	3202      	adds	r2, #2
1000502c:	089b      	lsrs	r3, r3, #2
1000502e:	07d8      	lsls	r0, r3, #31
10005030:	d404      	bmi.n	1000503c <__lo0bits+0x58>
10005032:	085b      	lsrs	r3, r3, #1
10005034:	2020      	movs	r0, #32
10005036:	2b00      	cmp	r3, #0
10005038:	d002      	beq.n	10005040 <__lo0bits+0x5c>
1000503a:	3201      	adds	r2, #1
1000503c:	1c10      	adds	r0, r2, #0
1000503e:	600b      	str	r3, [r1, #0]
10005040:	bd10      	pop	{r4, pc}

10005042 <__i2b>:
10005042:	b510      	push	{r4, lr}
10005044:	1c0c      	adds	r4, r1, #0
10005046:	2101      	movs	r1, #1
10005048:	f7ff ff24 	bl	10004e94 <_Balloc>
1000504c:	2301      	movs	r3, #1
1000504e:	6144      	str	r4, [r0, #20]
10005050:	6103      	str	r3, [r0, #16]
10005052:	bd10      	pop	{r4, pc}

10005054 <__multiply>:
10005054:	b5f0      	push	{r4, r5, r6, r7, lr}
10005056:	690b      	ldr	r3, [r1, #16]
10005058:	1c14      	adds	r4, r2, #0
1000505a:	6912      	ldr	r2, [r2, #16]
1000505c:	b089      	sub	sp, #36	; 0x24
1000505e:	1c0d      	adds	r5, r1, #0
10005060:	4293      	cmp	r3, r2
10005062:	da01      	bge.n	10005068 <__multiply+0x14>
10005064:	1c25      	adds	r5, r4, #0
10005066:	1c0c      	adds	r4, r1, #0
10005068:	692f      	ldr	r7, [r5, #16]
1000506a:	6926      	ldr	r6, [r4, #16]
1000506c:	68aa      	ldr	r2, [r5, #8]
1000506e:	19bb      	adds	r3, r7, r6
10005070:	6869      	ldr	r1, [r5, #4]
10005072:	9300      	str	r3, [sp, #0]
10005074:	4293      	cmp	r3, r2
10005076:	dd00      	ble.n	1000507a <__multiply+0x26>
10005078:	3101      	adds	r1, #1
1000507a:	f7ff ff0b 	bl	10004e94 <_Balloc>
1000507e:	1c01      	adds	r1, r0, #0
10005080:	9b00      	ldr	r3, [sp, #0]
10005082:	3114      	adds	r1, #20
10005084:	4684      	mov	ip, r0
10005086:	0098      	lsls	r0, r3, #2
10005088:	1c0b      	adds	r3, r1, #0
1000508a:	1808      	adds	r0, r1, r0
1000508c:	4283      	cmp	r3, r0
1000508e:	d202      	bcs.n	10005096 <__multiply+0x42>
10005090:	2200      	movs	r2, #0
10005092:	c304      	stmia	r3!, {r2}
10005094:	e7fa      	b.n	1000508c <__multiply+0x38>
10005096:	3514      	adds	r5, #20
10005098:	00bf      	lsls	r7, r7, #2
1000509a:	19eb      	adds	r3, r5, r7
1000509c:	3414      	adds	r4, #20
1000509e:	00b6      	lsls	r6, r6, #2
100050a0:	9304      	str	r3, [sp, #16]
100050a2:	19a3      	adds	r3, r4, r6
100050a4:	9502      	str	r5, [sp, #8]
100050a6:	9306      	str	r3, [sp, #24]
100050a8:	9b06      	ldr	r3, [sp, #24]
100050aa:	429c      	cmp	r4, r3
100050ac:	d256      	bcs.n	1000515c <__multiply+0x108>
100050ae:	8823      	ldrh	r3, [r4, #0]
100050b0:	9303      	str	r3, [sp, #12]
100050b2:	2b00      	cmp	r3, #0
100050b4:	d022      	beq.n	100050fc <__multiply+0xa8>
100050b6:	1c0e      	adds	r6, r1, #0
100050b8:	2700      	movs	r7, #0
100050ba:	9b02      	ldr	r3, [sp, #8]
100050bc:	9301      	str	r3, [sp, #4]
100050be:	9b01      	ldr	r3, [sp, #4]
100050c0:	9d03      	ldr	r5, [sp, #12]
100050c2:	cb04      	ldmia	r3!, {r2}
100050c4:	9605      	str	r6, [sp, #20]
100050c6:	9301      	str	r3, [sp, #4]
100050c8:	8833      	ldrh	r3, [r6, #0]
100050ca:	9307      	str	r3, [sp, #28]
100050cc:	b293      	uxth	r3, r2
100050ce:	436b      	muls	r3, r5
100050d0:	9d07      	ldr	r5, [sp, #28]
100050d2:	0c12      	lsrs	r2, r2, #16
100050d4:	18eb      	adds	r3, r5, r3
100050d6:	6835      	ldr	r5, [r6, #0]
100050d8:	19db      	adds	r3, r3, r7
100050da:	0c2f      	lsrs	r7, r5, #16
100050dc:	9d03      	ldr	r5, [sp, #12]
100050de:	436a      	muls	r2, r5
100050e0:	18ba      	adds	r2, r7, r2
100050e2:	0c1f      	lsrs	r7, r3, #16
100050e4:	19d2      	adds	r2, r2, r7
100050e6:	0c17      	lsrs	r7, r2, #16
100050e8:	b29b      	uxth	r3, r3
100050ea:	0412      	lsls	r2, r2, #16
100050ec:	4313      	orrs	r3, r2
100050ee:	c608      	stmia	r6!, {r3}
100050f0:	9a01      	ldr	r2, [sp, #4]
100050f2:	9b04      	ldr	r3, [sp, #16]
100050f4:	429a      	cmp	r2, r3
100050f6:	d3e2      	bcc.n	100050be <__multiply+0x6a>
100050f8:	9b05      	ldr	r3, [sp, #20]
100050fa:	605f      	str	r7, [r3, #4]
100050fc:	6823      	ldr	r3, [r4, #0]
100050fe:	0c1b      	lsrs	r3, r3, #16
10005100:	9301      	str	r3, [sp, #4]
10005102:	d021      	beq.n	10005148 <__multiply+0xf4>
10005104:	2200      	movs	r2, #0
10005106:	1c0d      	adds	r5, r1, #0
10005108:	680b      	ldr	r3, [r1, #0]
1000510a:	9f02      	ldr	r7, [sp, #8]
1000510c:	9203      	str	r2, [sp, #12]
1000510e:	883e      	ldrh	r6, [r7, #0]
10005110:	9a01      	ldr	r2, [sp, #4]
10005112:	b29b      	uxth	r3, r3
10005114:	4356      	muls	r6, r2
10005116:	682a      	ldr	r2, [r5, #0]
10005118:	9505      	str	r5, [sp, #20]
1000511a:	0c12      	lsrs	r2, r2, #16
1000511c:	18b2      	adds	r2, r6, r2
1000511e:	9e03      	ldr	r6, [sp, #12]
10005120:	1992      	adds	r2, r2, r6
10005122:	0416      	lsls	r6, r2, #16
10005124:	4333      	orrs	r3, r6
10005126:	602b      	str	r3, [r5, #0]
10005128:	cf08      	ldmia	r7!, {r3}
1000512a:	9e01      	ldr	r6, [sp, #4]
1000512c:	0c1b      	lsrs	r3, r3, #16
1000512e:	4373      	muls	r3, r6
10005130:	88ae      	ldrh	r6, [r5, #4]
10005132:	0c12      	lsrs	r2, r2, #16
10005134:	199b      	adds	r3, r3, r6
10005136:	189b      	adds	r3, r3, r2
10005138:	0c1a      	lsrs	r2, r3, #16
1000513a:	9203      	str	r2, [sp, #12]
1000513c:	9a04      	ldr	r2, [sp, #16]
1000513e:	3504      	adds	r5, #4
10005140:	42ba      	cmp	r2, r7
10005142:	d8e4      	bhi.n	1000510e <__multiply+0xba>
10005144:	9a05      	ldr	r2, [sp, #20]
10005146:	6053      	str	r3, [r2, #4]
10005148:	3404      	adds	r4, #4
1000514a:	3104      	adds	r1, #4
1000514c:	e7ac      	b.n	100050a8 <__multiply+0x54>
1000514e:	3804      	subs	r0, #4
10005150:	6803      	ldr	r3, [r0, #0]
10005152:	2b00      	cmp	r3, #0
10005154:	d105      	bne.n	10005162 <__multiply+0x10e>
10005156:	9b00      	ldr	r3, [sp, #0]
10005158:	3b01      	subs	r3, #1
1000515a:	9300      	str	r3, [sp, #0]
1000515c:	9b00      	ldr	r3, [sp, #0]
1000515e:	2b00      	cmp	r3, #0
10005160:	dcf5      	bgt.n	1000514e <__multiply+0xfa>
10005162:	4663      	mov	r3, ip
10005164:	4660      	mov	r0, ip
10005166:	9a00      	ldr	r2, [sp, #0]
10005168:	611a      	str	r2, [r3, #16]
1000516a:	b009      	add	sp, #36	; 0x24
1000516c:	bdf0      	pop	{r4, r5, r6, r7, pc}
	...

10005170 <__pow5mult>:
10005170:	2303      	movs	r3, #3
10005172:	b5f7      	push	{r0, r1, r2, r4, r5, r6, r7, lr}
10005174:	4013      	ands	r3, r2
10005176:	1c05      	adds	r5, r0, #0
10005178:	1c0e      	adds	r6, r1, #0
1000517a:	1c14      	adds	r4, r2, #0
1000517c:	2b00      	cmp	r3, #0
1000517e:	d007      	beq.n	10005190 <__pow5mult+0x20>
10005180:	4a22      	ldr	r2, [pc, #136]	; (1000520c <__pow5mult+0x9c>)
10005182:	3b01      	subs	r3, #1
10005184:	009b      	lsls	r3, r3, #2
10005186:	589a      	ldr	r2, [r3, r2]
10005188:	2300      	movs	r3, #0
1000518a:	f7ff fed4 	bl	10004f36 <__multadd>
1000518e:	1c06      	adds	r6, r0, #0
10005190:	10a3      	asrs	r3, r4, #2
10005192:	9301      	str	r3, [sp, #4]
10005194:	d037      	beq.n	10005206 <__pow5mult+0x96>
10005196:	6a6c      	ldr	r4, [r5, #36]	; 0x24
10005198:	2c00      	cmp	r4, #0
1000519a:	d107      	bne.n	100051ac <__pow5mult+0x3c>
1000519c:	2010      	movs	r0, #16
1000519e:	f7ff fe5b 	bl	10004e58 <malloc>
100051a2:	6268      	str	r0, [r5, #36]	; 0x24
100051a4:	6044      	str	r4, [r0, #4]
100051a6:	6084      	str	r4, [r0, #8]
100051a8:	6004      	str	r4, [r0, #0]
100051aa:	60c4      	str	r4, [r0, #12]
100051ac:	6a6f      	ldr	r7, [r5, #36]	; 0x24
100051ae:	68bc      	ldr	r4, [r7, #8]
100051b0:	2c00      	cmp	r4, #0
100051b2:	d110      	bne.n	100051d6 <__pow5mult+0x66>
100051b4:	1c28      	adds	r0, r5, #0
100051b6:	4916      	ldr	r1, [pc, #88]	; (10005210 <__pow5mult+0xa0>)
100051b8:	f7ff ff43 	bl	10005042 <__i2b>
100051bc:	2300      	movs	r3, #0
100051be:	60b8      	str	r0, [r7, #8]
100051c0:	1c04      	adds	r4, r0, #0
100051c2:	6003      	str	r3, [r0, #0]
100051c4:	e007      	b.n	100051d6 <__pow5mult+0x66>
100051c6:	9b01      	ldr	r3, [sp, #4]
100051c8:	105b      	asrs	r3, r3, #1
100051ca:	9301      	str	r3, [sp, #4]
100051cc:	d01b      	beq.n	10005206 <__pow5mult+0x96>
100051ce:	6820      	ldr	r0, [r4, #0]
100051d0:	2800      	cmp	r0, #0
100051d2:	d00f      	beq.n	100051f4 <__pow5mult+0x84>
100051d4:	1c04      	adds	r4, r0, #0
100051d6:	9b01      	ldr	r3, [sp, #4]
100051d8:	07db      	lsls	r3, r3, #31
100051da:	d5f4      	bpl.n	100051c6 <__pow5mult+0x56>
100051dc:	1c31      	adds	r1, r6, #0
100051de:	1c22      	adds	r2, r4, #0
100051e0:	1c28      	adds	r0, r5, #0
100051e2:	f7ff ff37 	bl	10005054 <__multiply>
100051e6:	1c07      	adds	r7, r0, #0
100051e8:	1c31      	adds	r1, r6, #0
100051ea:	1c28      	adds	r0, r5, #0
100051ec:	f7ff fe8a 	bl	10004f04 <_Bfree>
100051f0:	1c3e      	adds	r6, r7, #0
100051f2:	e7e8      	b.n	100051c6 <__pow5mult+0x56>
100051f4:	1c28      	adds	r0, r5, #0
100051f6:	1c21      	adds	r1, r4, #0
100051f8:	1c22      	adds	r2, r4, #0
100051fa:	f7ff ff2b 	bl	10005054 <__multiply>
100051fe:	2300      	movs	r3, #0
10005200:	6020      	str	r0, [r4, #0]
10005202:	6003      	str	r3, [r0, #0]
10005204:	e7e6      	b.n	100051d4 <__pow5mult+0x64>
10005206:	1c30      	adds	r0, r6, #0
10005208:	bdfe      	pop	{r1, r2, r3, r4, r5, r6, r7, pc}
1000520a:	46c0      	nop			; (mov r8, r8)
1000520c:	10007a00 	.word	0x10007a00
10005210:	00000271 	.word	0x00000271

10005214 <__lshift>:
10005214:	b5f0      	push	{r4, r5, r6, r7, lr}
10005216:	1c0c      	adds	r4, r1, #0
10005218:	1c17      	adds	r7, r2, #0
1000521a:	6923      	ldr	r3, [r4, #16]
1000521c:	1155      	asrs	r5, r2, #5
1000521e:	b085      	sub	sp, #20
10005220:	18eb      	adds	r3, r5, r3
10005222:	9301      	str	r3, [sp, #4]
10005224:	3301      	adds	r3, #1
10005226:	9300      	str	r3, [sp, #0]
10005228:	6849      	ldr	r1, [r1, #4]
1000522a:	68a3      	ldr	r3, [r4, #8]
1000522c:	9002      	str	r0, [sp, #8]
1000522e:	9a00      	ldr	r2, [sp, #0]
10005230:	429a      	cmp	r2, r3
10005232:	dd02      	ble.n	1000523a <__lshift+0x26>
10005234:	3101      	adds	r1, #1
10005236:	005b      	lsls	r3, r3, #1
10005238:	e7f9      	b.n	1000522e <__lshift+0x1a>
1000523a:	9802      	ldr	r0, [sp, #8]
1000523c:	f7ff fe2a 	bl	10004e94 <_Balloc>
10005240:	1c02      	adds	r2, r0, #0
10005242:	1c06      	adds	r6, r0, #0
10005244:	2300      	movs	r3, #0
10005246:	3214      	adds	r2, #20
10005248:	42ab      	cmp	r3, r5
1000524a:	da04      	bge.n	10005256 <__lshift+0x42>
1000524c:	2000      	movs	r0, #0
1000524e:	0099      	lsls	r1, r3, #2
10005250:	5050      	str	r0, [r2, r1]
10005252:	3301      	adds	r3, #1
10005254:	e7f8      	b.n	10005248 <__lshift+0x34>
10005256:	43eb      	mvns	r3, r5
10005258:	17db      	asrs	r3, r3, #31
1000525a:	401d      	ands	r5, r3
1000525c:	1c23      	adds	r3, r4, #0
1000525e:	00ad      	lsls	r5, r5, #2
10005260:	1955      	adds	r5, r2, r5
10005262:	6922      	ldr	r2, [r4, #16]
10005264:	3314      	adds	r3, #20
10005266:	0092      	lsls	r2, r2, #2
10005268:	189a      	adds	r2, r3, r2
1000526a:	4694      	mov	ip, r2
1000526c:	221f      	movs	r2, #31
1000526e:	4017      	ands	r7, r2
10005270:	d014      	beq.n	1000529c <__lshift+0x88>
10005272:	3201      	adds	r2, #1
10005274:	1bd2      	subs	r2, r2, r7
10005276:	9203      	str	r2, [sp, #12]
10005278:	2200      	movs	r2, #0
1000527a:	6819      	ldr	r1, [r3, #0]
1000527c:	1c28      	adds	r0, r5, #0
1000527e:	40b9      	lsls	r1, r7
10005280:	430a      	orrs	r2, r1
10005282:	c504      	stmia	r5!, {r2}
10005284:	cb04      	ldmia	r3!, {r2}
10005286:	9903      	ldr	r1, [sp, #12]
10005288:	40ca      	lsrs	r2, r1
1000528a:	459c      	cmp	ip, r3
1000528c:	d8f5      	bhi.n	1000527a <__lshift+0x66>
1000528e:	6042      	str	r2, [r0, #4]
10005290:	2a00      	cmp	r2, #0
10005292:	d007      	beq.n	100052a4 <__lshift+0x90>
10005294:	9b01      	ldr	r3, [sp, #4]
10005296:	3302      	adds	r3, #2
10005298:	9300      	str	r3, [sp, #0]
1000529a:	e003      	b.n	100052a4 <__lshift+0x90>
1000529c:	cb04      	ldmia	r3!, {r2}
1000529e:	c504      	stmia	r5!, {r2}
100052a0:	459c      	cmp	ip, r3
100052a2:	d8fb      	bhi.n	1000529c <__lshift+0x88>
100052a4:	9b00      	ldr	r3, [sp, #0]
100052a6:	9802      	ldr	r0, [sp, #8]
100052a8:	3b01      	subs	r3, #1
100052aa:	6133      	str	r3, [r6, #16]
100052ac:	1c21      	adds	r1, r4, #0
100052ae:	f7ff fe29 	bl	10004f04 <_Bfree>
100052b2:	1c30      	adds	r0, r6, #0
100052b4:	b005      	add	sp, #20
100052b6:	bdf0      	pop	{r4, r5, r6, r7, pc}

100052b8 <__mcmp>:
100052b8:	6903      	ldr	r3, [r0, #16]
100052ba:	690a      	ldr	r2, [r1, #16]
100052bc:	b510      	push	{r4, lr}
100052be:	1a9b      	subs	r3, r3, r2
100052c0:	1c04      	adds	r4, r0, #0
100052c2:	1e18      	subs	r0, r3, #0
100052c4:	d112      	bne.n	100052ec <__mcmp+0x34>
100052c6:	0093      	lsls	r3, r2, #2
100052c8:	3414      	adds	r4, #20
100052ca:	3114      	adds	r1, #20
100052cc:	18e2      	adds	r2, r4, r3
100052ce:	18c9      	adds	r1, r1, r3
100052d0:	3a04      	subs	r2, #4
100052d2:	3904      	subs	r1, #4
100052d4:	6813      	ldr	r3, [r2, #0]
100052d6:	6808      	ldr	r0, [r1, #0]
100052d8:	4283      	cmp	r3, r0
100052da:	d004      	beq.n	100052e6 <__mcmp+0x2e>
100052dc:	4283      	cmp	r3, r0
100052de:	419b      	sbcs	r3, r3
100052e0:	2001      	movs	r0, #1
100052e2:	4318      	orrs	r0, r3
100052e4:	e002      	b.n	100052ec <__mcmp+0x34>
100052e6:	42a2      	cmp	r2, r4
100052e8:	d8f2      	bhi.n	100052d0 <__mcmp+0x18>
100052ea:	2000      	movs	r0, #0
100052ec:	bd10      	pop	{r4, pc}

100052ee <__mdiff>:
100052ee:	b5f0      	push	{r4, r5, r6, r7, lr}
100052f0:	1c07      	adds	r7, r0, #0
100052f2:	b085      	sub	sp, #20
100052f4:	1c08      	adds	r0, r1, #0
100052f6:	1c0c      	adds	r4, r1, #0
100052f8:	1c11      	adds	r1, r2, #0
100052fa:	1c15      	adds	r5, r2, #0
100052fc:	f7ff ffdc 	bl	100052b8 <__mcmp>
10005300:	1e06      	subs	r6, r0, #0
10005302:	d107      	bne.n	10005314 <__mdiff+0x26>
10005304:	1c38      	adds	r0, r7, #0
10005306:	1c31      	adds	r1, r6, #0
10005308:	f7ff fdc4 	bl	10004e94 <_Balloc>
1000530c:	2301      	movs	r3, #1
1000530e:	6146      	str	r6, [r0, #20]
10005310:	6103      	str	r3, [r0, #16]
10005312:	e055      	b.n	100053c0 <__mdiff+0xd2>
10005314:	2300      	movs	r3, #0
10005316:	9301      	str	r3, [sp, #4]
10005318:	4298      	cmp	r0, r3
1000531a:	da04      	bge.n	10005326 <__mdiff+0x38>
1000531c:	1c23      	adds	r3, r4, #0
1000531e:	1c2c      	adds	r4, r5, #0
10005320:	1c1d      	adds	r5, r3, #0
10005322:	2301      	movs	r3, #1
10005324:	9301      	str	r3, [sp, #4]
10005326:	1c38      	adds	r0, r7, #0
10005328:	6861      	ldr	r1, [r4, #4]
1000532a:	f7ff fdb3 	bl	10004e94 <_Balloc>
1000532e:	9b01      	ldr	r3, [sp, #4]
10005330:	6926      	ldr	r6, [r4, #16]
10005332:	1c2f      	adds	r7, r5, #0
10005334:	60c3      	str	r3, [r0, #12]
10005336:	3414      	adds	r4, #20
10005338:	00b3      	lsls	r3, r6, #2
1000533a:	18e3      	adds	r3, r4, r3
1000533c:	1c02      	adds	r2, r0, #0
1000533e:	9302      	str	r3, [sp, #8]
10005340:	692b      	ldr	r3, [r5, #16]
10005342:	2500      	movs	r5, #0
10005344:	3714      	adds	r7, #20
10005346:	009b      	lsls	r3, r3, #2
10005348:	18fb      	adds	r3, r7, r3
1000534a:	9303      	str	r3, [sp, #12]
1000534c:	3214      	adds	r2, #20
1000534e:	cc08      	ldmia	r4!, {r3}
10005350:	4669      	mov	r1, sp
10005352:	469c      	mov	ip, r3
10005354:	cf08      	ldmia	r7!, {r3}
10005356:	3204      	adds	r2, #4
10005358:	9300      	str	r3, [sp, #0]
1000535a:	4663      	mov	r3, ip
1000535c:	808b      	strh	r3, [r1, #4]
1000535e:	888b      	ldrh	r3, [r1, #4]
10005360:	195d      	adds	r5, r3, r5
10005362:	9b00      	ldr	r3, [sp, #0]
10005364:	b29b      	uxth	r3, r3
10005366:	1aeb      	subs	r3, r5, r3
10005368:	4665      	mov	r5, ip
1000536a:	9301      	str	r3, [sp, #4]
1000536c:	9b00      	ldr	r3, [sp, #0]
1000536e:	0c2d      	lsrs	r5, r5, #16
10005370:	0c19      	lsrs	r1, r3, #16
10005372:	9b01      	ldr	r3, [sp, #4]
10005374:	1a69      	subs	r1, r5, r1
10005376:	141d      	asrs	r5, r3, #16
10005378:	1f13      	subs	r3, r2, #4
1000537a:	469c      	mov	ip, r3
1000537c:	466b      	mov	r3, sp
1000537e:	1949      	adds	r1, r1, r5
10005380:	889b      	ldrh	r3, [r3, #4]
10005382:	140d      	asrs	r5, r1, #16
10005384:	0409      	lsls	r1, r1, #16
10005386:	430b      	orrs	r3, r1
10005388:	4661      	mov	r1, ip
1000538a:	600b      	str	r3, [r1, #0]
1000538c:	9b03      	ldr	r3, [sp, #12]
1000538e:	429f      	cmp	r7, r3
10005390:	d3dd      	bcc.n	1000534e <__mdiff+0x60>
10005392:	9902      	ldr	r1, [sp, #8]
10005394:	1c13      	adds	r3, r2, #0
10005396:	428c      	cmp	r4, r1
10005398:	d20b      	bcs.n	100053b2 <__mdiff+0xc4>
1000539a:	cc08      	ldmia	r4!, {r3}
1000539c:	b299      	uxth	r1, r3
1000539e:	1949      	adds	r1, r1, r5
100053a0:	140d      	asrs	r5, r1, #16
100053a2:	0c1b      	lsrs	r3, r3, #16
100053a4:	18eb      	adds	r3, r5, r3
100053a6:	141d      	asrs	r5, r3, #16
100053a8:	b289      	uxth	r1, r1
100053aa:	041b      	lsls	r3, r3, #16
100053ac:	430b      	orrs	r3, r1
100053ae:	c208      	stmia	r2!, {r3}
100053b0:	e7ef      	b.n	10005392 <__mdiff+0xa4>
100053b2:	3b04      	subs	r3, #4
100053b4:	681a      	ldr	r2, [r3, #0]
100053b6:	2a00      	cmp	r2, #0
100053b8:	d101      	bne.n	100053be <__mdiff+0xd0>
100053ba:	3e01      	subs	r6, #1
100053bc:	e7f9      	b.n	100053b2 <__mdiff+0xc4>
100053be:	6106      	str	r6, [r0, #16]
100053c0:	b005      	add	sp, #20
100053c2:	bdf0      	pop	{r4, r5, r6, r7, pc}

100053c4 <__d2b>:
100053c4:	b5f7      	push	{r0, r1, r2, r4, r5, r6, r7, lr}
100053c6:	1c1d      	adds	r5, r3, #0
100053c8:	2101      	movs	r1, #1
100053ca:	9f08      	ldr	r7, [sp, #32]
100053cc:	1c14      	adds	r4, r2, #0
100053ce:	f7ff fd61 	bl	10004e94 <_Balloc>
100053d2:	032b      	lsls	r3, r5, #12
100053d4:	006d      	lsls	r5, r5, #1
100053d6:	1c06      	adds	r6, r0, #0
100053d8:	0b1b      	lsrs	r3, r3, #12
100053da:	0d6d      	lsrs	r5, r5, #21
100053dc:	d002      	beq.n	100053e4 <__d2b+0x20>
100053de:	2280      	movs	r2, #128	; 0x80
100053e0:	0352      	lsls	r2, r2, #13
100053e2:	4313      	orrs	r3, r2
100053e4:	9301      	str	r3, [sp, #4]
100053e6:	2c00      	cmp	r4, #0
100053e8:	d018      	beq.n	1000541c <__d2b+0x58>
100053ea:	4668      	mov	r0, sp
100053ec:	9400      	str	r4, [sp, #0]
100053ee:	f7ff fdf9 	bl	10004fe4 <__lo0bits>
100053f2:	9c00      	ldr	r4, [sp, #0]
100053f4:	2800      	cmp	r0, #0
100053f6:	d009      	beq.n	1000540c <__d2b+0x48>
100053f8:	2320      	movs	r3, #32
100053fa:	9a01      	ldr	r2, [sp, #4]
100053fc:	1a19      	subs	r1, r3, r0
100053fe:	1c13      	adds	r3, r2, #0
10005400:	408b      	lsls	r3, r1
10005402:	40c2      	lsrs	r2, r0
10005404:	4323      	orrs	r3, r4
10005406:	6173      	str	r3, [r6, #20]
10005408:	9201      	str	r2, [sp, #4]
1000540a:	e000      	b.n	1000540e <__d2b+0x4a>
1000540c:	6174      	str	r4, [r6, #20]
1000540e:	9c01      	ldr	r4, [sp, #4]
10005410:	61b4      	str	r4, [r6, #24]
10005412:	1e63      	subs	r3, r4, #1
10005414:	419c      	sbcs	r4, r3
10005416:	3401      	adds	r4, #1
10005418:	6134      	str	r4, [r6, #16]
1000541a:	e007      	b.n	1000542c <__d2b+0x68>
1000541c:	a801      	add	r0, sp, #4
1000541e:	f7ff fde1 	bl	10004fe4 <__lo0bits>
10005422:	2401      	movs	r4, #1
10005424:	9b01      	ldr	r3, [sp, #4]
10005426:	6134      	str	r4, [r6, #16]
10005428:	6173      	str	r3, [r6, #20]
1000542a:	3020      	adds	r0, #32
1000542c:	2d00      	cmp	r5, #0
1000542e:	d006      	beq.n	1000543e <__d2b+0x7a>
10005430:	4b0b      	ldr	r3, [pc, #44]	; (10005460 <__d2b+0x9c>)
10005432:	18ed      	adds	r5, r5, r3
10005434:	2335      	movs	r3, #53	; 0x35
10005436:	182d      	adds	r5, r5, r0
10005438:	603d      	str	r5, [r7, #0]
1000543a:	1a18      	subs	r0, r3, r0
1000543c:	e00b      	b.n	10005456 <__d2b+0x92>
1000543e:	4b09      	ldr	r3, [pc, #36]	; (10005464 <__d2b+0xa0>)
10005440:	18c0      	adds	r0, r0, r3
10005442:	4b09      	ldr	r3, [pc, #36]	; (10005468 <__d2b+0xa4>)
10005444:	6038      	str	r0, [r7, #0]
10005446:	18e3      	adds	r3, r4, r3
10005448:	009b      	lsls	r3, r3, #2
1000544a:	18f3      	adds	r3, r6, r3
1000544c:	6958      	ldr	r0, [r3, #20]
1000544e:	f7ff fdae 	bl	10004fae <__hi0bits>
10005452:	0164      	lsls	r4, r4, #5
10005454:	1a20      	subs	r0, r4, r0
10005456:	9b09      	ldr	r3, [sp, #36]	; 0x24
10005458:	6018      	str	r0, [r3, #0]
1000545a:	1c30      	adds	r0, r6, #0
1000545c:	bdfe      	pop	{r1, r2, r3, r4, r5, r6, r7, pc}
1000545e:	46c0      	nop			; (mov r8, r8)
10005460:	fffffbcd 	.word	0xfffffbcd
10005464:	fffffbce 	.word	0xfffffbce
10005468:	3fffffff 	.word	0x3fffffff

1000546c <_calloc_r>:
1000546c:	434a      	muls	r2, r1
1000546e:	b538      	push	{r3, r4, r5, lr}
10005470:	1c11      	adds	r1, r2, #0
10005472:	1c14      	adds	r4, r2, #0
10005474:	f000 f84e 	bl	10005514 <_malloc_r>
10005478:	1e05      	subs	r5, r0, #0
1000547a:	d003      	beq.n	10005484 <_calloc_r+0x18>
1000547c:	2100      	movs	r1, #0
1000547e:	1c22      	adds	r2, r4, #0
10005480:	f000 fa1c 	bl	100058bc <memset>
10005484:	1c28      	adds	r0, r5, #0
10005486:	bd38      	pop	{r3, r4, r5, pc}

10005488 <_free_r>:
10005488:	b530      	push	{r4, r5, lr}
1000548a:	2900      	cmp	r1, #0
1000548c:	d03e      	beq.n	1000550c <_free_r+0x84>
1000548e:	3904      	subs	r1, #4
10005490:	680b      	ldr	r3, [r1, #0]
10005492:	2b00      	cmp	r3, #0
10005494:	da00      	bge.n	10005498 <_free_r+0x10>
10005496:	18c9      	adds	r1, r1, r3
10005498:	4a1d      	ldr	r2, [pc, #116]	; (10005510 <_free_r+0x88>)
1000549a:	6813      	ldr	r3, [r2, #0]
1000549c:	1c14      	adds	r4, r2, #0
1000549e:	2b00      	cmp	r3, #0
100054a0:	d102      	bne.n	100054a8 <_free_r+0x20>
100054a2:	604b      	str	r3, [r1, #4]
100054a4:	6011      	str	r1, [r2, #0]
100054a6:	e031      	b.n	1000550c <_free_r+0x84>
100054a8:	4299      	cmp	r1, r3
100054aa:	d20d      	bcs.n	100054c8 <_free_r+0x40>
100054ac:	6808      	ldr	r0, [r1, #0]
100054ae:	180a      	adds	r2, r1, r0
100054b0:	429a      	cmp	r2, r3
100054b2:	d103      	bne.n	100054bc <_free_r+0x34>
100054b4:	6813      	ldr	r3, [r2, #0]
100054b6:	18c3      	adds	r3, r0, r3
100054b8:	600b      	str	r3, [r1, #0]
100054ba:	6853      	ldr	r3, [r2, #4]
100054bc:	604b      	str	r3, [r1, #4]
100054be:	6021      	str	r1, [r4, #0]
100054c0:	e024      	b.n	1000550c <_free_r+0x84>
100054c2:	428a      	cmp	r2, r1
100054c4:	d803      	bhi.n	100054ce <_free_r+0x46>
100054c6:	1c13      	adds	r3, r2, #0
100054c8:	685a      	ldr	r2, [r3, #4]
100054ca:	2a00      	cmp	r2, #0
100054cc:	d1f9      	bne.n	100054c2 <_free_r+0x3a>
100054ce:	681d      	ldr	r5, [r3, #0]
100054d0:	195c      	adds	r4, r3, r5
100054d2:	428c      	cmp	r4, r1
100054d4:	d10b      	bne.n	100054ee <_free_r+0x66>
100054d6:	6809      	ldr	r1, [r1, #0]
100054d8:	1869      	adds	r1, r5, r1
100054da:	1858      	adds	r0, r3, r1
100054dc:	6019      	str	r1, [r3, #0]
100054de:	4290      	cmp	r0, r2
100054e0:	d114      	bne.n	1000550c <_free_r+0x84>
100054e2:	6810      	ldr	r0, [r2, #0]
100054e4:	6852      	ldr	r2, [r2, #4]
100054e6:	1809      	adds	r1, r1, r0
100054e8:	6019      	str	r1, [r3, #0]
100054ea:	605a      	str	r2, [r3, #4]
100054ec:	e00e      	b.n	1000550c <_free_r+0x84>
100054ee:	428c      	cmp	r4, r1
100054f0:	d902      	bls.n	100054f8 <_free_r+0x70>
100054f2:	230c      	movs	r3, #12
100054f4:	6003      	str	r3, [r0, #0]
100054f6:	e009      	b.n	1000550c <_free_r+0x84>
100054f8:	6808      	ldr	r0, [r1, #0]
100054fa:	180c      	adds	r4, r1, r0
100054fc:	4294      	cmp	r4, r2
100054fe:	d103      	bne.n	10005508 <_free_r+0x80>
10005500:	6814      	ldr	r4, [r2, #0]
10005502:	6852      	ldr	r2, [r2, #4]
10005504:	1900      	adds	r0, r0, r4
10005506:	6008      	str	r0, [r1, #0]
10005508:	604a      	str	r2, [r1, #4]
1000550a:	6059      	str	r1, [r3, #4]
1000550c:	bd30      	pop	{r4, r5, pc}
1000550e:	46c0      	nop			; (mov r8, r8)
10005510:	200007e4 	.word	0x200007e4

10005514 <_malloc_r>:
10005514:	2303      	movs	r3, #3
10005516:	b570      	push	{r4, r5, r6, lr}
10005518:	1ccc      	adds	r4, r1, #3
1000551a:	439c      	bics	r4, r3
1000551c:	3408      	adds	r4, #8
1000551e:	1c05      	adds	r5, r0, #0
10005520:	2c0c      	cmp	r4, #12
10005522:	d201      	bcs.n	10005528 <_malloc_r+0x14>
10005524:	240c      	movs	r4, #12
10005526:	e005      	b.n	10005534 <_malloc_r+0x20>
10005528:	2c00      	cmp	r4, #0
1000552a:	da03      	bge.n	10005534 <_malloc_r+0x20>
1000552c:	230c      	movs	r3, #12
1000552e:	2000      	movs	r0, #0
10005530:	602b      	str	r3, [r5, #0]
10005532:	e042      	b.n	100055ba <_malloc_r+0xa6>
10005534:	428c      	cmp	r4, r1
10005536:	d3f9      	bcc.n	1000552c <_malloc_r+0x18>
10005538:	4a20      	ldr	r2, [pc, #128]	; (100055bc <_malloc_r+0xa8>)
1000553a:	6813      	ldr	r3, [r2, #0]
1000553c:	1c10      	adds	r0, r2, #0
1000553e:	1c19      	adds	r1, r3, #0
10005540:	2900      	cmp	r1, #0
10005542:	d013      	beq.n	1000556c <_malloc_r+0x58>
10005544:	680a      	ldr	r2, [r1, #0]
10005546:	1b12      	subs	r2, r2, r4
10005548:	d40d      	bmi.n	10005566 <_malloc_r+0x52>
1000554a:	2a0b      	cmp	r2, #11
1000554c:	d902      	bls.n	10005554 <_malloc_r+0x40>
1000554e:	600a      	str	r2, [r1, #0]
10005550:	188b      	adds	r3, r1, r2
10005552:	e01f      	b.n	10005594 <_malloc_r+0x80>
10005554:	428b      	cmp	r3, r1
10005556:	d102      	bne.n	1000555e <_malloc_r+0x4a>
10005558:	685a      	ldr	r2, [r3, #4]
1000555a:	6002      	str	r2, [r0, #0]
1000555c:	e01b      	b.n	10005596 <_malloc_r+0x82>
1000555e:	684a      	ldr	r2, [r1, #4]
10005560:	605a      	str	r2, [r3, #4]
10005562:	1c0b      	adds	r3, r1, #0
10005564:	e017      	b.n	10005596 <_malloc_r+0x82>
10005566:	1c0b      	adds	r3, r1, #0
10005568:	6849      	ldr	r1, [r1, #4]
1000556a:	e7e9      	b.n	10005540 <_malloc_r+0x2c>
1000556c:	4e14      	ldr	r6, [pc, #80]	; (100055c0 <_malloc_r+0xac>)
1000556e:	6833      	ldr	r3, [r6, #0]
10005570:	2b00      	cmp	r3, #0
10005572:	d103      	bne.n	1000557c <_malloc_r+0x68>
10005574:	1c28      	adds	r0, r5, #0
10005576:	f000 f97b 	bl	10005870 <_sbrk_r>
1000557a:	6030      	str	r0, [r6, #0]
1000557c:	1c28      	adds	r0, r5, #0
1000557e:	1c21      	adds	r1, r4, #0
10005580:	f000 f976 	bl	10005870 <_sbrk_r>
10005584:	1c03      	adds	r3, r0, #0
10005586:	1c42      	adds	r2, r0, #1
10005588:	d0d0      	beq.n	1000552c <_malloc_r+0x18>
1000558a:	2203      	movs	r2, #3
1000558c:	1cc6      	adds	r6, r0, #3
1000558e:	4396      	bics	r6, r2
10005590:	4286      	cmp	r6, r0
10005592:	d10a      	bne.n	100055aa <_malloc_r+0x96>
10005594:	601c      	str	r4, [r3, #0]
10005596:	1c18      	adds	r0, r3, #0
10005598:	2107      	movs	r1, #7
1000559a:	300b      	adds	r0, #11
1000559c:	1d1a      	adds	r2, r3, #4
1000559e:	4388      	bics	r0, r1
100055a0:	1a82      	subs	r2, r0, r2
100055a2:	d00a      	beq.n	100055ba <_malloc_r+0xa6>
100055a4:	4251      	negs	r1, r2
100055a6:	5099      	str	r1, [r3, r2]
100055a8:	e007      	b.n	100055ba <_malloc_r+0xa6>
100055aa:	1a31      	subs	r1, r6, r0
100055ac:	1c28      	adds	r0, r5, #0
100055ae:	f000 f95f 	bl	10005870 <_sbrk_r>
100055b2:	1c43      	adds	r3, r0, #1
100055b4:	d0ba      	beq.n	1000552c <_malloc_r+0x18>
100055b6:	1c33      	adds	r3, r6, #0
100055b8:	e7ec      	b.n	10005594 <_malloc_r+0x80>
100055ba:	bd70      	pop	{r4, r5, r6, pc}
100055bc:	200007e4 	.word	0x200007e4
100055c0:	200007e0 	.word	0x200007e0

100055c4 <__ssputs_r>:
100055c4:	b5f0      	push	{r4, r5, r6, r7, lr}
100055c6:	688e      	ldr	r6, [r1, #8]
100055c8:	b085      	sub	sp, #20
100055ca:	1c07      	adds	r7, r0, #0
100055cc:	1c0c      	adds	r4, r1, #0
100055ce:	9203      	str	r2, [sp, #12]
100055d0:	9301      	str	r3, [sp, #4]
100055d2:	42b3      	cmp	r3, r6
100055d4:	d345      	bcc.n	10005662 <__ssputs_r+0x9e>
100055d6:	2390      	movs	r3, #144	; 0x90
100055d8:	898a      	ldrh	r2, [r1, #12]
100055da:	00db      	lsls	r3, r3, #3
100055dc:	421a      	tst	r2, r3
100055de:	d03d      	beq.n	1000565c <__ssputs_r+0x98>
100055e0:	2503      	movs	r5, #3
100055e2:	6909      	ldr	r1, [r1, #16]
100055e4:	6823      	ldr	r3, [r4, #0]
100055e6:	9801      	ldr	r0, [sp, #4]
100055e8:	1a5b      	subs	r3, r3, r1
100055ea:	9302      	str	r3, [sp, #8]
100055ec:	6963      	ldr	r3, [r4, #20]
100055ee:	435d      	muls	r5, r3
100055f0:	0feb      	lsrs	r3, r5, #31
100055f2:	195d      	adds	r5, r3, r5
100055f4:	9b02      	ldr	r3, [sp, #8]
100055f6:	106d      	asrs	r5, r5, #1
100055f8:	3301      	adds	r3, #1
100055fa:	181b      	adds	r3, r3, r0
100055fc:	429d      	cmp	r5, r3
100055fe:	d200      	bcs.n	10005602 <__ssputs_r+0x3e>
10005600:	1c1d      	adds	r5, r3, #0
10005602:	1c38      	adds	r0, r7, #0
10005604:	0553      	lsls	r3, r2, #21
10005606:	d50f      	bpl.n	10005628 <__ssputs_r+0x64>
10005608:	1c29      	adds	r1, r5, #0
1000560a:	f7ff ff83 	bl	10005514 <_malloc_r>
1000560e:	1e06      	subs	r6, r0, #0
10005610:	d013      	beq.n	1000563a <__ssputs_r+0x76>
10005612:	9a02      	ldr	r2, [sp, #8]
10005614:	6921      	ldr	r1, [r4, #16]
10005616:	f7ff fc34 	bl	10004e82 <memcpy>
1000561a:	89a2      	ldrh	r2, [r4, #12]
1000561c:	4b18      	ldr	r3, [pc, #96]	; (10005680 <__ssputs_r+0xbc>)
1000561e:	4013      	ands	r3, r2
10005620:	2280      	movs	r2, #128	; 0x80
10005622:	4313      	orrs	r3, r2
10005624:	81a3      	strh	r3, [r4, #12]
10005626:	e011      	b.n	1000564c <__ssputs_r+0x88>
10005628:	1c2a      	adds	r2, r5, #0
1000562a:	f000 f94f 	bl	100058cc <_realloc_r>
1000562e:	1e06      	subs	r6, r0, #0
10005630:	d10c      	bne.n	1000564c <__ssputs_r+0x88>
10005632:	1c38      	adds	r0, r7, #0
10005634:	6921      	ldr	r1, [r4, #16]
10005636:	f7ff ff27 	bl	10005488 <_free_r>
1000563a:	230c      	movs	r3, #12
1000563c:	2240      	movs	r2, #64	; 0x40
1000563e:	2001      	movs	r0, #1
10005640:	603b      	str	r3, [r7, #0]
10005642:	89a3      	ldrh	r3, [r4, #12]
10005644:	4240      	negs	r0, r0
10005646:	4313      	orrs	r3, r2
10005648:	81a3      	strh	r3, [r4, #12]
1000564a:	e017      	b.n	1000567c <__ssputs_r+0xb8>
1000564c:	9b02      	ldr	r3, [sp, #8]
1000564e:	6126      	str	r6, [r4, #16]
10005650:	18f6      	adds	r6, r6, r3
10005652:	6026      	str	r6, [r4, #0]
10005654:	6165      	str	r5, [r4, #20]
10005656:	9e01      	ldr	r6, [sp, #4]
10005658:	1aed      	subs	r5, r5, r3
1000565a:	60a5      	str	r5, [r4, #8]
1000565c:	9b01      	ldr	r3, [sp, #4]
1000565e:	42b3      	cmp	r3, r6
10005660:	d200      	bcs.n	10005664 <__ssputs_r+0xa0>
10005662:	9e01      	ldr	r6, [sp, #4]
10005664:	1c32      	adds	r2, r6, #0
10005666:	6820      	ldr	r0, [r4, #0]
10005668:	9903      	ldr	r1, [sp, #12]
1000566a:	f000 f913 	bl	10005894 <memmove>
1000566e:	2000      	movs	r0, #0
10005670:	68a3      	ldr	r3, [r4, #8]
10005672:	1b9b      	subs	r3, r3, r6
10005674:	60a3      	str	r3, [r4, #8]
10005676:	6823      	ldr	r3, [r4, #0]
10005678:	199e      	adds	r6, r3, r6
1000567a:	6026      	str	r6, [r4, #0]
1000567c:	b005      	add	sp, #20
1000567e:	bdf0      	pop	{r4, r5, r6, r7, pc}
10005680:	fffffb7f 	.word	0xfffffb7f

10005684 <_svfiprintf_r>:
10005684:	b5f0      	push	{r4, r5, r6, r7, lr}
10005686:	b09f      	sub	sp, #124	; 0x7c
10005688:	9002      	str	r0, [sp, #8]
1000568a:	9305      	str	r3, [sp, #20]
1000568c:	898b      	ldrh	r3, [r1, #12]
1000568e:	1c0e      	adds	r6, r1, #0
10005690:	1c17      	adds	r7, r2, #0
10005692:	061b      	lsls	r3, r3, #24
10005694:	d510      	bpl.n	100056b8 <_svfiprintf_r+0x34>
10005696:	690b      	ldr	r3, [r1, #16]
10005698:	2b00      	cmp	r3, #0
1000569a:	d10d      	bne.n	100056b8 <_svfiprintf_r+0x34>
1000569c:	2140      	movs	r1, #64	; 0x40
1000569e:	f7ff ff39 	bl	10005514 <_malloc_r>
100056a2:	6030      	str	r0, [r6, #0]
100056a4:	6130      	str	r0, [r6, #16]
100056a6:	2800      	cmp	r0, #0
100056a8:	d104      	bne.n	100056b4 <_svfiprintf_r+0x30>
100056aa:	230c      	movs	r3, #12
100056ac:	9a02      	ldr	r2, [sp, #8]
100056ae:	3801      	subs	r0, #1
100056b0:	6013      	str	r3, [r2, #0]
100056b2:	e0d0      	b.n	10005856 <_svfiprintf_r+0x1d2>
100056b4:	2340      	movs	r3, #64	; 0x40
100056b6:	6173      	str	r3, [r6, #20]
100056b8:	2300      	movs	r3, #0
100056ba:	ad06      	add	r5, sp, #24
100056bc:	616b      	str	r3, [r5, #20]
100056be:	3320      	adds	r3, #32
100056c0:	766b      	strb	r3, [r5, #25]
100056c2:	3310      	adds	r3, #16
100056c4:	76ab      	strb	r3, [r5, #26]
100056c6:	1c3c      	adds	r4, r7, #0
100056c8:	7823      	ldrb	r3, [r4, #0]
100056ca:	2b00      	cmp	r3, #0
100056cc:	d103      	bne.n	100056d6 <_svfiprintf_r+0x52>
100056ce:	1be3      	subs	r3, r4, r7
100056d0:	9304      	str	r3, [sp, #16]
100056d2:	d012      	beq.n	100056fa <_svfiprintf_r+0x76>
100056d4:	e003      	b.n	100056de <_svfiprintf_r+0x5a>
100056d6:	2b25      	cmp	r3, #37	; 0x25
100056d8:	d0f9      	beq.n	100056ce <_svfiprintf_r+0x4a>
100056da:	3401      	adds	r4, #1
100056dc:	e7f4      	b.n	100056c8 <_svfiprintf_r+0x44>
100056de:	9b04      	ldr	r3, [sp, #16]
100056e0:	9802      	ldr	r0, [sp, #8]
100056e2:	1c31      	adds	r1, r6, #0
100056e4:	1c3a      	adds	r2, r7, #0
100056e6:	f7ff ff6d 	bl	100055c4 <__ssputs_r>
100056ea:	1c43      	adds	r3, r0, #1
100056ec:	d100      	bne.n	100056f0 <_svfiprintf_r+0x6c>
100056ee:	e0ac      	b.n	1000584a <_svfiprintf_r+0x1c6>
100056f0:	696a      	ldr	r2, [r5, #20]
100056f2:	9b04      	ldr	r3, [sp, #16]
100056f4:	4694      	mov	ip, r2
100056f6:	4463      	add	r3, ip
100056f8:	616b      	str	r3, [r5, #20]
100056fa:	7823      	ldrb	r3, [r4, #0]
100056fc:	2b00      	cmp	r3, #0
100056fe:	d100      	bne.n	10005702 <_svfiprintf_r+0x7e>
10005700:	e0a3      	b.n	1000584a <_svfiprintf_r+0x1c6>
10005702:	2201      	movs	r2, #1
10005704:	2300      	movs	r3, #0
10005706:	4252      	negs	r2, r2
10005708:	606a      	str	r2, [r5, #4]
1000570a:	a902      	add	r1, sp, #8
1000570c:	3254      	adds	r2, #84	; 0x54
1000570e:	1852      	adds	r2, r2, r1
10005710:	3401      	adds	r4, #1
10005712:	602b      	str	r3, [r5, #0]
10005714:	60eb      	str	r3, [r5, #12]
10005716:	60ab      	str	r3, [r5, #8]
10005718:	7013      	strb	r3, [r2, #0]
1000571a:	65ab      	str	r3, [r5, #88]	; 0x58
1000571c:	4f4f      	ldr	r7, [pc, #316]	; (1000585c <_svfiprintf_r+0x1d8>)
1000571e:	7821      	ldrb	r1, [r4, #0]
10005720:	1c38      	adds	r0, r7, #0
10005722:	2205      	movs	r2, #5
10005724:	f7ff fba2 	bl	10004e6c <memchr>
10005728:	2800      	cmp	r0, #0
1000572a:	d008      	beq.n	1000573e <_svfiprintf_r+0xba>
1000572c:	1bc0      	subs	r0, r0, r7
1000572e:	2701      	movs	r7, #1
10005730:	4087      	lsls	r7, r0
10005732:	1c38      	adds	r0, r7, #0
10005734:	682b      	ldr	r3, [r5, #0]
10005736:	3401      	adds	r4, #1
10005738:	4318      	orrs	r0, r3
1000573a:	6028      	str	r0, [r5, #0]
1000573c:	e7ee      	b.n	1000571c <_svfiprintf_r+0x98>
1000573e:	682b      	ldr	r3, [r5, #0]
10005740:	06da      	lsls	r2, r3, #27
10005742:	d504      	bpl.n	1000574e <_svfiprintf_r+0xca>
10005744:	2253      	movs	r2, #83	; 0x53
10005746:	2120      	movs	r1, #32
10005748:	a802      	add	r0, sp, #8
1000574a:	1812      	adds	r2, r2, r0
1000574c:	7011      	strb	r1, [r2, #0]
1000574e:	071a      	lsls	r2, r3, #28
10005750:	d504      	bpl.n	1000575c <_svfiprintf_r+0xd8>
10005752:	2253      	movs	r2, #83	; 0x53
10005754:	212b      	movs	r1, #43	; 0x2b
10005756:	a802      	add	r0, sp, #8
10005758:	1812      	adds	r2, r2, r0
1000575a:	7011      	strb	r1, [r2, #0]
1000575c:	7822      	ldrb	r2, [r4, #0]
1000575e:	2a2a      	cmp	r2, #42	; 0x2a
10005760:	d001      	beq.n	10005766 <_svfiprintf_r+0xe2>
10005762:	9b09      	ldr	r3, [sp, #36]	; 0x24
10005764:	e00e      	b.n	10005784 <_svfiprintf_r+0x100>
10005766:	9a05      	ldr	r2, [sp, #20]
10005768:	1d11      	adds	r1, r2, #4
1000576a:	6812      	ldr	r2, [r2, #0]
1000576c:	9105      	str	r1, [sp, #20]
1000576e:	2a00      	cmp	r2, #0
10005770:	db01      	blt.n	10005776 <_svfiprintf_r+0xf2>
10005772:	9209      	str	r2, [sp, #36]	; 0x24
10005774:	e004      	b.n	10005780 <_svfiprintf_r+0xfc>
10005776:	4252      	negs	r2, r2
10005778:	60ea      	str	r2, [r5, #12]
1000577a:	2202      	movs	r2, #2
1000577c:	4313      	orrs	r3, r2
1000577e:	602b      	str	r3, [r5, #0]
10005780:	3401      	adds	r4, #1
10005782:	e009      	b.n	10005798 <_svfiprintf_r+0x114>
10005784:	7822      	ldrb	r2, [r4, #0]
10005786:	3a30      	subs	r2, #48	; 0x30
10005788:	2a09      	cmp	r2, #9
1000578a:	d804      	bhi.n	10005796 <_svfiprintf_r+0x112>
1000578c:	210a      	movs	r1, #10
1000578e:	434b      	muls	r3, r1
10005790:	3401      	adds	r4, #1
10005792:	189b      	adds	r3, r3, r2
10005794:	e7f6      	b.n	10005784 <_svfiprintf_r+0x100>
10005796:	9309      	str	r3, [sp, #36]	; 0x24
10005798:	7823      	ldrb	r3, [r4, #0]
1000579a:	2b2e      	cmp	r3, #46	; 0x2e
1000579c:	d118      	bne.n	100057d0 <_svfiprintf_r+0x14c>
1000579e:	7863      	ldrb	r3, [r4, #1]
100057a0:	2b2a      	cmp	r3, #42	; 0x2a
100057a2:	d109      	bne.n	100057b8 <_svfiprintf_r+0x134>
100057a4:	9b05      	ldr	r3, [sp, #20]
100057a6:	3402      	adds	r4, #2
100057a8:	1d1a      	adds	r2, r3, #4
100057aa:	681b      	ldr	r3, [r3, #0]
100057ac:	9205      	str	r2, [sp, #20]
100057ae:	2b00      	cmp	r3, #0
100057b0:	da0d      	bge.n	100057ce <_svfiprintf_r+0x14a>
100057b2:	2301      	movs	r3, #1
100057b4:	425b      	negs	r3, r3
100057b6:	e00a      	b.n	100057ce <_svfiprintf_r+0x14a>
100057b8:	2300      	movs	r3, #0
100057ba:	3401      	adds	r4, #1
100057bc:	7822      	ldrb	r2, [r4, #0]
100057be:	3a30      	subs	r2, #48	; 0x30
100057c0:	2a09      	cmp	r2, #9
100057c2:	d804      	bhi.n	100057ce <_svfiprintf_r+0x14a>
100057c4:	210a      	movs	r1, #10
100057c6:	434b      	muls	r3, r1
100057c8:	3401      	adds	r4, #1
100057ca:	189b      	adds	r3, r3, r2
100057cc:	e7f6      	b.n	100057bc <_svfiprintf_r+0x138>
100057ce:	9307      	str	r3, [sp, #28]
100057d0:	4f23      	ldr	r7, [pc, #140]	; (10005860 <_svfiprintf_r+0x1dc>)
100057d2:	7821      	ldrb	r1, [r4, #0]
100057d4:	1c38      	adds	r0, r7, #0
100057d6:	2203      	movs	r2, #3
100057d8:	f7ff fb48 	bl	10004e6c <memchr>
100057dc:	2800      	cmp	r0, #0
100057de:	d007      	beq.n	100057f0 <_svfiprintf_r+0x16c>
100057e0:	1bc0      	subs	r0, r0, r7
100057e2:	2740      	movs	r7, #64	; 0x40
100057e4:	4087      	lsls	r7, r0
100057e6:	1c38      	adds	r0, r7, #0
100057e8:	682b      	ldr	r3, [r5, #0]
100057ea:	3401      	adds	r4, #1
100057ec:	4318      	orrs	r0, r3
100057ee:	6028      	str	r0, [r5, #0]
100057f0:	7821      	ldrb	r1, [r4, #0]
100057f2:	481c      	ldr	r0, [pc, #112]	; (10005864 <_svfiprintf_r+0x1e0>)
100057f4:	2206      	movs	r2, #6
100057f6:	1c67      	adds	r7, r4, #1
100057f8:	7629      	strb	r1, [r5, #24]
100057fa:	f7ff fb37 	bl	10004e6c <memchr>
100057fe:	2800      	cmp	r0, #0
10005800:	d012      	beq.n	10005828 <_svfiprintf_r+0x1a4>
10005802:	4b19      	ldr	r3, [pc, #100]	; (10005868 <_svfiprintf_r+0x1e4>)
10005804:	2b00      	cmp	r3, #0
10005806:	d106      	bne.n	10005816 <_svfiprintf_r+0x192>
10005808:	2207      	movs	r2, #7
1000580a:	9b05      	ldr	r3, [sp, #20]
1000580c:	3307      	adds	r3, #7
1000580e:	4393      	bics	r3, r2
10005810:	3308      	adds	r3, #8
10005812:	9305      	str	r3, [sp, #20]
10005814:	e014      	b.n	10005840 <_svfiprintf_r+0x1bc>
10005816:	ab05      	add	r3, sp, #20
10005818:	9300      	str	r3, [sp, #0]
1000581a:	9802      	ldr	r0, [sp, #8]
1000581c:	1c29      	adds	r1, r5, #0
1000581e:	1c32      	adds	r2, r6, #0
10005820:	4b12      	ldr	r3, [pc, #72]	; (1000586c <_svfiprintf_r+0x1e8>)
10005822:	f7fe f87f 	bl	10003924 <_printf_float>
10005826:	e007      	b.n	10005838 <_svfiprintf_r+0x1b4>
10005828:	ab05      	add	r3, sp, #20
1000582a:	9300      	str	r3, [sp, #0]
1000582c:	9802      	ldr	r0, [sp, #8]
1000582e:	1c29      	adds	r1, r5, #0
10005830:	1c32      	adds	r2, r6, #0
10005832:	4b0e      	ldr	r3, [pc, #56]	; (1000586c <_svfiprintf_r+0x1e8>)
10005834:	f7fe fb1c 	bl	10003e70 <_printf_i>
10005838:	9003      	str	r0, [sp, #12]
1000583a:	9b03      	ldr	r3, [sp, #12]
1000583c:	3301      	adds	r3, #1
1000583e:	d004      	beq.n	1000584a <_svfiprintf_r+0x1c6>
10005840:	696b      	ldr	r3, [r5, #20]
10005842:	9a03      	ldr	r2, [sp, #12]
10005844:	189b      	adds	r3, r3, r2
10005846:	616b      	str	r3, [r5, #20]
10005848:	e73d      	b.n	100056c6 <_svfiprintf_r+0x42>
1000584a:	89b3      	ldrh	r3, [r6, #12]
1000584c:	980b      	ldr	r0, [sp, #44]	; 0x2c
1000584e:	065b      	lsls	r3, r3, #25
10005850:	d501      	bpl.n	10005856 <_svfiprintf_r+0x1d2>
10005852:	2001      	movs	r0, #1
10005854:	4240      	negs	r0, r0
10005856:	b01f      	add	sp, #124	; 0x7c
10005858:	bdf0      	pop	{r4, r5, r6, r7, pc}
1000585a:	46c0      	nop			; (mov r8, r8)
1000585c:	10007a0c 	.word	0x10007a0c
10005860:	10007a12 	.word	0x10007a12
10005864:	10007a16 	.word	0x10007a16
10005868:	10003925 	.word	0x10003925
1000586c:	100055c5 	.word	0x100055c5

10005870 <_sbrk_r>:
10005870:	b538      	push	{r3, r4, r5, lr}
10005872:	2300      	movs	r3, #0
10005874:	4c06      	ldr	r4, [pc, #24]	; (10005890 <_sbrk_r+0x20>)
10005876:	1c05      	adds	r5, r0, #0
10005878:	1c08      	adds	r0, r1, #0
1000587a:	6023      	str	r3, [r4, #0]
1000587c:	f7fc fa18 	bl	10001cb0 <_sbrk>
10005880:	1c43      	adds	r3, r0, #1
10005882:	d103      	bne.n	1000588c <_sbrk_r+0x1c>
10005884:	6823      	ldr	r3, [r4, #0]
10005886:	2b00      	cmp	r3, #0
10005888:	d000      	beq.n	1000588c <_sbrk_r+0x1c>
1000588a:	602b      	str	r3, [r5, #0]
1000588c:	bd38      	pop	{r3, r4, r5, pc}
1000588e:	46c0      	nop			; (mov r8, r8)
10005890:	20000984 	.word	0x20000984

10005894 <memmove>:
10005894:	b510      	push	{r4, lr}
10005896:	4281      	cmp	r1, r0
10005898:	d208      	bcs.n	100058ac <memmove+0x18>
1000589a:	188b      	adds	r3, r1, r2
1000589c:	4298      	cmp	r0, r3
1000589e:	d205      	bcs.n	100058ac <memmove+0x18>
100058a0:	1a9b      	subs	r3, r3, r2
100058a2:	3a01      	subs	r2, #1
100058a4:	d309      	bcc.n	100058ba <memmove+0x26>
100058a6:	5c99      	ldrb	r1, [r3, r2]
100058a8:	5481      	strb	r1, [r0, r2]
100058aa:	e7fa      	b.n	100058a2 <memmove+0xe>
100058ac:	2300      	movs	r3, #0
100058ae:	4293      	cmp	r3, r2
100058b0:	d003      	beq.n	100058ba <memmove+0x26>
100058b2:	5ccc      	ldrb	r4, [r1, r3]
100058b4:	54c4      	strb	r4, [r0, r3]
100058b6:	3301      	adds	r3, #1
100058b8:	e7f9      	b.n	100058ae <memmove+0x1a>
100058ba:	bd10      	pop	{r4, pc}

100058bc <memset>:
100058bc:	1c03      	adds	r3, r0, #0
100058be:	1882      	adds	r2, r0, r2
100058c0:	4293      	cmp	r3, r2
100058c2:	d002      	beq.n	100058ca <memset+0xe>
100058c4:	7019      	strb	r1, [r3, #0]
100058c6:	3301      	adds	r3, #1
100058c8:	e7fa      	b.n	100058c0 <memset+0x4>
100058ca:	4770      	bx	lr

100058cc <_realloc_r>:
100058cc:	b5f8      	push	{r3, r4, r5, r6, r7, lr}
100058ce:	1c06      	adds	r6, r0, #0
100058d0:	1c0c      	adds	r4, r1, #0
100058d2:	1c15      	adds	r5, r2, #0
100058d4:	2900      	cmp	r1, #0
100058d6:	d104      	bne.n	100058e2 <_realloc_r+0x16>
100058d8:	1c11      	adds	r1, r2, #0
100058da:	f7ff fe1b 	bl	10005514 <_malloc_r>
100058de:	1c04      	adds	r4, r0, #0
100058e0:	e018      	b.n	10005914 <_realloc_r+0x48>
100058e2:	2a00      	cmp	r2, #0
100058e4:	d103      	bne.n	100058ee <_realloc_r+0x22>
100058e6:	f7ff fdcf 	bl	10005488 <_free_r>
100058ea:	1c2c      	adds	r4, r5, #0
100058ec:	e012      	b.n	10005914 <_realloc_r+0x48>
100058ee:	f000 f813 	bl	10005918 <_malloc_usable_size_r>
100058f2:	42a8      	cmp	r0, r5
100058f4:	d20e      	bcs.n	10005914 <_realloc_r+0x48>
100058f6:	1c30      	adds	r0, r6, #0
100058f8:	1c29      	adds	r1, r5, #0
100058fa:	f7ff fe0b 	bl	10005514 <_malloc_r>
100058fe:	1e07      	subs	r7, r0, #0
10005900:	d007      	beq.n	10005912 <_realloc_r+0x46>
10005902:	1c21      	adds	r1, r4, #0
10005904:	1c2a      	adds	r2, r5, #0
10005906:	f7ff fabc 	bl	10004e82 <memcpy>
1000590a:	1c30      	adds	r0, r6, #0
1000590c:	1c21      	adds	r1, r4, #0
1000590e:	f7ff fdbb 	bl	10005488 <_free_r>
10005912:	1c3c      	adds	r4, r7, #0
10005914:	1c20      	adds	r0, r4, #0
10005916:	bdf8      	pop	{r3, r4, r5, r6, r7, pc}

10005918 <_malloc_usable_size_r>:
10005918:	1f0b      	subs	r3, r1, #4
1000591a:	681a      	ldr	r2, [r3, #0]
1000591c:	1f10      	subs	r0, r2, #4
1000591e:	2a00      	cmp	r2, #0
10005920:	da04      	bge.n	1000592c <_malloc_usable_size_r+0x14>
10005922:	1889      	adds	r1, r1, r2
10005924:	3904      	subs	r1, #4
10005926:	680b      	ldr	r3, [r1, #0]
10005928:	18d0      	adds	r0, r2, r3
1000592a:	3804      	subs	r0, #4
1000592c:	4770      	bx	lr
	...

10005930 <__gnu_thumb1_case_uqi>:
10005930:	b402      	push	{r1}
10005932:	4671      	mov	r1, lr
10005934:	0849      	lsrs	r1, r1, #1
10005936:	0049      	lsls	r1, r1, #1
10005938:	5c09      	ldrb	r1, [r1, r0]
1000593a:	0049      	lsls	r1, r1, #1
1000593c:	448e      	add	lr, r1
1000593e:	bc02      	pop	{r1}
10005940:	4770      	bx	lr
10005942:	46c0      	nop			; (mov r8, r8)

10005944 <__aeabi_cdrcmple>:
10005944:	4684      	mov	ip, r0
10005946:	1c10      	adds	r0, r2, #0
10005948:	4662      	mov	r2, ip
1000594a:	468c      	mov	ip, r1
1000594c:	1c19      	adds	r1, r3, #0
1000594e:	4663      	mov	r3, ip
10005950:	e000      	b.n	10005954 <__aeabi_cdcmpeq>
10005952:	46c0      	nop			; (mov r8, r8)

10005954 <__aeabi_cdcmpeq>:
10005954:	b51f      	push	{r0, r1, r2, r3, r4, lr}
10005956:	f000 ff33 	bl	100067c0 <__ledf2>
1000595a:	2800      	cmp	r0, #0
1000595c:	d401      	bmi.n	10005962 <__aeabi_cdcmpeq+0xe>
1000595e:	2100      	movs	r1, #0
10005960:	42c8      	cmn	r0, r1
10005962:	bd1f      	pop	{r0, r1, r2, r3, r4, pc}

10005964 <__aeabi_dcmpeq>:
10005964:	b510      	push	{r4, lr}
10005966:	f000 fe77 	bl	10006658 <__eqdf2>
1000596a:	4240      	negs	r0, r0
1000596c:	3001      	adds	r0, #1
1000596e:	bd10      	pop	{r4, pc}

10005970 <__aeabi_dcmplt>:
10005970:	b510      	push	{r4, lr}
10005972:	f000 ff25 	bl	100067c0 <__ledf2>
10005976:	2800      	cmp	r0, #0
10005978:	db01      	blt.n	1000597e <__aeabi_dcmplt+0xe>
1000597a:	2000      	movs	r0, #0
1000597c:	bd10      	pop	{r4, pc}
1000597e:	2001      	movs	r0, #1
10005980:	bd10      	pop	{r4, pc}
10005982:	46c0      	nop			; (mov r8, r8)

10005984 <__aeabi_dcmple>:
10005984:	b510      	push	{r4, lr}
10005986:	f000 ff1b 	bl	100067c0 <__ledf2>
1000598a:	2800      	cmp	r0, #0
1000598c:	dd01      	ble.n	10005992 <__aeabi_dcmple+0xe>
1000598e:	2000      	movs	r0, #0
10005990:	bd10      	pop	{r4, pc}
10005992:	2001      	movs	r0, #1
10005994:	bd10      	pop	{r4, pc}
10005996:	46c0      	nop			; (mov r8, r8)

10005998 <__aeabi_dcmpgt>:
10005998:	b510      	push	{r4, lr}
1000599a:	f000 fea1 	bl	100066e0 <__gedf2>
1000599e:	2800      	cmp	r0, #0
100059a0:	dc01      	bgt.n	100059a6 <__aeabi_dcmpgt+0xe>
100059a2:	2000      	movs	r0, #0
100059a4:	bd10      	pop	{r4, pc}
100059a6:	2001      	movs	r0, #1
100059a8:	bd10      	pop	{r4, pc}
100059aa:	46c0      	nop			; (mov r8, r8)

100059ac <__aeabi_dcmpge>:
100059ac:	b510      	push	{r4, lr}
100059ae:	f000 fe97 	bl	100066e0 <__gedf2>
100059b2:	2800      	cmp	r0, #0
100059b4:	da01      	bge.n	100059ba <__aeabi_dcmpge+0xe>
100059b6:	2000      	movs	r0, #0
100059b8:	bd10      	pop	{r4, pc}
100059ba:	2001      	movs	r0, #1
100059bc:	bd10      	pop	{r4, pc}
100059be:	46c0      	nop			; (mov r8, r8)

100059c0 <__aeabi_dadd>:
100059c0:	b5f0      	push	{r4, r5, r6, r7, lr}
100059c2:	4645      	mov	r5, r8
100059c4:	4657      	mov	r7, sl
100059c6:	464e      	mov	r6, r9
100059c8:	4694      	mov	ip, r2
100059ca:	004c      	lsls	r4, r1, #1
100059cc:	030a      	lsls	r2, r1, #12
100059ce:	0fc9      	lsrs	r1, r1, #31
100059d0:	b4e0      	push	{r5, r6, r7}
100059d2:	4688      	mov	r8, r1
100059d4:	1c0e      	adds	r6, r1, #0
100059d6:	0319      	lsls	r1, r3, #12
100059d8:	0f47      	lsrs	r7, r0, #29
100059da:	00c5      	lsls	r5, r0, #3
100059dc:	0a48      	lsrs	r0, r1, #9
100059de:	4661      	mov	r1, ip
100059e0:	0f49      	lsrs	r1, r1, #29
100059e2:	4301      	orrs	r1, r0
100059e4:	4660      	mov	r0, ip
100059e6:	0a52      	lsrs	r2, r2, #9
100059e8:	4317      	orrs	r7, r2
100059ea:	00c0      	lsls	r0, r0, #3
100059ec:	005a      	lsls	r2, r3, #1
100059ee:	0d64      	lsrs	r4, r4, #21
100059f0:	0d52      	lsrs	r2, r2, #21
100059f2:	0fdb      	lsrs	r3, r3, #31
100059f4:	4684      	mov	ip, r0
100059f6:	4598      	cmp	r8, r3
100059f8:	d100      	bne.n	100059fc <__aeabi_dadd+0x3c>
100059fa:	e0a7      	b.n	10005b4c <__aeabi_dadd+0x18c>
100059fc:	1aa0      	subs	r0, r4, r2
100059fe:	2800      	cmp	r0, #0
10005a00:	dc00      	bgt.n	10005a04 <__aeabi_dadd+0x44>
10005a02:	e101      	b.n	10005c08 <__aeabi_dadd+0x248>
10005a04:	2a00      	cmp	r2, #0
10005a06:	d13d      	bne.n	10005a84 <__aeabi_dadd+0xc4>
10005a08:	4663      	mov	r3, ip
10005a0a:	430b      	orrs	r3, r1
10005a0c:	d000      	beq.n	10005a10 <__aeabi_dadd+0x50>
10005a0e:	e0d4      	b.n	10005bba <__aeabi_dadd+0x1fa>
10005a10:	076b      	lsls	r3, r5, #29
10005a12:	d100      	bne.n	10005a16 <__aeabi_dadd+0x56>
10005a14:	e088      	b.n	10005b28 <__aeabi_dadd+0x168>
10005a16:	230f      	movs	r3, #15
10005a18:	402b      	ands	r3, r5
10005a1a:	2b04      	cmp	r3, #4
10005a1c:	d100      	bne.n	10005a20 <__aeabi_dadd+0x60>
10005a1e:	e083      	b.n	10005b28 <__aeabi_dadd+0x168>
10005a20:	1d2a      	adds	r2, r5, #4
10005a22:	42aa      	cmp	r2, r5
10005a24:	41ad      	sbcs	r5, r5
10005a26:	2380      	movs	r3, #128	; 0x80
10005a28:	426d      	negs	r5, r5
10005a2a:	197f      	adds	r7, r7, r5
10005a2c:	041b      	lsls	r3, r3, #16
10005a2e:	403b      	ands	r3, r7
10005a30:	4646      	mov	r6, r8
10005a32:	1c15      	adds	r5, r2, #0
10005a34:	2b00      	cmp	r3, #0
10005a36:	d100      	bne.n	10005a3a <__aeabi_dadd+0x7a>
10005a38:	e07c      	b.n	10005b34 <__aeabi_dadd+0x174>
10005a3a:	4bcc      	ldr	r3, [pc, #816]	; (10005d6c <__aeabi_dadd+0x3ac>)
10005a3c:	3401      	adds	r4, #1
10005a3e:	429c      	cmp	r4, r3
10005a40:	d100      	bne.n	10005a44 <__aeabi_dadd+0x84>
10005a42:	e0fd      	b.n	10005c40 <__aeabi_dadd+0x280>
10005a44:	1c3a      	adds	r2, r7, #0
10005a46:	4bca      	ldr	r3, [pc, #808]	; (10005d70 <__aeabi_dadd+0x3b0>)
10005a48:	08ed      	lsrs	r5, r5, #3
10005a4a:	401a      	ands	r2, r3
10005a4c:	0750      	lsls	r0, r2, #29
10005a4e:	0564      	lsls	r4, r4, #21
10005a50:	0252      	lsls	r2, r2, #9
10005a52:	4305      	orrs	r5, r0
10005a54:	0b12      	lsrs	r2, r2, #12
10005a56:	0d64      	lsrs	r4, r4, #21
10005a58:	2100      	movs	r1, #0
10005a5a:	0312      	lsls	r2, r2, #12
10005a5c:	0d0b      	lsrs	r3, r1, #20
10005a5e:	051b      	lsls	r3, r3, #20
10005a60:	0564      	lsls	r4, r4, #21
10005a62:	0b12      	lsrs	r2, r2, #12
10005a64:	431a      	orrs	r2, r3
10005a66:	0863      	lsrs	r3, r4, #1
10005a68:	4cc2      	ldr	r4, [pc, #776]	; (10005d74 <__aeabi_dadd+0x3b4>)
10005a6a:	07f6      	lsls	r6, r6, #31
10005a6c:	4014      	ands	r4, r2
10005a6e:	431c      	orrs	r4, r3
10005a70:	0064      	lsls	r4, r4, #1
10005a72:	0864      	lsrs	r4, r4, #1
10005a74:	4334      	orrs	r4, r6
10005a76:	1c28      	adds	r0, r5, #0
10005a78:	1c21      	adds	r1, r4, #0
10005a7a:	bc1c      	pop	{r2, r3, r4}
10005a7c:	4690      	mov	r8, r2
10005a7e:	4699      	mov	r9, r3
10005a80:	46a2      	mov	sl, r4
10005a82:	bdf0      	pop	{r4, r5, r6, r7, pc}
10005a84:	4bb9      	ldr	r3, [pc, #740]	; (10005d6c <__aeabi_dadd+0x3ac>)
10005a86:	429c      	cmp	r4, r3
10005a88:	d0c2      	beq.n	10005a10 <__aeabi_dadd+0x50>
10005a8a:	2380      	movs	r3, #128	; 0x80
10005a8c:	041b      	lsls	r3, r3, #16
10005a8e:	4319      	orrs	r1, r3
10005a90:	2838      	cmp	r0, #56	; 0x38
10005a92:	dd00      	ble.n	10005a96 <__aeabi_dadd+0xd6>
10005a94:	e0ec      	b.n	10005c70 <__aeabi_dadd+0x2b0>
10005a96:	281f      	cmp	r0, #31
10005a98:	dd00      	ble.n	10005a9c <__aeabi_dadd+0xdc>
10005a9a:	e121      	b.n	10005ce0 <__aeabi_dadd+0x320>
10005a9c:	2220      	movs	r2, #32
10005a9e:	1c0e      	adds	r6, r1, #0
10005aa0:	4663      	mov	r3, ip
10005aa2:	1a12      	subs	r2, r2, r0
10005aa4:	4096      	lsls	r6, r2
10005aa6:	40c3      	lsrs	r3, r0
10005aa8:	4333      	orrs	r3, r6
10005aaa:	4666      	mov	r6, ip
10005aac:	4096      	lsls	r6, r2
10005aae:	1c32      	adds	r2, r6, #0
10005ab0:	1e56      	subs	r6, r2, #1
10005ab2:	41b2      	sbcs	r2, r6
10005ab4:	4313      	orrs	r3, r2
10005ab6:	1c0a      	adds	r2, r1, #0
10005ab8:	40c2      	lsrs	r2, r0
10005aba:	1aeb      	subs	r3, r5, r3
10005abc:	429d      	cmp	r5, r3
10005abe:	41b6      	sbcs	r6, r6
10005ac0:	1c1d      	adds	r5, r3, #0
10005ac2:	1aba      	subs	r2, r7, r2
10005ac4:	4276      	negs	r6, r6
10005ac6:	1b97      	subs	r7, r2, r6
10005ac8:	023b      	lsls	r3, r7, #8
10005aca:	d400      	bmi.n	10005ace <__aeabi_dadd+0x10e>
10005acc:	e097      	b.n	10005bfe <__aeabi_dadd+0x23e>
10005ace:	027a      	lsls	r2, r7, #9
10005ad0:	0a56      	lsrs	r6, r2, #9
10005ad2:	2e00      	cmp	r6, #0
10005ad4:	d100      	bne.n	10005ad8 <__aeabi_dadd+0x118>
10005ad6:	e0b6      	b.n	10005c46 <__aeabi_dadd+0x286>
10005ad8:	1c30      	adds	r0, r6, #0
10005ada:	f7fd fe43 	bl	10003764 <__clzsi2>
10005ade:	1c03      	adds	r3, r0, #0
10005ae0:	3b08      	subs	r3, #8
10005ae2:	2b1f      	cmp	r3, #31
10005ae4:	dd00      	ble.n	10005ae8 <__aeabi_dadd+0x128>
10005ae6:	e0b7      	b.n	10005c58 <__aeabi_dadd+0x298>
10005ae8:	409e      	lsls	r6, r3
10005aea:	1c37      	adds	r7, r6, #0
10005aec:	2628      	movs	r6, #40	; 0x28
10005aee:	1c2a      	adds	r2, r5, #0
10005af0:	1a36      	subs	r6, r6, r0
10005af2:	40f2      	lsrs	r2, r6
10005af4:	1c16      	adds	r6, r2, #0
10005af6:	409d      	lsls	r5, r3
10005af8:	433e      	orrs	r6, r7
10005afa:	429c      	cmp	r4, r3
10005afc:	dd00      	ble.n	10005b00 <__aeabi_dadd+0x140>
10005afe:	e0b2      	b.n	10005c66 <__aeabi_dadd+0x2a6>
10005b00:	1b1c      	subs	r4, r3, r4
10005b02:	1c62      	adds	r2, r4, #1
10005b04:	2a1f      	cmp	r2, #31
10005b06:	dd00      	ble.n	10005b0a <__aeabi_dadd+0x14a>
10005b08:	e0d8      	b.n	10005cbc <__aeabi_dadd+0x2fc>
10005b0a:	231f      	movs	r3, #31
10005b0c:	1c29      	adds	r1, r5, #0
10005b0e:	1b1c      	subs	r4, r3, r4
10005b10:	1c33      	adds	r3, r6, #0
10005b12:	40a5      	lsls	r5, r4
10005b14:	40a3      	lsls	r3, r4
10005b16:	40d1      	lsrs	r1, r2
10005b18:	1e6c      	subs	r4, r5, #1
10005b1a:	41a5      	sbcs	r5, r4
10005b1c:	40d6      	lsrs	r6, r2
10005b1e:	4319      	orrs	r1, r3
10005b20:	430d      	orrs	r5, r1
10005b22:	1c37      	adds	r7, r6, #0
10005b24:	2400      	movs	r4, #0
10005b26:	e773      	b.n	10005a10 <__aeabi_dadd+0x50>
10005b28:	2380      	movs	r3, #128	; 0x80
10005b2a:	041b      	lsls	r3, r3, #16
10005b2c:	403b      	ands	r3, r7
10005b2e:	4646      	mov	r6, r8
10005b30:	d000      	beq.n	10005b34 <__aeabi_dadd+0x174>
10005b32:	e782      	b.n	10005a3a <__aeabi_dadd+0x7a>
10005b34:	4b8d      	ldr	r3, [pc, #564]	; (10005d6c <__aeabi_dadd+0x3ac>)
10005b36:	08ed      	lsrs	r5, r5, #3
10005b38:	0778      	lsls	r0, r7, #29
10005b3a:	4305      	orrs	r5, r0
10005b3c:	08fa      	lsrs	r2, r7, #3
10005b3e:	429c      	cmp	r4, r3
10005b40:	d032      	beq.n	10005ba8 <__aeabi_dadd+0x1e8>
10005b42:	0312      	lsls	r2, r2, #12
10005b44:	0564      	lsls	r4, r4, #21
10005b46:	0b12      	lsrs	r2, r2, #12
10005b48:	0d64      	lsrs	r4, r4, #21
10005b4a:	e785      	b.n	10005a58 <__aeabi_dadd+0x98>
10005b4c:	1aa3      	subs	r3, r4, r2
10005b4e:	2b00      	cmp	r3, #0
10005b50:	dc00      	bgt.n	10005b54 <__aeabi_dadd+0x194>
10005b52:	e094      	b.n	10005c7e <__aeabi_dadd+0x2be>
10005b54:	2a00      	cmp	r2, #0
10005b56:	d03c      	beq.n	10005bd2 <__aeabi_dadd+0x212>
10005b58:	4a84      	ldr	r2, [pc, #528]	; (10005d6c <__aeabi_dadd+0x3ac>)
10005b5a:	4294      	cmp	r4, r2
10005b5c:	d100      	bne.n	10005b60 <__aeabi_dadd+0x1a0>
10005b5e:	e757      	b.n	10005a10 <__aeabi_dadd+0x50>
10005b60:	2280      	movs	r2, #128	; 0x80
10005b62:	0412      	lsls	r2, r2, #16
10005b64:	4311      	orrs	r1, r2
10005b66:	2b38      	cmp	r3, #56	; 0x38
10005b68:	dc00      	bgt.n	10005b6c <__aeabi_dadd+0x1ac>
10005b6a:	e105      	b.n	10005d78 <__aeabi_dadd+0x3b8>
10005b6c:	4663      	mov	r3, ip
10005b6e:	4319      	orrs	r1, r3
10005b70:	1e48      	subs	r0, r1, #1
10005b72:	4181      	sbcs	r1, r0
10005b74:	2200      	movs	r2, #0
10005b76:	b2c8      	uxtb	r0, r1
10005b78:	1940      	adds	r0, r0, r5
10005b7a:	42a8      	cmp	r0, r5
10005b7c:	419b      	sbcs	r3, r3
10005b7e:	1c05      	adds	r5, r0, #0
10005b80:	19d2      	adds	r2, r2, r7
10005b82:	425b      	negs	r3, r3
10005b84:	18d7      	adds	r7, r2, r3
10005b86:	023b      	lsls	r3, r7, #8
10005b88:	d539      	bpl.n	10005bfe <__aeabi_dadd+0x23e>
10005b8a:	4b78      	ldr	r3, [pc, #480]	; (10005d6c <__aeabi_dadd+0x3ac>)
10005b8c:	3401      	adds	r4, #1
10005b8e:	429c      	cmp	r4, r3
10005b90:	d100      	bne.n	10005b94 <__aeabi_dadd+0x1d4>
10005b92:	e14c      	b.n	10005e2e <__aeabi_dadd+0x46e>
10005b94:	2001      	movs	r0, #1
10005b96:	4a76      	ldr	r2, [pc, #472]	; (10005d70 <__aeabi_dadd+0x3b0>)
10005b98:	086b      	lsrs	r3, r5, #1
10005b9a:	403a      	ands	r2, r7
10005b9c:	4028      	ands	r0, r5
10005b9e:	4318      	orrs	r0, r3
10005ba0:	07d5      	lsls	r5, r2, #31
10005ba2:	4305      	orrs	r5, r0
10005ba4:	0857      	lsrs	r7, r2, #1
10005ba6:	e733      	b.n	10005a10 <__aeabi_dadd+0x50>
10005ba8:	1c2b      	adds	r3, r5, #0
10005baa:	4313      	orrs	r3, r2
10005bac:	d048      	beq.n	10005c40 <__aeabi_dadd+0x280>
10005bae:	2380      	movs	r3, #128	; 0x80
10005bb0:	031b      	lsls	r3, r3, #12
10005bb2:	431a      	orrs	r2, r3
10005bb4:	0312      	lsls	r2, r2, #12
10005bb6:	0b12      	lsrs	r2, r2, #12
10005bb8:	e74e      	b.n	10005a58 <__aeabi_dadd+0x98>
10005bba:	3801      	subs	r0, #1
10005bbc:	2800      	cmp	r0, #0
10005bbe:	d178      	bne.n	10005cb2 <__aeabi_dadd+0x2f2>
10005bc0:	4663      	mov	r3, ip
10005bc2:	1aee      	subs	r6, r5, r3
10005bc4:	42b5      	cmp	r5, r6
10005bc6:	419b      	sbcs	r3, r3
10005bc8:	1a7a      	subs	r2, r7, r1
10005bca:	425b      	negs	r3, r3
10005bcc:	1ad7      	subs	r7, r2, r3
10005bce:	1c35      	adds	r5, r6, #0
10005bd0:	e77a      	b.n	10005ac8 <__aeabi_dadd+0x108>
10005bd2:	1c02      	adds	r2, r0, #0
10005bd4:	430a      	orrs	r2, r1
10005bd6:	d100      	bne.n	10005bda <__aeabi_dadd+0x21a>
10005bd8:	e71a      	b.n	10005a10 <__aeabi_dadd+0x50>
10005bda:	3b01      	subs	r3, #1
10005bdc:	2b00      	cmp	r3, #0
10005bde:	d000      	beq.n	10005be2 <__aeabi_dadd+0x222>
10005be0:	e0f2      	b.n	10005dc8 <__aeabi_dadd+0x408>
10005be2:	1940      	adds	r0, r0, r5
10005be4:	42a8      	cmp	r0, r5
10005be6:	419b      	sbcs	r3, r3
10005be8:	19ca      	adds	r2, r1, r7
10005bea:	425b      	negs	r3, r3
10005bec:	18d7      	adds	r7, r2, r3
10005bee:	1c05      	adds	r5, r0, #0
10005bf0:	e7c9      	b.n	10005b86 <__aeabi_dadd+0x1c6>
10005bf2:	1c13      	adds	r3, r2, #0
10005bf4:	4333      	orrs	r3, r6
10005bf6:	d100      	bne.n	10005bfa <__aeabi_dadd+0x23a>
10005bf8:	e118      	b.n	10005e2c <__aeabi_dadd+0x46c>
10005bfa:	1c17      	adds	r7, r2, #0
10005bfc:	1c35      	adds	r5, r6, #0
10005bfe:	4646      	mov	r6, r8
10005c00:	076b      	lsls	r3, r5, #29
10005c02:	d000      	beq.n	10005c06 <__aeabi_dadd+0x246>
10005c04:	e707      	b.n	10005a16 <__aeabi_dadd+0x56>
10005c06:	e795      	b.n	10005b34 <__aeabi_dadd+0x174>
10005c08:	2800      	cmp	r0, #0
10005c0a:	d17a      	bne.n	10005d02 <__aeabi_dadd+0x342>
10005c0c:	1c62      	adds	r2, r4, #1
10005c0e:	0552      	lsls	r2, r2, #21
10005c10:	0d52      	lsrs	r2, r2, #21
10005c12:	2a01      	cmp	r2, #1
10005c14:	dc00      	bgt.n	10005c18 <__aeabi_dadd+0x258>
10005c16:	e0fb      	b.n	10005e10 <__aeabi_dadd+0x450>
10005c18:	4662      	mov	r2, ip
10005c1a:	1aaa      	subs	r2, r5, r2
10005c1c:	4295      	cmp	r5, r2
10005c1e:	41b6      	sbcs	r6, r6
10005c20:	4691      	mov	r9, r2
10005c22:	1a78      	subs	r0, r7, r1
10005c24:	4272      	negs	r2, r6
10005c26:	1a86      	subs	r6, r0, r2
10005c28:	0232      	lsls	r2, r6, #8
10005c2a:	d400      	bmi.n	10005c2e <__aeabi_dadd+0x26e>
10005c2c:	e093      	b.n	10005d56 <__aeabi_dadd+0x396>
10005c2e:	4662      	mov	r2, ip
10005c30:	1b55      	subs	r5, r2, r5
10005c32:	45ac      	cmp	ip, r5
10005c34:	4180      	sbcs	r0, r0
10005c36:	1bcf      	subs	r7, r1, r7
10005c38:	4240      	negs	r0, r0
10005c3a:	1a3e      	subs	r6, r7, r0
10005c3c:	4698      	mov	r8, r3
10005c3e:	e748      	b.n	10005ad2 <__aeabi_dadd+0x112>
10005c40:	2200      	movs	r2, #0
10005c42:	2500      	movs	r5, #0
10005c44:	e708      	b.n	10005a58 <__aeabi_dadd+0x98>
10005c46:	1c28      	adds	r0, r5, #0
10005c48:	f7fd fd8c 	bl	10003764 <__clzsi2>
10005c4c:	3020      	adds	r0, #32
10005c4e:	1c03      	adds	r3, r0, #0
10005c50:	3b08      	subs	r3, #8
10005c52:	2b1f      	cmp	r3, #31
10005c54:	dc00      	bgt.n	10005c58 <__aeabi_dadd+0x298>
10005c56:	e747      	b.n	10005ae8 <__aeabi_dadd+0x128>
10005c58:	3828      	subs	r0, #40	; 0x28
10005c5a:	4085      	lsls	r5, r0
10005c5c:	1c2e      	adds	r6, r5, #0
10005c5e:	2500      	movs	r5, #0
10005c60:	429c      	cmp	r4, r3
10005c62:	dc00      	bgt.n	10005c66 <__aeabi_dadd+0x2a6>
10005c64:	e74c      	b.n	10005b00 <__aeabi_dadd+0x140>
10005c66:	4a42      	ldr	r2, [pc, #264]	; (10005d70 <__aeabi_dadd+0x3b0>)
10005c68:	1ae4      	subs	r4, r4, r3
10005c6a:	4016      	ands	r6, r2
10005c6c:	1c37      	adds	r7, r6, #0
10005c6e:	e6cf      	b.n	10005a10 <__aeabi_dadd+0x50>
10005c70:	4663      	mov	r3, ip
10005c72:	4319      	orrs	r1, r3
10005c74:	1e4b      	subs	r3, r1, #1
10005c76:	4199      	sbcs	r1, r3
10005c78:	2200      	movs	r2, #0
10005c7a:	b2cb      	uxtb	r3, r1
10005c7c:	e71d      	b.n	10005aba <__aeabi_dadd+0xfa>
10005c7e:	2b00      	cmp	r3, #0
10005c80:	d000      	beq.n	10005c84 <__aeabi_dadd+0x2c4>
10005c82:	e0f2      	b.n	10005e6a <__aeabi_dadd+0x4aa>
10005c84:	1c60      	adds	r0, r4, #1
10005c86:	0543      	lsls	r3, r0, #21
10005c88:	0d5b      	lsrs	r3, r3, #21
10005c8a:	2b01      	cmp	r3, #1
10005c8c:	dc00      	bgt.n	10005c90 <__aeabi_dadd+0x2d0>
10005c8e:	e0a4      	b.n	10005dda <__aeabi_dadd+0x41a>
10005c90:	4b36      	ldr	r3, [pc, #216]	; (10005d6c <__aeabi_dadd+0x3ac>)
10005c92:	4298      	cmp	r0, r3
10005c94:	d100      	bne.n	10005c98 <__aeabi_dadd+0x2d8>
10005c96:	e121      	b.n	10005edc <__aeabi_dadd+0x51c>
10005c98:	4663      	mov	r3, ip
10005c9a:	195c      	adds	r4, r3, r5
10005c9c:	42ac      	cmp	r4, r5
10005c9e:	419b      	sbcs	r3, r3
10005ca0:	19cf      	adds	r7, r1, r7
10005ca2:	425b      	negs	r3, r3
10005ca4:	18fa      	adds	r2, r7, r3
10005ca6:	0864      	lsrs	r4, r4, #1
10005ca8:	07d5      	lsls	r5, r2, #31
10005caa:	4325      	orrs	r5, r4
10005cac:	0857      	lsrs	r7, r2, #1
10005cae:	1c04      	adds	r4, r0, #0
10005cb0:	e6ae      	b.n	10005a10 <__aeabi_dadd+0x50>
10005cb2:	4b2e      	ldr	r3, [pc, #184]	; (10005d6c <__aeabi_dadd+0x3ac>)
10005cb4:	429c      	cmp	r4, r3
10005cb6:	d000      	beq.n	10005cba <__aeabi_dadd+0x2fa>
10005cb8:	e6ea      	b.n	10005a90 <__aeabi_dadd+0xd0>
10005cba:	e6a9      	b.n	10005a10 <__aeabi_dadd+0x50>
10005cbc:	1c21      	adds	r1, r4, #0
10005cbe:	1c33      	adds	r3, r6, #0
10005cc0:	391f      	subs	r1, #31
10005cc2:	40cb      	lsrs	r3, r1
10005cc4:	1c19      	adds	r1, r3, #0
10005cc6:	2a20      	cmp	r2, #32
10005cc8:	d100      	bne.n	10005ccc <__aeabi_dadd+0x30c>
10005cca:	e082      	b.n	10005dd2 <__aeabi_dadd+0x412>
10005ccc:	233f      	movs	r3, #63	; 0x3f
10005cce:	1b1c      	subs	r4, r3, r4
10005cd0:	40a6      	lsls	r6, r4
10005cd2:	4335      	orrs	r5, r6
10005cd4:	1e6e      	subs	r6, r5, #1
10005cd6:	41b5      	sbcs	r5, r6
10005cd8:	2700      	movs	r7, #0
10005cda:	430d      	orrs	r5, r1
10005cdc:	2400      	movs	r4, #0
10005cde:	e78e      	b.n	10005bfe <__aeabi_dadd+0x23e>
10005ce0:	1c03      	adds	r3, r0, #0
10005ce2:	1c0e      	adds	r6, r1, #0
10005ce4:	3b20      	subs	r3, #32
10005ce6:	40de      	lsrs	r6, r3
10005ce8:	2820      	cmp	r0, #32
10005cea:	d074      	beq.n	10005dd6 <__aeabi_dadd+0x416>
10005cec:	2340      	movs	r3, #64	; 0x40
10005cee:	1a1b      	subs	r3, r3, r0
10005cf0:	4099      	lsls	r1, r3
10005cf2:	1c0b      	adds	r3, r1, #0
10005cf4:	4662      	mov	r2, ip
10005cf6:	4313      	orrs	r3, r2
10005cf8:	1e59      	subs	r1, r3, #1
10005cfa:	418b      	sbcs	r3, r1
10005cfc:	2200      	movs	r2, #0
10005cfe:	4333      	orrs	r3, r6
10005d00:	e6db      	b.n	10005aba <__aeabi_dadd+0xfa>
10005d02:	2c00      	cmp	r4, #0
10005d04:	d050      	beq.n	10005da8 <__aeabi_dadd+0x3e8>
10005d06:	4c19      	ldr	r4, [pc, #100]	; (10005d6c <__aeabi_dadd+0x3ac>)
10005d08:	42a2      	cmp	r2, r4
10005d0a:	d100      	bne.n	10005d0e <__aeabi_dadd+0x34e>
10005d0c:	e0a8      	b.n	10005e60 <__aeabi_dadd+0x4a0>
10005d0e:	2480      	movs	r4, #128	; 0x80
10005d10:	0424      	lsls	r4, r4, #16
10005d12:	4240      	negs	r0, r0
10005d14:	4327      	orrs	r7, r4
10005d16:	2838      	cmp	r0, #56	; 0x38
10005d18:	dd00      	ble.n	10005d1c <__aeabi_dadd+0x35c>
10005d1a:	e0d9      	b.n	10005ed0 <__aeabi_dadd+0x510>
10005d1c:	281f      	cmp	r0, #31
10005d1e:	dd00      	ble.n	10005d22 <__aeabi_dadd+0x362>
10005d20:	e139      	b.n	10005f96 <__aeabi_dadd+0x5d6>
10005d22:	2420      	movs	r4, #32
10005d24:	1c3e      	adds	r6, r7, #0
10005d26:	1a24      	subs	r4, r4, r0
10005d28:	40a6      	lsls	r6, r4
10005d2a:	46b0      	mov	r8, r6
10005d2c:	1c2e      	adds	r6, r5, #0
10005d2e:	46a1      	mov	r9, r4
10005d30:	40c6      	lsrs	r6, r0
10005d32:	4644      	mov	r4, r8
10005d34:	4326      	orrs	r6, r4
10005d36:	464c      	mov	r4, r9
10005d38:	40a5      	lsls	r5, r4
10005d3a:	1e6c      	subs	r4, r5, #1
10005d3c:	41a5      	sbcs	r5, r4
10005d3e:	40c7      	lsrs	r7, r0
10005d40:	4335      	orrs	r5, r6
10005d42:	4660      	mov	r0, ip
10005d44:	1b45      	subs	r5, r0, r5
10005d46:	1bcf      	subs	r7, r1, r7
10005d48:	45ac      	cmp	ip, r5
10005d4a:	4189      	sbcs	r1, r1
10005d4c:	4249      	negs	r1, r1
10005d4e:	1a7f      	subs	r7, r7, r1
10005d50:	1c14      	adds	r4, r2, #0
10005d52:	4698      	mov	r8, r3
10005d54:	e6b8      	b.n	10005ac8 <__aeabi_dadd+0x108>
10005d56:	464b      	mov	r3, r9
10005d58:	464d      	mov	r5, r9
10005d5a:	4333      	orrs	r3, r6
10005d5c:	d000      	beq.n	10005d60 <__aeabi_dadd+0x3a0>
10005d5e:	e6b8      	b.n	10005ad2 <__aeabi_dadd+0x112>
10005d60:	2600      	movs	r6, #0
10005d62:	2700      	movs	r7, #0
10005d64:	2400      	movs	r4, #0
10005d66:	2500      	movs	r5, #0
10005d68:	e6e4      	b.n	10005b34 <__aeabi_dadd+0x174>
10005d6a:	46c0      	nop			; (mov r8, r8)
10005d6c:	000007ff 	.word	0x000007ff
10005d70:	ff7fffff 	.word	0xff7fffff
10005d74:	800fffff 	.word	0x800fffff
10005d78:	2b1f      	cmp	r3, #31
10005d7a:	dc5b      	bgt.n	10005e34 <__aeabi_dadd+0x474>
10005d7c:	2220      	movs	r2, #32
10005d7e:	1c08      	adds	r0, r1, #0
10005d80:	1ad2      	subs	r2, r2, r3
10005d82:	4090      	lsls	r0, r2
10005d84:	4681      	mov	r9, r0
10005d86:	4660      	mov	r0, ip
10005d88:	4692      	mov	sl, r2
10005d8a:	40d8      	lsrs	r0, r3
10005d8c:	464a      	mov	r2, r9
10005d8e:	4310      	orrs	r0, r2
10005d90:	4681      	mov	r9, r0
10005d92:	4652      	mov	r2, sl
10005d94:	4660      	mov	r0, ip
10005d96:	4090      	lsls	r0, r2
10005d98:	1c02      	adds	r2, r0, #0
10005d9a:	1e50      	subs	r0, r2, #1
10005d9c:	4182      	sbcs	r2, r0
10005d9e:	4648      	mov	r0, r9
10005da0:	4310      	orrs	r0, r2
10005da2:	1c0a      	adds	r2, r1, #0
10005da4:	40da      	lsrs	r2, r3
10005da6:	e6e7      	b.n	10005b78 <__aeabi_dadd+0x1b8>
10005da8:	1c3c      	adds	r4, r7, #0
10005daa:	432c      	orrs	r4, r5
10005dac:	d058      	beq.n	10005e60 <__aeabi_dadd+0x4a0>
10005dae:	43c0      	mvns	r0, r0
10005db0:	2800      	cmp	r0, #0
10005db2:	d151      	bne.n	10005e58 <__aeabi_dadd+0x498>
10005db4:	4660      	mov	r0, ip
10005db6:	1b45      	subs	r5, r0, r5
10005db8:	45ac      	cmp	ip, r5
10005dba:	4180      	sbcs	r0, r0
10005dbc:	1bcf      	subs	r7, r1, r7
10005dbe:	4240      	negs	r0, r0
10005dc0:	1a3f      	subs	r7, r7, r0
10005dc2:	1c14      	adds	r4, r2, #0
10005dc4:	4698      	mov	r8, r3
10005dc6:	e67f      	b.n	10005ac8 <__aeabi_dadd+0x108>
10005dc8:	4a8f      	ldr	r2, [pc, #572]	; (10006008 <__aeabi_dadd+0x648>)
10005dca:	4294      	cmp	r4, r2
10005dcc:	d000      	beq.n	10005dd0 <__aeabi_dadd+0x410>
10005dce:	e6ca      	b.n	10005b66 <__aeabi_dadd+0x1a6>
10005dd0:	e61e      	b.n	10005a10 <__aeabi_dadd+0x50>
10005dd2:	2600      	movs	r6, #0
10005dd4:	e77d      	b.n	10005cd2 <__aeabi_dadd+0x312>
10005dd6:	2300      	movs	r3, #0
10005dd8:	e78c      	b.n	10005cf4 <__aeabi_dadd+0x334>
10005dda:	1c3b      	adds	r3, r7, #0
10005ddc:	432b      	orrs	r3, r5
10005dde:	2c00      	cmp	r4, #0
10005de0:	d000      	beq.n	10005de4 <__aeabi_dadd+0x424>
10005de2:	e0bd      	b.n	10005f60 <__aeabi_dadd+0x5a0>
10005de4:	2b00      	cmp	r3, #0
10005de6:	d100      	bne.n	10005dea <__aeabi_dadd+0x42a>
10005de8:	e0f5      	b.n	10005fd6 <__aeabi_dadd+0x616>
10005dea:	4663      	mov	r3, ip
10005dec:	430b      	orrs	r3, r1
10005dee:	d100      	bne.n	10005df2 <__aeabi_dadd+0x432>
10005df0:	e60e      	b.n	10005a10 <__aeabi_dadd+0x50>
10005df2:	4663      	mov	r3, ip
10005df4:	195b      	adds	r3, r3, r5
10005df6:	42ab      	cmp	r3, r5
10005df8:	4180      	sbcs	r0, r0
10005dfa:	19ca      	adds	r2, r1, r7
10005dfc:	4240      	negs	r0, r0
10005dfe:	1817      	adds	r7, r2, r0
10005e00:	023a      	lsls	r2, r7, #8
10005e02:	d400      	bmi.n	10005e06 <__aeabi_dadd+0x446>
10005e04:	e0fc      	b.n	10006000 <__aeabi_dadd+0x640>
10005e06:	4a81      	ldr	r2, [pc, #516]	; (1000600c <__aeabi_dadd+0x64c>)
10005e08:	1c1d      	adds	r5, r3, #0
10005e0a:	4017      	ands	r7, r2
10005e0c:	3401      	adds	r4, #1
10005e0e:	e5ff      	b.n	10005a10 <__aeabi_dadd+0x50>
10005e10:	1c3a      	adds	r2, r7, #0
10005e12:	432a      	orrs	r2, r5
10005e14:	2c00      	cmp	r4, #0
10005e16:	d151      	bne.n	10005ebc <__aeabi_dadd+0x4fc>
10005e18:	2a00      	cmp	r2, #0
10005e1a:	d000      	beq.n	10005e1e <__aeabi_dadd+0x45e>
10005e1c:	e085      	b.n	10005f2a <__aeabi_dadd+0x56a>
10005e1e:	4662      	mov	r2, ip
10005e20:	430a      	orrs	r2, r1
10005e22:	d003      	beq.n	10005e2c <__aeabi_dadd+0x46c>
10005e24:	1c0f      	adds	r7, r1, #0
10005e26:	4665      	mov	r5, ip
10005e28:	4698      	mov	r8, r3
10005e2a:	e5f1      	b.n	10005a10 <__aeabi_dadd+0x50>
10005e2c:	2600      	movs	r6, #0
10005e2e:	2700      	movs	r7, #0
10005e30:	2500      	movs	r5, #0
10005e32:	e67f      	b.n	10005b34 <__aeabi_dadd+0x174>
10005e34:	1c18      	adds	r0, r3, #0
10005e36:	1c0a      	adds	r2, r1, #0
10005e38:	3820      	subs	r0, #32
10005e3a:	40c2      	lsrs	r2, r0
10005e3c:	2b20      	cmp	r3, #32
10005e3e:	d100      	bne.n	10005e42 <__aeabi_dadd+0x482>
10005e40:	e0a7      	b.n	10005f92 <__aeabi_dadd+0x5d2>
10005e42:	2040      	movs	r0, #64	; 0x40
10005e44:	1ac0      	subs	r0, r0, r3
10005e46:	4081      	lsls	r1, r0
10005e48:	1c08      	adds	r0, r1, #0
10005e4a:	4663      	mov	r3, ip
10005e4c:	4318      	orrs	r0, r3
10005e4e:	1e41      	subs	r1, r0, #1
10005e50:	4188      	sbcs	r0, r1
10005e52:	4310      	orrs	r0, r2
10005e54:	2200      	movs	r2, #0
10005e56:	e68f      	b.n	10005b78 <__aeabi_dadd+0x1b8>
10005e58:	4c6b      	ldr	r4, [pc, #428]	; (10006008 <__aeabi_dadd+0x648>)
10005e5a:	42a2      	cmp	r2, r4
10005e5c:	d000      	beq.n	10005e60 <__aeabi_dadd+0x4a0>
10005e5e:	e75a      	b.n	10005d16 <__aeabi_dadd+0x356>
10005e60:	1c0f      	adds	r7, r1, #0
10005e62:	4665      	mov	r5, ip
10005e64:	1c14      	adds	r4, r2, #0
10005e66:	4698      	mov	r8, r3
10005e68:	e5d2      	b.n	10005a10 <__aeabi_dadd+0x50>
10005e6a:	2c00      	cmp	r4, #0
10005e6c:	d13a      	bne.n	10005ee4 <__aeabi_dadd+0x524>
10005e6e:	1c38      	adds	r0, r7, #0
10005e70:	4328      	orrs	r0, r5
10005e72:	d071      	beq.n	10005f58 <__aeabi_dadd+0x598>
10005e74:	43db      	mvns	r3, r3
10005e76:	2b00      	cmp	r3, #0
10005e78:	d018      	beq.n	10005eac <__aeabi_dadd+0x4ec>
10005e7a:	4863      	ldr	r0, [pc, #396]	; (10006008 <__aeabi_dadd+0x648>)
10005e7c:	4282      	cmp	r2, r0
10005e7e:	d06b      	beq.n	10005f58 <__aeabi_dadd+0x598>
10005e80:	2b38      	cmp	r3, #56	; 0x38
10005e82:	dd00      	ble.n	10005e86 <__aeabi_dadd+0x4c6>
10005e84:	e09d      	b.n	10005fc2 <__aeabi_dadd+0x602>
10005e86:	2b1f      	cmp	r3, #31
10005e88:	dd00      	ble.n	10005e8c <__aeabi_dadd+0x4cc>
10005e8a:	e0a7      	b.n	10005fdc <__aeabi_dadd+0x61c>
10005e8c:	2020      	movs	r0, #32
10005e8e:	1c3c      	adds	r4, r7, #0
10005e90:	1ac0      	subs	r0, r0, r3
10005e92:	4084      	lsls	r4, r0
10005e94:	46a1      	mov	r9, r4
10005e96:	1c2c      	adds	r4, r5, #0
10005e98:	4682      	mov	sl, r0
10005e9a:	40dc      	lsrs	r4, r3
10005e9c:	4648      	mov	r0, r9
10005e9e:	4304      	orrs	r4, r0
10005ea0:	4650      	mov	r0, sl
10005ea2:	4085      	lsls	r5, r0
10005ea4:	1e68      	subs	r0, r5, #1
10005ea6:	4185      	sbcs	r5, r0
10005ea8:	40df      	lsrs	r7, r3
10005eaa:	4325      	orrs	r5, r4
10005eac:	4465      	add	r5, ip
10005eae:	4565      	cmp	r5, ip
10005eb0:	419b      	sbcs	r3, r3
10005eb2:	187f      	adds	r7, r7, r1
10005eb4:	425b      	negs	r3, r3
10005eb6:	18ff      	adds	r7, r7, r3
10005eb8:	1c14      	adds	r4, r2, #0
10005eba:	e664      	b.n	10005b86 <__aeabi_dadd+0x1c6>
10005ebc:	2a00      	cmp	r2, #0
10005ebe:	d119      	bne.n	10005ef4 <__aeabi_dadd+0x534>
10005ec0:	4662      	mov	r2, ip
10005ec2:	430a      	orrs	r2, r1
10005ec4:	d077      	beq.n	10005fb6 <__aeabi_dadd+0x5f6>
10005ec6:	1c0f      	adds	r7, r1, #0
10005ec8:	4665      	mov	r5, ip
10005eca:	4698      	mov	r8, r3
10005ecc:	4c4e      	ldr	r4, [pc, #312]	; (10006008 <__aeabi_dadd+0x648>)
10005ece:	e59f      	b.n	10005a10 <__aeabi_dadd+0x50>
10005ed0:	433d      	orrs	r5, r7
10005ed2:	1e6f      	subs	r7, r5, #1
10005ed4:	41bd      	sbcs	r5, r7
10005ed6:	2700      	movs	r7, #0
10005ed8:	b2ed      	uxtb	r5, r5
10005eda:	e732      	b.n	10005d42 <__aeabi_dadd+0x382>
10005edc:	1c04      	adds	r4, r0, #0
10005ede:	2700      	movs	r7, #0
10005ee0:	2500      	movs	r5, #0
10005ee2:	e627      	b.n	10005b34 <__aeabi_dadd+0x174>
10005ee4:	4848      	ldr	r0, [pc, #288]	; (10006008 <__aeabi_dadd+0x648>)
10005ee6:	4282      	cmp	r2, r0
10005ee8:	d036      	beq.n	10005f58 <__aeabi_dadd+0x598>
10005eea:	2080      	movs	r0, #128	; 0x80
10005eec:	0400      	lsls	r0, r0, #16
10005eee:	425b      	negs	r3, r3
10005ef0:	4307      	orrs	r7, r0
10005ef2:	e7c5      	b.n	10005e80 <__aeabi_dadd+0x4c0>
10005ef4:	4662      	mov	r2, ip
10005ef6:	430a      	orrs	r2, r1
10005ef8:	d049      	beq.n	10005f8e <__aeabi_dadd+0x5ce>
10005efa:	2480      	movs	r4, #128	; 0x80
10005efc:	08ed      	lsrs	r5, r5, #3
10005efe:	0778      	lsls	r0, r7, #29
10005f00:	08fa      	lsrs	r2, r7, #3
10005f02:	0324      	lsls	r4, r4, #12
10005f04:	4328      	orrs	r0, r5
10005f06:	4222      	tst	r2, r4
10005f08:	d009      	beq.n	10005f1e <__aeabi_dadd+0x55e>
10005f0a:	08ce      	lsrs	r6, r1, #3
10005f0c:	4226      	tst	r6, r4
10005f0e:	d106      	bne.n	10005f1e <__aeabi_dadd+0x55e>
10005f10:	4662      	mov	r2, ip
10005f12:	074f      	lsls	r7, r1, #29
10005f14:	1c38      	adds	r0, r7, #0
10005f16:	08d2      	lsrs	r2, r2, #3
10005f18:	4310      	orrs	r0, r2
10005f1a:	4698      	mov	r8, r3
10005f1c:	1c32      	adds	r2, r6, #0
10005f1e:	00d2      	lsls	r2, r2, #3
10005f20:	0f47      	lsrs	r7, r0, #29
10005f22:	4317      	orrs	r7, r2
10005f24:	00c5      	lsls	r5, r0, #3
10005f26:	4c38      	ldr	r4, [pc, #224]	; (10006008 <__aeabi_dadd+0x648>)
10005f28:	e572      	b.n	10005a10 <__aeabi_dadd+0x50>
10005f2a:	4662      	mov	r2, ip
10005f2c:	430a      	orrs	r2, r1
10005f2e:	d100      	bne.n	10005f32 <__aeabi_dadd+0x572>
10005f30:	e56e      	b.n	10005a10 <__aeabi_dadd+0x50>
10005f32:	4662      	mov	r2, ip
10005f34:	1aae      	subs	r6, r5, r2
10005f36:	42b5      	cmp	r5, r6
10005f38:	4192      	sbcs	r2, r2
10005f3a:	1a78      	subs	r0, r7, r1
10005f3c:	4252      	negs	r2, r2
10005f3e:	1a82      	subs	r2, r0, r2
10005f40:	0210      	lsls	r0, r2, #8
10005f42:	d400      	bmi.n	10005f46 <__aeabi_dadd+0x586>
10005f44:	e655      	b.n	10005bf2 <__aeabi_dadd+0x232>
10005f46:	4662      	mov	r2, ip
10005f48:	1b55      	subs	r5, r2, r5
10005f4a:	45ac      	cmp	ip, r5
10005f4c:	4180      	sbcs	r0, r0
10005f4e:	1bca      	subs	r2, r1, r7
10005f50:	4240      	negs	r0, r0
10005f52:	1a17      	subs	r7, r2, r0
10005f54:	4698      	mov	r8, r3
10005f56:	e55b      	b.n	10005a10 <__aeabi_dadd+0x50>
10005f58:	1c0f      	adds	r7, r1, #0
10005f5a:	4665      	mov	r5, ip
10005f5c:	1c14      	adds	r4, r2, #0
10005f5e:	e557      	b.n	10005a10 <__aeabi_dadd+0x50>
10005f60:	2b00      	cmp	r3, #0
10005f62:	d034      	beq.n	10005fce <__aeabi_dadd+0x60e>
10005f64:	4663      	mov	r3, ip
10005f66:	430b      	orrs	r3, r1
10005f68:	d011      	beq.n	10005f8e <__aeabi_dadd+0x5ce>
10005f6a:	2480      	movs	r4, #128	; 0x80
10005f6c:	08ed      	lsrs	r5, r5, #3
10005f6e:	0778      	lsls	r0, r7, #29
10005f70:	08fa      	lsrs	r2, r7, #3
10005f72:	0324      	lsls	r4, r4, #12
10005f74:	4328      	orrs	r0, r5
10005f76:	4222      	tst	r2, r4
10005f78:	d0d1      	beq.n	10005f1e <__aeabi_dadd+0x55e>
10005f7a:	08cb      	lsrs	r3, r1, #3
10005f7c:	4223      	tst	r3, r4
10005f7e:	d1ce      	bne.n	10005f1e <__aeabi_dadd+0x55e>
10005f80:	4662      	mov	r2, ip
10005f82:	074f      	lsls	r7, r1, #29
10005f84:	1c38      	adds	r0, r7, #0
10005f86:	08d2      	lsrs	r2, r2, #3
10005f88:	4310      	orrs	r0, r2
10005f8a:	1c1a      	adds	r2, r3, #0
10005f8c:	e7c7      	b.n	10005f1e <__aeabi_dadd+0x55e>
10005f8e:	4c1e      	ldr	r4, [pc, #120]	; (10006008 <__aeabi_dadd+0x648>)
10005f90:	e53e      	b.n	10005a10 <__aeabi_dadd+0x50>
10005f92:	2000      	movs	r0, #0
10005f94:	e759      	b.n	10005e4a <__aeabi_dadd+0x48a>
10005f96:	1c04      	adds	r4, r0, #0
10005f98:	1c3e      	adds	r6, r7, #0
10005f9a:	3c20      	subs	r4, #32
10005f9c:	40e6      	lsrs	r6, r4
10005f9e:	1c34      	adds	r4, r6, #0
10005fa0:	2820      	cmp	r0, #32
10005fa2:	d02b      	beq.n	10005ffc <__aeabi_dadd+0x63c>
10005fa4:	2640      	movs	r6, #64	; 0x40
10005fa6:	1a30      	subs	r0, r6, r0
10005fa8:	4087      	lsls	r7, r0
10005faa:	433d      	orrs	r5, r7
10005fac:	1e6f      	subs	r7, r5, #1
10005fae:	41bd      	sbcs	r5, r7
10005fb0:	2700      	movs	r7, #0
10005fb2:	4325      	orrs	r5, r4
10005fb4:	e6c5      	b.n	10005d42 <__aeabi_dadd+0x382>
10005fb6:	2780      	movs	r7, #128	; 0x80
10005fb8:	2600      	movs	r6, #0
10005fba:	03ff      	lsls	r7, r7, #15
10005fbc:	4c12      	ldr	r4, [pc, #72]	; (10006008 <__aeabi_dadd+0x648>)
10005fbe:	2500      	movs	r5, #0
10005fc0:	e5b8      	b.n	10005b34 <__aeabi_dadd+0x174>
10005fc2:	433d      	orrs	r5, r7
10005fc4:	1e6f      	subs	r7, r5, #1
10005fc6:	41bd      	sbcs	r5, r7
10005fc8:	2700      	movs	r7, #0
10005fca:	b2ed      	uxtb	r5, r5
10005fcc:	e76e      	b.n	10005eac <__aeabi_dadd+0x4ec>
10005fce:	1c0f      	adds	r7, r1, #0
10005fd0:	4665      	mov	r5, ip
10005fd2:	4c0d      	ldr	r4, [pc, #52]	; (10006008 <__aeabi_dadd+0x648>)
10005fd4:	e51c      	b.n	10005a10 <__aeabi_dadd+0x50>
10005fd6:	1c0f      	adds	r7, r1, #0
10005fd8:	4665      	mov	r5, ip
10005fda:	e519      	b.n	10005a10 <__aeabi_dadd+0x50>
10005fdc:	1c1c      	adds	r4, r3, #0
10005fde:	1c38      	adds	r0, r7, #0
10005fe0:	3c20      	subs	r4, #32
10005fe2:	40e0      	lsrs	r0, r4
10005fe4:	1c04      	adds	r4, r0, #0
10005fe6:	2b20      	cmp	r3, #32
10005fe8:	d00c      	beq.n	10006004 <__aeabi_dadd+0x644>
10005fea:	2040      	movs	r0, #64	; 0x40
10005fec:	1ac3      	subs	r3, r0, r3
10005fee:	409f      	lsls	r7, r3
10005ff0:	433d      	orrs	r5, r7
10005ff2:	1e6f      	subs	r7, r5, #1
10005ff4:	41bd      	sbcs	r5, r7
10005ff6:	2700      	movs	r7, #0
10005ff8:	4325      	orrs	r5, r4
10005ffa:	e757      	b.n	10005eac <__aeabi_dadd+0x4ec>
10005ffc:	2700      	movs	r7, #0
10005ffe:	e7d4      	b.n	10005faa <__aeabi_dadd+0x5ea>
10006000:	1c1d      	adds	r5, r3, #0
10006002:	e5fc      	b.n	10005bfe <__aeabi_dadd+0x23e>
10006004:	2700      	movs	r7, #0
10006006:	e7f3      	b.n	10005ff0 <__aeabi_dadd+0x630>
10006008:	000007ff 	.word	0x000007ff
1000600c:	ff7fffff 	.word	0xff7fffff

10006010 <__aeabi_ddiv>:
10006010:	b5f0      	push	{r4, r5, r6, r7, lr}
10006012:	465f      	mov	r7, fp
10006014:	4656      	mov	r6, sl
10006016:	464d      	mov	r5, r9
10006018:	4644      	mov	r4, r8
1000601a:	b4f0      	push	{r4, r5, r6, r7}
1000601c:	030f      	lsls	r7, r1, #12
1000601e:	b087      	sub	sp, #28
10006020:	4698      	mov	r8, r3
10006022:	004d      	lsls	r5, r1, #1
10006024:	0b3b      	lsrs	r3, r7, #12
10006026:	0fcc      	lsrs	r4, r1, #31
10006028:	1c06      	adds	r6, r0, #0
1000602a:	4692      	mov	sl, r2
1000602c:	4681      	mov	r9, r0
1000602e:	469b      	mov	fp, r3
10006030:	0d6d      	lsrs	r5, r5, #21
10006032:	9401      	str	r4, [sp, #4]
10006034:	d06b      	beq.n	1000610e <__aeabi_ddiv+0xfe>
10006036:	4b66      	ldr	r3, [pc, #408]	; (100061d0 <__aeabi_ddiv+0x1c0>)
10006038:	429d      	cmp	r5, r3
1000603a:	d035      	beq.n	100060a8 <__aeabi_ddiv+0x98>
1000603c:	2780      	movs	r7, #128	; 0x80
1000603e:	465b      	mov	r3, fp
10006040:	037f      	lsls	r7, r7, #13
10006042:	431f      	orrs	r7, r3
10006044:	00f3      	lsls	r3, r6, #3
10006046:	4699      	mov	r9, r3
10006048:	4b62      	ldr	r3, [pc, #392]	; (100061d4 <__aeabi_ddiv+0x1c4>)
1000604a:	00ff      	lsls	r7, r7, #3
1000604c:	0f40      	lsrs	r0, r0, #29
1000604e:	469c      	mov	ip, r3
10006050:	4307      	orrs	r7, r0
10006052:	2300      	movs	r3, #0
10006054:	46bb      	mov	fp, r7
10006056:	2600      	movs	r6, #0
10006058:	4465      	add	r5, ip
1000605a:	9300      	str	r3, [sp, #0]
1000605c:	4642      	mov	r2, r8
1000605e:	0317      	lsls	r7, r2, #12
10006060:	0050      	lsls	r0, r2, #1
10006062:	0fd2      	lsrs	r2, r2, #31
10006064:	4653      	mov	r3, sl
10006066:	0b3f      	lsrs	r7, r7, #12
10006068:	0d40      	lsrs	r0, r0, #21
1000606a:	4690      	mov	r8, r2
1000606c:	d100      	bne.n	10006070 <__aeabi_ddiv+0x60>
1000606e:	e072      	b.n	10006156 <__aeabi_ddiv+0x146>
10006070:	4a57      	ldr	r2, [pc, #348]	; (100061d0 <__aeabi_ddiv+0x1c0>)
10006072:	4290      	cmp	r0, r2
10006074:	d067      	beq.n	10006146 <__aeabi_ddiv+0x136>
10006076:	2380      	movs	r3, #128	; 0x80
10006078:	035b      	lsls	r3, r3, #13
1000607a:	431f      	orrs	r7, r3
1000607c:	4653      	mov	r3, sl
1000607e:	4a55      	ldr	r2, [pc, #340]	; (100061d4 <__aeabi_ddiv+0x1c4>)
10006080:	0f5b      	lsrs	r3, r3, #29
10006082:	00ff      	lsls	r7, r7, #3
10006084:	431f      	orrs	r7, r3
10006086:	4694      	mov	ip, r2
10006088:	4653      	mov	r3, sl
1000608a:	2100      	movs	r1, #0
1000608c:	00db      	lsls	r3, r3, #3
1000608e:	4460      	add	r0, ip
10006090:	4642      	mov	r2, r8
10006092:	4062      	eors	r2, r4
10006094:	4692      	mov	sl, r2
10006096:	1a2d      	subs	r5, r5, r0
10006098:	430e      	orrs	r6, r1
1000609a:	2e0f      	cmp	r6, #15
1000609c:	d900      	bls.n	100060a0 <__aeabi_ddiv+0x90>
1000609e:	e0a1      	b.n	100061e4 <__aeabi_ddiv+0x1d4>
100060a0:	484d      	ldr	r0, [pc, #308]	; (100061d8 <__aeabi_ddiv+0x1c8>)
100060a2:	00b6      	lsls	r6, r6, #2
100060a4:	5980      	ldr	r0, [r0, r6]
100060a6:	4687      	mov	pc, r0
100060a8:	465b      	mov	r3, fp
100060aa:	431e      	orrs	r6, r3
100060ac:	d000      	beq.n	100060b0 <__aeabi_ddiv+0xa0>
100060ae:	e076      	b.n	1000619e <__aeabi_ddiv+0x18e>
100060b0:	2300      	movs	r3, #0
100060b2:	469b      	mov	fp, r3
100060b4:	4699      	mov	r9, r3
100060b6:	3302      	adds	r3, #2
100060b8:	2608      	movs	r6, #8
100060ba:	9300      	str	r3, [sp, #0]
100060bc:	e7ce      	b.n	1000605c <__aeabi_ddiv+0x4c>
100060be:	4699      	mov	r9, r3
100060c0:	4643      	mov	r3, r8
100060c2:	46bb      	mov	fp, r7
100060c4:	9301      	str	r3, [sp, #4]
100060c6:	9100      	str	r1, [sp, #0]
100060c8:	9b00      	ldr	r3, [sp, #0]
100060ca:	2b02      	cmp	r3, #2
100060cc:	d16b      	bne.n	100061a6 <__aeabi_ddiv+0x196>
100060ce:	9b01      	ldr	r3, [sp, #4]
100060d0:	469a      	mov	sl, r3
100060d2:	2100      	movs	r1, #0
100060d4:	4653      	mov	r3, sl
100060d6:	2201      	movs	r2, #1
100060d8:	2700      	movs	r7, #0
100060da:	4689      	mov	r9, r1
100060dc:	401a      	ands	r2, r3
100060de:	4b3c      	ldr	r3, [pc, #240]	; (100061d0 <__aeabi_ddiv+0x1c0>)
100060e0:	2100      	movs	r1, #0
100060e2:	033f      	lsls	r7, r7, #12
100060e4:	0d0c      	lsrs	r4, r1, #20
100060e6:	0524      	lsls	r4, r4, #20
100060e8:	0b3f      	lsrs	r7, r7, #12
100060ea:	4327      	orrs	r7, r4
100060ec:	4c3b      	ldr	r4, [pc, #236]	; (100061dc <__aeabi_ddiv+0x1cc>)
100060ee:	051b      	lsls	r3, r3, #20
100060f0:	4027      	ands	r7, r4
100060f2:	431f      	orrs	r7, r3
100060f4:	007f      	lsls	r7, r7, #1
100060f6:	07d2      	lsls	r2, r2, #31
100060f8:	087f      	lsrs	r7, r7, #1
100060fa:	4317      	orrs	r7, r2
100060fc:	4648      	mov	r0, r9
100060fe:	1c39      	adds	r1, r7, #0
10006100:	b007      	add	sp, #28
10006102:	bc3c      	pop	{r2, r3, r4, r5}
10006104:	4690      	mov	r8, r2
10006106:	4699      	mov	r9, r3
10006108:	46a2      	mov	sl, r4
1000610a:	46ab      	mov	fp, r5
1000610c:	bdf0      	pop	{r4, r5, r6, r7, pc}
1000610e:	4303      	orrs	r3, r0
10006110:	d03e      	beq.n	10006190 <__aeabi_ddiv+0x180>
10006112:	465b      	mov	r3, fp
10006114:	2b00      	cmp	r3, #0
10006116:	d100      	bne.n	1000611a <__aeabi_ddiv+0x10a>
10006118:	e19c      	b.n	10006454 <__aeabi_ddiv+0x444>
1000611a:	4658      	mov	r0, fp
1000611c:	f7fd fb22 	bl	10003764 <__clzsi2>
10006120:	2328      	movs	r3, #40	; 0x28
10006122:	1c31      	adds	r1, r6, #0
10006124:	1a1b      	subs	r3, r3, r0
10006126:	1c02      	adds	r2, r0, #0
10006128:	465f      	mov	r7, fp
1000612a:	40d9      	lsrs	r1, r3
1000612c:	3a08      	subs	r2, #8
1000612e:	4097      	lsls	r7, r2
10006130:	1c0b      	adds	r3, r1, #0
10006132:	4096      	lsls	r6, r2
10006134:	433b      	orrs	r3, r7
10006136:	469b      	mov	fp, r3
10006138:	46b1      	mov	r9, r6
1000613a:	2300      	movs	r3, #0
1000613c:	4d28      	ldr	r5, [pc, #160]	; (100061e0 <__aeabi_ddiv+0x1d0>)
1000613e:	2600      	movs	r6, #0
10006140:	1a2d      	subs	r5, r5, r0
10006142:	9300      	str	r3, [sp, #0]
10006144:	e78a      	b.n	1000605c <__aeabi_ddiv+0x4c>
10006146:	4652      	mov	r2, sl
10006148:	2103      	movs	r1, #3
1000614a:	433a      	orrs	r2, r7
1000614c:	d1a0      	bne.n	10006090 <__aeabi_ddiv+0x80>
1000614e:	2700      	movs	r7, #0
10006150:	2300      	movs	r3, #0
10006152:	2102      	movs	r1, #2
10006154:	e79c      	b.n	10006090 <__aeabi_ddiv+0x80>
10006156:	4652      	mov	r2, sl
10006158:	433a      	orrs	r2, r7
1000615a:	d015      	beq.n	10006188 <__aeabi_ddiv+0x178>
1000615c:	2f00      	cmp	r7, #0
1000615e:	d100      	bne.n	10006162 <__aeabi_ddiv+0x152>
10006160:	e185      	b.n	1000646e <__aeabi_ddiv+0x45e>
10006162:	1c38      	adds	r0, r7, #0
10006164:	f7fd fafe 	bl	10003764 <__clzsi2>
10006168:	1c02      	adds	r2, r0, #0
1000616a:	2128      	movs	r1, #40	; 0x28
1000616c:	4650      	mov	r0, sl
1000616e:	1a89      	subs	r1, r1, r2
10006170:	1c13      	adds	r3, r2, #0
10006172:	40c8      	lsrs	r0, r1
10006174:	4651      	mov	r1, sl
10006176:	3b08      	subs	r3, #8
10006178:	4099      	lsls	r1, r3
1000617a:	409f      	lsls	r7, r3
1000617c:	1c0b      	adds	r3, r1, #0
1000617e:	4307      	orrs	r7, r0
10006180:	4817      	ldr	r0, [pc, #92]	; (100061e0 <__aeabi_ddiv+0x1d0>)
10006182:	2100      	movs	r1, #0
10006184:	1a80      	subs	r0, r0, r2
10006186:	e783      	b.n	10006090 <__aeabi_ddiv+0x80>
10006188:	2700      	movs	r7, #0
1000618a:	2300      	movs	r3, #0
1000618c:	2101      	movs	r1, #1
1000618e:	e77f      	b.n	10006090 <__aeabi_ddiv+0x80>
10006190:	2300      	movs	r3, #0
10006192:	469b      	mov	fp, r3
10006194:	4699      	mov	r9, r3
10006196:	3301      	adds	r3, #1
10006198:	2604      	movs	r6, #4
1000619a:	9300      	str	r3, [sp, #0]
1000619c:	e75e      	b.n	1000605c <__aeabi_ddiv+0x4c>
1000619e:	2303      	movs	r3, #3
100061a0:	260c      	movs	r6, #12
100061a2:	9300      	str	r3, [sp, #0]
100061a4:	e75a      	b.n	1000605c <__aeabi_ddiv+0x4c>
100061a6:	2b03      	cmp	r3, #3
100061a8:	d100      	bne.n	100061ac <__aeabi_ddiv+0x19c>
100061aa:	e23c      	b.n	10006626 <__aeabi_ddiv+0x616>
100061ac:	2b01      	cmp	r3, #1
100061ae:	d000      	beq.n	100061b2 <__aeabi_ddiv+0x1a2>
100061b0:	e1bf      	b.n	10006532 <__aeabi_ddiv+0x522>
100061b2:	1c1a      	adds	r2, r3, #0
100061b4:	9b01      	ldr	r3, [sp, #4]
100061b6:	401a      	ands	r2, r3
100061b8:	2100      	movs	r1, #0
100061ba:	2300      	movs	r3, #0
100061bc:	2700      	movs	r7, #0
100061be:	4689      	mov	r9, r1
100061c0:	e78e      	b.n	100060e0 <__aeabi_ddiv+0xd0>
100061c2:	2300      	movs	r3, #0
100061c4:	2780      	movs	r7, #128	; 0x80
100061c6:	4699      	mov	r9, r3
100061c8:	2200      	movs	r2, #0
100061ca:	033f      	lsls	r7, r7, #12
100061cc:	4b00      	ldr	r3, [pc, #0]	; (100061d0 <__aeabi_ddiv+0x1c0>)
100061ce:	e787      	b.n	100060e0 <__aeabi_ddiv+0xd0>
100061d0:	000007ff 	.word	0x000007ff
100061d4:	fffffc01 	.word	0xfffffc01
100061d8:	10007a20 	.word	0x10007a20
100061dc:	800fffff 	.word	0x800fffff
100061e0:	fffffc0d 	.word	0xfffffc0d
100061e4:	45bb      	cmp	fp, r7
100061e6:	d900      	bls.n	100061ea <__aeabi_ddiv+0x1da>
100061e8:	e151      	b.n	1000648e <__aeabi_ddiv+0x47e>
100061ea:	d100      	bne.n	100061ee <__aeabi_ddiv+0x1de>
100061ec:	e14c      	b.n	10006488 <__aeabi_ddiv+0x478>
100061ee:	464a      	mov	r2, r9
100061f0:	9203      	str	r2, [sp, #12]
100061f2:	2200      	movs	r2, #0
100061f4:	465c      	mov	r4, fp
100061f6:	4690      	mov	r8, r2
100061f8:	3d01      	subs	r5, #1
100061fa:	0e18      	lsrs	r0, r3, #24
100061fc:	023f      	lsls	r7, r7, #8
100061fe:	4338      	orrs	r0, r7
10006200:	021b      	lsls	r3, r3, #8
10006202:	9301      	str	r3, [sp, #4]
10006204:	0c03      	lsrs	r3, r0, #16
10006206:	4699      	mov	r9, r3
10006208:	0403      	lsls	r3, r0, #16
1000620a:	0c1b      	lsrs	r3, r3, #16
1000620c:	4649      	mov	r1, r9
1000620e:	1c06      	adds	r6, r0, #0
10006210:	1c20      	adds	r0, r4, #0
10006212:	1c1f      	adds	r7, r3, #0
10006214:	9300      	str	r3, [sp, #0]
10006216:	f7fd f923 	bl	10003460 <__aeabi_uidiv>
1000621a:	1c02      	adds	r2, r0, #0
1000621c:	437a      	muls	r2, r7
1000621e:	9002      	str	r0, [sp, #8]
10006220:	4649      	mov	r1, r9
10006222:	1c20      	adds	r0, r4, #0
10006224:	1c17      	adds	r7, r2, #0
10006226:	f7fd f9a1 	bl	1000356c <__aeabi_uidivmod>
1000622a:	9b03      	ldr	r3, [sp, #12]
1000622c:	0409      	lsls	r1, r1, #16
1000622e:	0c1b      	lsrs	r3, r3, #16
10006230:	4319      	orrs	r1, r3
10006232:	428f      	cmp	r7, r1
10006234:	d90c      	bls.n	10006250 <__aeabi_ddiv+0x240>
10006236:	9b02      	ldr	r3, [sp, #8]
10006238:	1989      	adds	r1, r1, r6
1000623a:	3b01      	subs	r3, #1
1000623c:	428e      	cmp	r6, r1
1000623e:	d900      	bls.n	10006242 <__aeabi_ddiv+0x232>
10006240:	e152      	b.n	100064e8 <__aeabi_ddiv+0x4d8>
10006242:	428f      	cmp	r7, r1
10006244:	d800      	bhi.n	10006248 <__aeabi_ddiv+0x238>
10006246:	e14f      	b.n	100064e8 <__aeabi_ddiv+0x4d8>
10006248:	9b02      	ldr	r3, [sp, #8]
1000624a:	1989      	adds	r1, r1, r6
1000624c:	3b02      	subs	r3, #2
1000624e:	9302      	str	r3, [sp, #8]
10006250:	1bcc      	subs	r4, r1, r7
10006252:	1c20      	adds	r0, r4, #0
10006254:	4649      	mov	r1, r9
10006256:	f7fd f903 	bl	10003460 <__aeabi_uidiv>
1000625a:	9f00      	ldr	r7, [sp, #0]
1000625c:	4683      	mov	fp, r0
1000625e:	4347      	muls	r7, r0
10006260:	4649      	mov	r1, r9
10006262:	1c20      	adds	r0, r4, #0
10006264:	f7fd f982 	bl	1000356c <__aeabi_uidivmod>
10006268:	9a03      	ldr	r2, [sp, #12]
1000626a:	040b      	lsls	r3, r1, #16
1000626c:	0414      	lsls	r4, r2, #16
1000626e:	0c24      	lsrs	r4, r4, #16
10006270:	4323      	orrs	r3, r4
10006272:	429f      	cmp	r7, r3
10006274:	d90d      	bls.n	10006292 <__aeabi_ddiv+0x282>
10006276:	465a      	mov	r2, fp
10006278:	199b      	adds	r3, r3, r6
1000627a:	3a01      	subs	r2, #1
1000627c:	429e      	cmp	r6, r3
1000627e:	d900      	bls.n	10006282 <__aeabi_ddiv+0x272>
10006280:	e130      	b.n	100064e4 <__aeabi_ddiv+0x4d4>
10006282:	429f      	cmp	r7, r3
10006284:	d800      	bhi.n	10006288 <__aeabi_ddiv+0x278>
10006286:	e12d      	b.n	100064e4 <__aeabi_ddiv+0x4d4>
10006288:	2202      	movs	r2, #2
1000628a:	4252      	negs	r2, r2
1000628c:	4694      	mov	ip, r2
1000628e:	199b      	adds	r3, r3, r6
10006290:	44e3      	add	fp, ip
10006292:	9a02      	ldr	r2, [sp, #8]
10006294:	1bdb      	subs	r3, r3, r7
10006296:	0417      	lsls	r7, r2, #16
10006298:	465a      	mov	r2, fp
1000629a:	433a      	orrs	r2, r7
1000629c:	4693      	mov	fp, r2
1000629e:	9c01      	ldr	r4, [sp, #4]
100062a0:	0c17      	lsrs	r7, r2, #16
100062a2:	0c22      	lsrs	r2, r4, #16
100062a4:	1c10      	adds	r0, r2, #0
100062a6:	9204      	str	r2, [sp, #16]
100062a8:	465a      	mov	r2, fp
100062aa:	0411      	lsls	r1, r2, #16
100062ac:	0422      	lsls	r2, r4, #16
100062ae:	0c12      	lsrs	r2, r2, #16
100062b0:	1c14      	adds	r4, r2, #0
100062b2:	0c09      	lsrs	r1, r1, #16
100062b4:	437c      	muls	r4, r7
100062b6:	9205      	str	r2, [sp, #20]
100062b8:	434a      	muls	r2, r1
100062ba:	4341      	muls	r1, r0
100062bc:	4347      	muls	r7, r0
100062be:	1861      	adds	r1, r4, r1
100062c0:	0c10      	lsrs	r0, r2, #16
100062c2:	1809      	adds	r1, r1, r0
100062c4:	428c      	cmp	r4, r1
100062c6:	d903      	bls.n	100062d0 <__aeabi_ddiv+0x2c0>
100062c8:	2080      	movs	r0, #128	; 0x80
100062ca:	0240      	lsls	r0, r0, #9
100062cc:	4684      	mov	ip, r0
100062ce:	4467      	add	r7, ip
100062d0:	0c0c      	lsrs	r4, r1, #16
100062d2:	0412      	lsls	r2, r2, #16
100062d4:	0408      	lsls	r0, r1, #16
100062d6:	0c12      	lsrs	r2, r2, #16
100062d8:	193c      	adds	r4, r7, r4
100062da:	1881      	adds	r1, r0, r2
100062dc:	42a3      	cmp	r3, r4
100062de:	d200      	bcs.n	100062e2 <__aeabi_ddiv+0x2d2>
100062e0:	e0e5      	b.n	100064ae <__aeabi_ddiv+0x49e>
100062e2:	d100      	bne.n	100062e6 <__aeabi_ddiv+0x2d6>
100062e4:	e0df      	b.n	100064a6 <__aeabi_ddiv+0x496>
100062e6:	1b1f      	subs	r7, r3, r4
100062e8:	4643      	mov	r3, r8
100062ea:	1a5c      	subs	r4, r3, r1
100062ec:	45a0      	cmp	r8, r4
100062ee:	4192      	sbcs	r2, r2
100062f0:	4252      	negs	r2, r2
100062f2:	1abf      	subs	r7, r7, r2
100062f4:	42b7      	cmp	r7, r6
100062f6:	d100      	bne.n	100062fa <__aeabi_ddiv+0x2ea>
100062f8:	e10e      	b.n	10006518 <__aeabi_ddiv+0x508>
100062fa:	1c38      	adds	r0, r7, #0
100062fc:	4649      	mov	r1, r9
100062fe:	f7fd f8af 	bl	10003460 <__aeabi_uidiv>
10006302:	9b00      	ldr	r3, [sp, #0]
10006304:	9002      	str	r0, [sp, #8]
10006306:	4343      	muls	r3, r0
10006308:	4649      	mov	r1, r9
1000630a:	1c38      	adds	r0, r7, #0
1000630c:	4698      	mov	r8, r3
1000630e:	f7fd f92d 	bl	1000356c <__aeabi_uidivmod>
10006312:	0c23      	lsrs	r3, r4, #16
10006314:	040f      	lsls	r7, r1, #16
10006316:	431f      	orrs	r7, r3
10006318:	45b8      	cmp	r8, r7
1000631a:	d90c      	bls.n	10006336 <__aeabi_ddiv+0x326>
1000631c:	9b02      	ldr	r3, [sp, #8]
1000631e:	19bf      	adds	r7, r7, r6
10006320:	3b01      	subs	r3, #1
10006322:	42be      	cmp	r6, r7
10006324:	d900      	bls.n	10006328 <__aeabi_ddiv+0x318>
10006326:	e0fb      	b.n	10006520 <__aeabi_ddiv+0x510>
10006328:	45b8      	cmp	r8, r7
1000632a:	d800      	bhi.n	1000632e <__aeabi_ddiv+0x31e>
1000632c:	e0f8      	b.n	10006520 <__aeabi_ddiv+0x510>
1000632e:	9b02      	ldr	r3, [sp, #8]
10006330:	19bf      	adds	r7, r7, r6
10006332:	3b02      	subs	r3, #2
10006334:	9302      	str	r3, [sp, #8]
10006336:	4643      	mov	r3, r8
10006338:	1aff      	subs	r7, r7, r3
1000633a:	4649      	mov	r1, r9
1000633c:	1c38      	adds	r0, r7, #0
1000633e:	f7fd f88f 	bl	10003460 <__aeabi_uidiv>
10006342:	9b00      	ldr	r3, [sp, #0]
10006344:	9003      	str	r0, [sp, #12]
10006346:	4343      	muls	r3, r0
10006348:	4649      	mov	r1, r9
1000634a:	1c38      	adds	r0, r7, #0
1000634c:	4698      	mov	r8, r3
1000634e:	f7fd f90d 	bl	1000356c <__aeabi_uidivmod>
10006352:	0424      	lsls	r4, r4, #16
10006354:	0409      	lsls	r1, r1, #16
10006356:	0c24      	lsrs	r4, r4, #16
10006358:	4321      	orrs	r1, r4
1000635a:	4588      	cmp	r8, r1
1000635c:	d90c      	bls.n	10006378 <__aeabi_ddiv+0x368>
1000635e:	9b03      	ldr	r3, [sp, #12]
10006360:	1989      	adds	r1, r1, r6
10006362:	3b01      	subs	r3, #1
10006364:	428e      	cmp	r6, r1
10006366:	d900      	bls.n	1000636a <__aeabi_ddiv+0x35a>
10006368:	e0dc      	b.n	10006524 <__aeabi_ddiv+0x514>
1000636a:	4588      	cmp	r8, r1
1000636c:	d800      	bhi.n	10006370 <__aeabi_ddiv+0x360>
1000636e:	e0d9      	b.n	10006524 <__aeabi_ddiv+0x514>
10006370:	9b03      	ldr	r3, [sp, #12]
10006372:	1989      	adds	r1, r1, r6
10006374:	3b02      	subs	r3, #2
10006376:	9303      	str	r3, [sp, #12]
10006378:	4643      	mov	r3, r8
1000637a:	1ac9      	subs	r1, r1, r3
1000637c:	9b02      	ldr	r3, [sp, #8]
1000637e:	9a03      	ldr	r2, [sp, #12]
10006380:	041b      	lsls	r3, r3, #16
10006382:	9c05      	ldr	r4, [sp, #20]
10006384:	431a      	orrs	r2, r3
10006386:	0c10      	lsrs	r0, r2, #16
10006388:	0413      	lsls	r3, r2, #16
1000638a:	4691      	mov	r9, r2
1000638c:	1c22      	adds	r2, r4, #0
1000638e:	9f04      	ldr	r7, [sp, #16]
10006390:	0c1b      	lsrs	r3, r3, #16
10006392:	435a      	muls	r2, r3
10006394:	4344      	muls	r4, r0
10006396:	437b      	muls	r3, r7
10006398:	4378      	muls	r0, r7
1000639a:	18e3      	adds	r3, r4, r3
1000639c:	0c17      	lsrs	r7, r2, #16
1000639e:	19db      	adds	r3, r3, r7
100063a0:	429c      	cmp	r4, r3
100063a2:	d903      	bls.n	100063ac <__aeabi_ddiv+0x39c>
100063a4:	2480      	movs	r4, #128	; 0x80
100063a6:	0264      	lsls	r4, r4, #9
100063a8:	46a4      	mov	ip, r4
100063aa:	4460      	add	r0, ip
100063ac:	0c1c      	lsrs	r4, r3, #16
100063ae:	0412      	lsls	r2, r2, #16
100063b0:	041b      	lsls	r3, r3, #16
100063b2:	0c12      	lsrs	r2, r2, #16
100063b4:	1900      	adds	r0, r0, r4
100063b6:	189b      	adds	r3, r3, r2
100063b8:	4281      	cmp	r1, r0
100063ba:	d200      	bcs.n	100063be <__aeabi_ddiv+0x3ae>
100063bc:	e096      	b.n	100064ec <__aeabi_ddiv+0x4dc>
100063be:	d100      	bne.n	100063c2 <__aeabi_ddiv+0x3b2>
100063c0:	e0fc      	b.n	100065bc <__aeabi_ddiv+0x5ac>
100063c2:	464a      	mov	r2, r9
100063c4:	2301      	movs	r3, #1
100063c6:	431a      	orrs	r2, r3
100063c8:	4691      	mov	r9, r2
100063ca:	4b9b      	ldr	r3, [pc, #620]	; (10006638 <__aeabi_ddiv+0x628>)
100063cc:	18eb      	adds	r3, r5, r3
100063ce:	2b00      	cmp	r3, #0
100063d0:	dc00      	bgt.n	100063d4 <__aeabi_ddiv+0x3c4>
100063d2:	e099      	b.n	10006508 <__aeabi_ddiv+0x4f8>
100063d4:	464a      	mov	r2, r9
100063d6:	0752      	lsls	r2, r2, #29
100063d8:	d00a      	beq.n	100063f0 <__aeabi_ddiv+0x3e0>
100063da:	220f      	movs	r2, #15
100063dc:	4649      	mov	r1, r9
100063de:	400a      	ands	r2, r1
100063e0:	2a04      	cmp	r2, #4
100063e2:	d005      	beq.n	100063f0 <__aeabi_ddiv+0x3e0>
100063e4:	3104      	adds	r1, #4
100063e6:	4549      	cmp	r1, r9
100063e8:	4192      	sbcs	r2, r2
100063ea:	4689      	mov	r9, r1
100063ec:	4252      	negs	r2, r2
100063ee:	4493      	add	fp, r2
100063f0:	465a      	mov	r2, fp
100063f2:	01d2      	lsls	r2, r2, #7
100063f4:	d506      	bpl.n	10006404 <__aeabi_ddiv+0x3f4>
100063f6:	465a      	mov	r2, fp
100063f8:	4b90      	ldr	r3, [pc, #576]	; (1000663c <__aeabi_ddiv+0x62c>)
100063fa:	401a      	ands	r2, r3
100063fc:	2380      	movs	r3, #128	; 0x80
100063fe:	4693      	mov	fp, r2
10006400:	00db      	lsls	r3, r3, #3
10006402:	18eb      	adds	r3, r5, r3
10006404:	4a8e      	ldr	r2, [pc, #568]	; (10006640 <__aeabi_ddiv+0x630>)
10006406:	4293      	cmp	r3, r2
10006408:	dd00      	ble.n	1000640c <__aeabi_ddiv+0x3fc>
1000640a:	e662      	b.n	100060d2 <__aeabi_ddiv+0xc2>
1000640c:	464a      	mov	r2, r9
1000640e:	4659      	mov	r1, fp
10006410:	08d2      	lsrs	r2, r2, #3
10006412:	0749      	lsls	r1, r1, #29
10006414:	4311      	orrs	r1, r2
10006416:	465a      	mov	r2, fp
10006418:	4689      	mov	r9, r1
1000641a:	0257      	lsls	r7, r2, #9
1000641c:	4651      	mov	r1, sl
1000641e:	2201      	movs	r2, #1
10006420:	055b      	lsls	r3, r3, #21
10006422:	0b3f      	lsrs	r7, r7, #12
10006424:	0d5b      	lsrs	r3, r3, #21
10006426:	400a      	ands	r2, r1
10006428:	e65a      	b.n	100060e0 <__aeabi_ddiv+0xd0>
1000642a:	2080      	movs	r0, #128	; 0x80
1000642c:	465a      	mov	r2, fp
1000642e:	0300      	lsls	r0, r0, #12
10006430:	4202      	tst	r2, r0
10006432:	d008      	beq.n	10006446 <__aeabi_ddiv+0x436>
10006434:	4207      	tst	r7, r0
10006436:	d106      	bne.n	10006446 <__aeabi_ddiv+0x436>
10006438:	4307      	orrs	r7, r0
1000643a:	033f      	lsls	r7, r7, #12
1000643c:	4699      	mov	r9, r3
1000643e:	0b3f      	lsrs	r7, r7, #12
10006440:	4642      	mov	r2, r8
10006442:	4b80      	ldr	r3, [pc, #512]	; (10006644 <__aeabi_ddiv+0x634>)
10006444:	e64c      	b.n	100060e0 <__aeabi_ddiv+0xd0>
10006446:	465f      	mov	r7, fp
10006448:	4307      	orrs	r7, r0
1000644a:	033f      	lsls	r7, r7, #12
1000644c:	0b3f      	lsrs	r7, r7, #12
1000644e:	1c22      	adds	r2, r4, #0
10006450:	4b7c      	ldr	r3, [pc, #496]	; (10006644 <__aeabi_ddiv+0x634>)
10006452:	e645      	b.n	100060e0 <__aeabi_ddiv+0xd0>
10006454:	f7fd f986 	bl	10003764 <__clzsi2>
10006458:	1c03      	adds	r3, r0, #0
1000645a:	3020      	adds	r0, #32
1000645c:	2827      	cmp	r0, #39	; 0x27
1000645e:	dc00      	bgt.n	10006462 <__aeabi_ddiv+0x452>
10006460:	e65e      	b.n	10006120 <__aeabi_ddiv+0x110>
10006462:	3b08      	subs	r3, #8
10006464:	409e      	lsls	r6, r3
10006466:	2300      	movs	r3, #0
10006468:	46b3      	mov	fp, r6
1000646a:	4699      	mov	r9, r3
1000646c:	e665      	b.n	1000613a <__aeabi_ddiv+0x12a>
1000646e:	4650      	mov	r0, sl
10006470:	f7fd f978 	bl	10003764 <__clzsi2>
10006474:	1c02      	adds	r2, r0, #0
10006476:	3220      	adds	r2, #32
10006478:	2a27      	cmp	r2, #39	; 0x27
1000647a:	dc00      	bgt.n	1000647e <__aeabi_ddiv+0x46e>
1000647c:	e675      	b.n	1000616a <__aeabi_ddiv+0x15a>
1000647e:	4657      	mov	r7, sl
10006480:	3808      	subs	r0, #8
10006482:	4087      	lsls	r7, r0
10006484:	2300      	movs	r3, #0
10006486:	e67b      	b.n	10006180 <__aeabi_ddiv+0x170>
10006488:	4599      	cmp	r9, r3
1000648a:	d200      	bcs.n	1000648e <__aeabi_ddiv+0x47e>
1000648c:	e6af      	b.n	100061ee <__aeabi_ddiv+0x1de>
1000648e:	465a      	mov	r2, fp
10006490:	4659      	mov	r1, fp
10006492:	0854      	lsrs	r4, r2, #1
10006494:	464a      	mov	r2, r9
10006496:	07c8      	lsls	r0, r1, #31
10006498:	0852      	lsrs	r2, r2, #1
1000649a:	4302      	orrs	r2, r0
1000649c:	9203      	str	r2, [sp, #12]
1000649e:	464a      	mov	r2, r9
100064a0:	07d2      	lsls	r2, r2, #31
100064a2:	4690      	mov	r8, r2
100064a4:	e6a9      	b.n	100061fa <__aeabi_ddiv+0x1ea>
100064a6:	2700      	movs	r7, #0
100064a8:	4588      	cmp	r8, r1
100064aa:	d300      	bcc.n	100064ae <__aeabi_ddiv+0x49e>
100064ac:	e71c      	b.n	100062e8 <__aeabi_ddiv+0x2d8>
100064ae:	9f01      	ldr	r7, [sp, #4]
100064b0:	465a      	mov	r2, fp
100064b2:	46bc      	mov	ip, r7
100064b4:	44e0      	add	r8, ip
100064b6:	45b8      	cmp	r8, r7
100064b8:	41bf      	sbcs	r7, r7
100064ba:	427f      	negs	r7, r7
100064bc:	19bf      	adds	r7, r7, r6
100064be:	18ff      	adds	r7, r7, r3
100064c0:	3a01      	subs	r2, #1
100064c2:	42be      	cmp	r6, r7
100064c4:	d206      	bcs.n	100064d4 <__aeabi_ddiv+0x4c4>
100064c6:	42bc      	cmp	r4, r7
100064c8:	d85f      	bhi.n	1000658a <__aeabi_ddiv+0x57a>
100064ca:	d100      	bne.n	100064ce <__aeabi_ddiv+0x4be>
100064cc:	e09f      	b.n	1000660e <__aeabi_ddiv+0x5fe>
100064ce:	1b3f      	subs	r7, r7, r4
100064d0:	4693      	mov	fp, r2
100064d2:	e709      	b.n	100062e8 <__aeabi_ddiv+0x2d8>
100064d4:	42b7      	cmp	r7, r6
100064d6:	d1fa      	bne.n	100064ce <__aeabi_ddiv+0x4be>
100064d8:	9b01      	ldr	r3, [sp, #4]
100064da:	4543      	cmp	r3, r8
100064dc:	d9f3      	bls.n	100064c6 <__aeabi_ddiv+0x4b6>
100064de:	1b37      	subs	r7, r6, r4
100064e0:	4693      	mov	fp, r2
100064e2:	e701      	b.n	100062e8 <__aeabi_ddiv+0x2d8>
100064e4:	4693      	mov	fp, r2
100064e6:	e6d4      	b.n	10006292 <__aeabi_ddiv+0x282>
100064e8:	9302      	str	r3, [sp, #8]
100064ea:	e6b1      	b.n	10006250 <__aeabi_ddiv+0x240>
100064ec:	464a      	mov	r2, r9
100064ee:	1989      	adds	r1, r1, r6
100064f0:	3a01      	subs	r2, #1
100064f2:	428e      	cmp	r6, r1
100064f4:	d918      	bls.n	10006528 <__aeabi_ddiv+0x518>
100064f6:	4691      	mov	r9, r2
100064f8:	4281      	cmp	r1, r0
100064fa:	d000      	beq.n	100064fe <__aeabi_ddiv+0x4ee>
100064fc:	e761      	b.n	100063c2 <__aeabi_ddiv+0x3b2>
100064fe:	9a01      	ldr	r2, [sp, #4]
10006500:	429a      	cmp	r2, r3
10006502:	d000      	beq.n	10006506 <__aeabi_ddiv+0x4f6>
10006504:	e75d      	b.n	100063c2 <__aeabi_ddiv+0x3b2>
10006506:	e760      	b.n	100063ca <__aeabi_ddiv+0x3ba>
10006508:	4f4f      	ldr	r7, [pc, #316]	; (10006648 <__aeabi_ddiv+0x638>)
1000650a:	1b7f      	subs	r7, r7, r5
1000650c:	2f38      	cmp	r7, #56	; 0x38
1000650e:	dd13      	ble.n	10006538 <__aeabi_ddiv+0x528>
10006510:	2201      	movs	r2, #1
10006512:	4653      	mov	r3, sl
10006514:	401a      	ands	r2, r3
10006516:	e64f      	b.n	100061b8 <__aeabi_ddiv+0x1a8>
10006518:	2301      	movs	r3, #1
1000651a:	425b      	negs	r3, r3
1000651c:	4699      	mov	r9, r3
1000651e:	e754      	b.n	100063ca <__aeabi_ddiv+0x3ba>
10006520:	9302      	str	r3, [sp, #8]
10006522:	e708      	b.n	10006336 <__aeabi_ddiv+0x326>
10006524:	9303      	str	r3, [sp, #12]
10006526:	e727      	b.n	10006378 <__aeabi_ddiv+0x368>
10006528:	4288      	cmp	r0, r1
1000652a:	d83c      	bhi.n	100065a6 <__aeabi_ddiv+0x596>
1000652c:	d074      	beq.n	10006618 <__aeabi_ddiv+0x608>
1000652e:	4691      	mov	r9, r2
10006530:	e747      	b.n	100063c2 <__aeabi_ddiv+0x3b2>
10006532:	9b01      	ldr	r3, [sp, #4]
10006534:	469a      	mov	sl, r3
10006536:	e748      	b.n	100063ca <__aeabi_ddiv+0x3ba>
10006538:	2f1f      	cmp	r7, #31
1000653a:	dc44      	bgt.n	100065c6 <__aeabi_ddiv+0x5b6>
1000653c:	4b43      	ldr	r3, [pc, #268]	; (1000664c <__aeabi_ddiv+0x63c>)
1000653e:	464a      	mov	r2, r9
10006540:	469c      	mov	ip, r3
10006542:	465b      	mov	r3, fp
10006544:	4465      	add	r5, ip
10006546:	40fa      	lsrs	r2, r7
10006548:	40ab      	lsls	r3, r5
1000654a:	4313      	orrs	r3, r2
1000654c:	464a      	mov	r2, r9
1000654e:	40aa      	lsls	r2, r5
10006550:	1c15      	adds	r5, r2, #0
10006552:	1e6a      	subs	r2, r5, #1
10006554:	4195      	sbcs	r5, r2
10006556:	465a      	mov	r2, fp
10006558:	40fa      	lsrs	r2, r7
1000655a:	432b      	orrs	r3, r5
1000655c:	1c17      	adds	r7, r2, #0
1000655e:	075a      	lsls	r2, r3, #29
10006560:	d009      	beq.n	10006576 <__aeabi_ddiv+0x566>
10006562:	220f      	movs	r2, #15
10006564:	401a      	ands	r2, r3
10006566:	2a04      	cmp	r2, #4
10006568:	d005      	beq.n	10006576 <__aeabi_ddiv+0x566>
1000656a:	1d1a      	adds	r2, r3, #4
1000656c:	429a      	cmp	r2, r3
1000656e:	419b      	sbcs	r3, r3
10006570:	425b      	negs	r3, r3
10006572:	18ff      	adds	r7, r7, r3
10006574:	1c13      	adds	r3, r2, #0
10006576:	023a      	lsls	r2, r7, #8
10006578:	d53e      	bpl.n	100065f8 <__aeabi_ddiv+0x5e8>
1000657a:	4653      	mov	r3, sl
1000657c:	2201      	movs	r2, #1
1000657e:	2100      	movs	r1, #0
10006580:	401a      	ands	r2, r3
10006582:	2700      	movs	r7, #0
10006584:	2301      	movs	r3, #1
10006586:	4689      	mov	r9, r1
10006588:	e5aa      	b.n	100060e0 <__aeabi_ddiv+0xd0>
1000658a:	2302      	movs	r3, #2
1000658c:	425b      	negs	r3, r3
1000658e:	469c      	mov	ip, r3
10006590:	9a01      	ldr	r2, [sp, #4]
10006592:	44e3      	add	fp, ip
10006594:	4694      	mov	ip, r2
10006596:	44e0      	add	r8, ip
10006598:	4590      	cmp	r8, r2
1000659a:	419b      	sbcs	r3, r3
1000659c:	425b      	negs	r3, r3
1000659e:	199b      	adds	r3, r3, r6
100065a0:	19df      	adds	r7, r3, r7
100065a2:	1b3f      	subs	r7, r7, r4
100065a4:	e6a0      	b.n	100062e8 <__aeabi_ddiv+0x2d8>
100065a6:	9f01      	ldr	r7, [sp, #4]
100065a8:	464a      	mov	r2, r9
100065aa:	007c      	lsls	r4, r7, #1
100065ac:	42bc      	cmp	r4, r7
100065ae:	41bf      	sbcs	r7, r7
100065b0:	427f      	negs	r7, r7
100065b2:	19bf      	adds	r7, r7, r6
100065b4:	3a02      	subs	r2, #2
100065b6:	19c9      	adds	r1, r1, r7
100065b8:	9401      	str	r4, [sp, #4]
100065ba:	e79c      	b.n	100064f6 <__aeabi_ddiv+0x4e6>
100065bc:	2b00      	cmp	r3, #0
100065be:	d195      	bne.n	100064ec <__aeabi_ddiv+0x4dc>
100065c0:	2200      	movs	r2, #0
100065c2:	9201      	str	r2, [sp, #4]
100065c4:	e79b      	b.n	100064fe <__aeabi_ddiv+0x4ee>
100065c6:	465a      	mov	r2, fp
100065c8:	4b21      	ldr	r3, [pc, #132]	; (10006650 <__aeabi_ddiv+0x640>)
100065ca:	1b5b      	subs	r3, r3, r5
100065cc:	40da      	lsrs	r2, r3
100065ce:	2f20      	cmp	r7, #32
100065d0:	d027      	beq.n	10006622 <__aeabi_ddiv+0x612>
100065d2:	4b20      	ldr	r3, [pc, #128]	; (10006654 <__aeabi_ddiv+0x644>)
100065d4:	469c      	mov	ip, r3
100065d6:	465b      	mov	r3, fp
100065d8:	4465      	add	r5, ip
100065da:	40ab      	lsls	r3, r5
100065dc:	4649      	mov	r1, r9
100065de:	430b      	orrs	r3, r1
100065e0:	1e59      	subs	r1, r3, #1
100065e2:	418b      	sbcs	r3, r1
100065e4:	4313      	orrs	r3, r2
100065e6:	2207      	movs	r2, #7
100065e8:	2700      	movs	r7, #0
100065ea:	401a      	ands	r2, r3
100065ec:	d007      	beq.n	100065fe <__aeabi_ddiv+0x5ee>
100065ee:	220f      	movs	r2, #15
100065f0:	2700      	movs	r7, #0
100065f2:	401a      	ands	r2, r3
100065f4:	2a04      	cmp	r2, #4
100065f6:	d1b8      	bne.n	1000656a <__aeabi_ddiv+0x55a>
100065f8:	077a      	lsls	r2, r7, #29
100065fa:	027f      	lsls	r7, r7, #9
100065fc:	0b3f      	lsrs	r7, r7, #12
100065fe:	08db      	lsrs	r3, r3, #3
10006600:	4313      	orrs	r3, r2
10006602:	4699      	mov	r9, r3
10006604:	2201      	movs	r2, #1
10006606:	4653      	mov	r3, sl
10006608:	401a      	ands	r2, r3
1000660a:	2300      	movs	r3, #0
1000660c:	e568      	b.n	100060e0 <__aeabi_ddiv+0xd0>
1000660e:	4541      	cmp	r1, r8
10006610:	d8bb      	bhi.n	1000658a <__aeabi_ddiv+0x57a>
10006612:	4693      	mov	fp, r2
10006614:	2700      	movs	r7, #0
10006616:	e667      	b.n	100062e8 <__aeabi_ddiv+0x2d8>
10006618:	9c01      	ldr	r4, [sp, #4]
1000661a:	429c      	cmp	r4, r3
1000661c:	d3c3      	bcc.n	100065a6 <__aeabi_ddiv+0x596>
1000661e:	4691      	mov	r9, r2
10006620:	e76d      	b.n	100064fe <__aeabi_ddiv+0x4ee>
10006622:	2300      	movs	r3, #0
10006624:	e7da      	b.n	100065dc <__aeabi_ddiv+0x5cc>
10006626:	2780      	movs	r7, #128	; 0x80
10006628:	465b      	mov	r3, fp
1000662a:	033f      	lsls	r7, r7, #12
1000662c:	431f      	orrs	r7, r3
1000662e:	033f      	lsls	r7, r7, #12
10006630:	0b3f      	lsrs	r7, r7, #12
10006632:	9a01      	ldr	r2, [sp, #4]
10006634:	4b03      	ldr	r3, [pc, #12]	; (10006644 <__aeabi_ddiv+0x634>)
10006636:	e553      	b.n	100060e0 <__aeabi_ddiv+0xd0>
10006638:	000003ff 	.word	0x000003ff
1000663c:	feffffff 	.word	0xfeffffff
10006640:	000007fe 	.word	0x000007fe
10006644:	000007ff 	.word	0x000007ff
10006648:	fffffc02 	.word	0xfffffc02
1000664c:	0000041e 	.word	0x0000041e
10006650:	fffffbe2 	.word	0xfffffbe2
10006654:	0000043e 	.word	0x0000043e

10006658 <__eqdf2>:
10006658:	b5f0      	push	{r4, r5, r6, r7, lr}
1000665a:	465f      	mov	r7, fp
1000665c:	464d      	mov	r5, r9
1000665e:	4644      	mov	r4, r8
10006660:	4656      	mov	r6, sl
10006662:	b4f0      	push	{r4, r5, r6, r7}
10006664:	031f      	lsls	r7, r3, #12
10006666:	005c      	lsls	r4, r3, #1
10006668:	0fdb      	lsrs	r3, r3, #31
1000666a:	4699      	mov	r9, r3
1000666c:	4b1b      	ldr	r3, [pc, #108]	; (100066dc <__eqdf2+0x84>)
1000666e:	030e      	lsls	r6, r1, #12
10006670:	004d      	lsls	r5, r1, #1
10006672:	0fc9      	lsrs	r1, r1, #31
10006674:	4684      	mov	ip, r0
10006676:	0b36      	lsrs	r6, r6, #12
10006678:	0d6d      	lsrs	r5, r5, #21
1000667a:	468b      	mov	fp, r1
1000667c:	4690      	mov	r8, r2
1000667e:	0b3f      	lsrs	r7, r7, #12
10006680:	0d64      	lsrs	r4, r4, #21
10006682:	429d      	cmp	r5, r3
10006684:	d00c      	beq.n	100066a0 <__eqdf2+0x48>
10006686:	4b15      	ldr	r3, [pc, #84]	; (100066dc <__eqdf2+0x84>)
10006688:	429c      	cmp	r4, r3
1000668a:	d010      	beq.n	100066ae <__eqdf2+0x56>
1000668c:	2301      	movs	r3, #1
1000668e:	42a5      	cmp	r5, r4
10006690:	d014      	beq.n	100066bc <__eqdf2+0x64>
10006692:	1c18      	adds	r0, r3, #0
10006694:	bc3c      	pop	{r2, r3, r4, r5}
10006696:	4690      	mov	r8, r2
10006698:	4699      	mov	r9, r3
1000669a:	46a2      	mov	sl, r4
1000669c:	46ab      	mov	fp, r5
1000669e:	bdf0      	pop	{r4, r5, r6, r7, pc}
100066a0:	1c31      	adds	r1, r6, #0
100066a2:	2301      	movs	r3, #1
100066a4:	4301      	orrs	r1, r0
100066a6:	d1f4      	bne.n	10006692 <__eqdf2+0x3a>
100066a8:	4b0c      	ldr	r3, [pc, #48]	; (100066dc <__eqdf2+0x84>)
100066aa:	429c      	cmp	r4, r3
100066ac:	d1ee      	bne.n	1000668c <__eqdf2+0x34>
100066ae:	433a      	orrs	r2, r7
100066b0:	2301      	movs	r3, #1
100066b2:	2a00      	cmp	r2, #0
100066b4:	d1ed      	bne.n	10006692 <__eqdf2+0x3a>
100066b6:	2301      	movs	r3, #1
100066b8:	42a5      	cmp	r5, r4
100066ba:	d1ea      	bne.n	10006692 <__eqdf2+0x3a>
100066bc:	42be      	cmp	r6, r7
100066be:	d1e8      	bne.n	10006692 <__eqdf2+0x3a>
100066c0:	45c4      	cmp	ip, r8
100066c2:	d1e6      	bne.n	10006692 <__eqdf2+0x3a>
100066c4:	45cb      	cmp	fp, r9
100066c6:	d006      	beq.n	100066d6 <__eqdf2+0x7e>
100066c8:	2d00      	cmp	r5, #0
100066ca:	d1e2      	bne.n	10006692 <__eqdf2+0x3a>
100066cc:	4330      	orrs	r0, r6
100066ce:	1c03      	adds	r3, r0, #0
100066d0:	1e58      	subs	r0, r3, #1
100066d2:	4183      	sbcs	r3, r0
100066d4:	e7dd      	b.n	10006692 <__eqdf2+0x3a>
100066d6:	2300      	movs	r3, #0
100066d8:	e7db      	b.n	10006692 <__eqdf2+0x3a>
100066da:	46c0      	nop			; (mov r8, r8)
100066dc:	000007ff 	.word	0x000007ff

100066e0 <__gedf2>:
100066e0:	b5f0      	push	{r4, r5, r6, r7, lr}
100066e2:	4657      	mov	r7, sl
100066e4:	4645      	mov	r5, r8
100066e6:	464e      	mov	r6, r9
100066e8:	b4e0      	push	{r5, r6, r7}
100066ea:	030f      	lsls	r7, r1, #12
100066ec:	004e      	lsls	r6, r1, #1
100066ee:	0fc9      	lsrs	r1, r1, #31
100066f0:	468a      	mov	sl, r1
100066f2:	4932      	ldr	r1, [pc, #200]	; (100067bc <__gedf2+0xdc>)
100066f4:	031d      	lsls	r5, r3, #12
100066f6:	005c      	lsls	r4, r3, #1
100066f8:	4684      	mov	ip, r0
100066fa:	0b3f      	lsrs	r7, r7, #12
100066fc:	0d76      	lsrs	r6, r6, #21
100066fe:	4690      	mov	r8, r2
10006700:	0b2d      	lsrs	r5, r5, #12
10006702:	0d64      	lsrs	r4, r4, #21
10006704:	0fdb      	lsrs	r3, r3, #31
10006706:	428e      	cmp	r6, r1
10006708:	d00f      	beq.n	1000672a <__gedf2+0x4a>
1000670a:	428c      	cmp	r4, r1
1000670c:	d039      	beq.n	10006782 <__gedf2+0xa2>
1000670e:	2e00      	cmp	r6, #0
10006710:	d110      	bne.n	10006734 <__gedf2+0x54>
10006712:	4338      	orrs	r0, r7
10006714:	4241      	negs	r1, r0
10006716:	4141      	adcs	r1, r0
10006718:	4689      	mov	r9, r1
1000671a:	2c00      	cmp	r4, #0
1000671c:	d127      	bne.n	1000676e <__gedf2+0x8e>
1000671e:	432a      	orrs	r2, r5
10006720:	d125      	bne.n	1000676e <__gedf2+0x8e>
10006722:	2000      	movs	r0, #0
10006724:	2900      	cmp	r1, #0
10006726:	d10e      	bne.n	10006746 <__gedf2+0x66>
10006728:	e008      	b.n	1000673c <__gedf2+0x5c>
1000672a:	1c39      	adds	r1, r7, #0
1000672c:	4301      	orrs	r1, r0
1000672e:	d12e      	bne.n	1000678e <__gedf2+0xae>
10006730:	42b4      	cmp	r4, r6
10006732:	d026      	beq.n	10006782 <__gedf2+0xa2>
10006734:	2c00      	cmp	r4, #0
10006736:	d00b      	beq.n	10006750 <__gedf2+0x70>
10006738:	459a      	cmp	sl, r3
1000673a:	d00d      	beq.n	10006758 <__gedf2+0x78>
1000673c:	4653      	mov	r3, sl
1000673e:	4259      	negs	r1, r3
10006740:	2301      	movs	r3, #1
10006742:	4319      	orrs	r1, r3
10006744:	1c08      	adds	r0, r1, #0
10006746:	bc1c      	pop	{r2, r3, r4}
10006748:	4690      	mov	r8, r2
1000674a:	4699      	mov	r9, r3
1000674c:	46a2      	mov	sl, r4
1000674e:	bdf0      	pop	{r4, r5, r6, r7, pc}
10006750:	432a      	orrs	r2, r5
10006752:	d0f3      	beq.n	1000673c <__gedf2+0x5c>
10006754:	459a      	cmp	sl, r3
10006756:	d1f1      	bne.n	1000673c <__gedf2+0x5c>
10006758:	42a6      	cmp	r6, r4
1000675a:	dcef      	bgt.n	1000673c <__gedf2+0x5c>
1000675c:	da1a      	bge.n	10006794 <__gedf2+0xb4>
1000675e:	4650      	mov	r0, sl
10006760:	4241      	negs	r1, r0
10006762:	4148      	adcs	r0, r1
10006764:	2301      	movs	r3, #1
10006766:	4241      	negs	r1, r0
10006768:	4319      	orrs	r1, r3
1000676a:	1c08      	adds	r0, r1, #0
1000676c:	e7eb      	b.n	10006746 <__gedf2+0x66>
1000676e:	464a      	mov	r2, r9
10006770:	2a00      	cmp	r2, #0
10006772:	d0e1      	beq.n	10006738 <__gedf2+0x58>
10006774:	4258      	negs	r0, r3
10006776:	4158      	adcs	r0, r3
10006778:	2201      	movs	r2, #1
1000677a:	4241      	negs	r1, r0
1000677c:	4311      	orrs	r1, r2
1000677e:	1c08      	adds	r0, r1, #0
10006780:	e7e1      	b.n	10006746 <__gedf2+0x66>
10006782:	1c29      	adds	r1, r5, #0
10006784:	4311      	orrs	r1, r2
10006786:	d102      	bne.n	1000678e <__gedf2+0xae>
10006788:	2e00      	cmp	r6, #0
1000678a:	d0c2      	beq.n	10006712 <__gedf2+0x32>
1000678c:	e7d4      	b.n	10006738 <__gedf2+0x58>
1000678e:	2002      	movs	r0, #2
10006790:	4240      	negs	r0, r0
10006792:	e7d8      	b.n	10006746 <__gedf2+0x66>
10006794:	42af      	cmp	r7, r5
10006796:	d8d1      	bhi.n	1000673c <__gedf2+0x5c>
10006798:	d009      	beq.n	100067ae <__gedf2+0xce>
1000679a:	2000      	movs	r0, #0
1000679c:	42af      	cmp	r7, r5
1000679e:	d2d2      	bcs.n	10006746 <__gedf2+0x66>
100067a0:	4650      	mov	r0, sl
100067a2:	4241      	negs	r1, r0
100067a4:	4148      	adcs	r0, r1
100067a6:	2301      	movs	r3, #1
100067a8:	4240      	negs	r0, r0
100067aa:	4318      	orrs	r0, r3
100067ac:	e7cb      	b.n	10006746 <__gedf2+0x66>
100067ae:	45c4      	cmp	ip, r8
100067b0:	d8c4      	bhi.n	1000673c <__gedf2+0x5c>
100067b2:	2000      	movs	r0, #0
100067b4:	45c4      	cmp	ip, r8
100067b6:	d3f3      	bcc.n	100067a0 <__gedf2+0xc0>
100067b8:	e7c5      	b.n	10006746 <__gedf2+0x66>
100067ba:	46c0      	nop			; (mov r8, r8)
100067bc:	000007ff 	.word	0x000007ff

100067c0 <__ledf2>:
100067c0:	b5f0      	push	{r4, r5, r6, r7, lr}
100067c2:	465f      	mov	r7, fp
100067c4:	464d      	mov	r5, r9
100067c6:	4644      	mov	r4, r8
100067c8:	4656      	mov	r6, sl
100067ca:	4680      	mov	r8, r0
100067cc:	b4f0      	push	{r4, r5, r6, r7}
100067ce:	1c06      	adds	r6, r0, #0
100067d0:	0308      	lsls	r0, r1, #12
100067d2:	0b00      	lsrs	r0, r0, #12
100067d4:	4684      	mov	ip, r0
100067d6:	482c      	ldr	r0, [pc, #176]	; (10006888 <__ledf2+0xc8>)
100067d8:	004c      	lsls	r4, r1, #1
100067da:	031f      	lsls	r7, r3, #12
100067dc:	005d      	lsls	r5, r3, #1
100067de:	0fc9      	lsrs	r1, r1, #31
100067e0:	0d64      	lsrs	r4, r4, #21
100067e2:	468b      	mov	fp, r1
100067e4:	4691      	mov	r9, r2
100067e6:	0b3f      	lsrs	r7, r7, #12
100067e8:	0d6d      	lsrs	r5, r5, #21
100067ea:	0fdb      	lsrs	r3, r3, #31
100067ec:	4284      	cmp	r4, r0
100067ee:	d012      	beq.n	10006816 <__ledf2+0x56>
100067f0:	4285      	cmp	r5, r0
100067f2:	d025      	beq.n	10006840 <__ledf2+0x80>
100067f4:	2c00      	cmp	r4, #0
100067f6:	d114      	bne.n	10006822 <__ledf2+0x62>
100067f8:	4661      	mov	r1, ip
100067fa:	430e      	orrs	r6, r1
100067fc:	4270      	negs	r0, r6
100067fe:	4146      	adcs	r6, r0
10006800:	2d00      	cmp	r5, #0
10006802:	d035      	beq.n	10006870 <__ledf2+0xb0>
10006804:	2e00      	cmp	r6, #0
10006806:	d021      	beq.n	1000684c <__ledf2+0x8c>
10006808:	4258      	negs	r0, r3
1000680a:	4158      	adcs	r0, r3
1000680c:	2101      	movs	r1, #1
1000680e:	4243      	negs	r3, r0
10006810:	430b      	orrs	r3, r1
10006812:	1c18      	adds	r0, r3, #0
10006814:	e00e      	b.n	10006834 <__ledf2+0x74>
10006816:	4661      	mov	r1, ip
10006818:	2002      	movs	r0, #2
1000681a:	4331      	orrs	r1, r6
1000681c:	d10a      	bne.n	10006834 <__ledf2+0x74>
1000681e:	42a5      	cmp	r5, r4
10006820:	d00e      	beq.n	10006840 <__ledf2+0x80>
10006822:	2d00      	cmp	r5, #0
10006824:	d112      	bne.n	1000684c <__ledf2+0x8c>
10006826:	433a      	orrs	r2, r7
10006828:	d110      	bne.n	1000684c <__ledf2+0x8c>
1000682a:	465b      	mov	r3, fp
1000682c:	4259      	negs	r1, r3
1000682e:	2301      	movs	r3, #1
10006830:	4319      	orrs	r1, r3
10006832:	1c08      	adds	r0, r1, #0
10006834:	bc3c      	pop	{r2, r3, r4, r5}
10006836:	4690      	mov	r8, r2
10006838:	4699      	mov	r9, r3
1000683a:	46a2      	mov	sl, r4
1000683c:	46ab      	mov	fp, r5
1000683e:	bdf0      	pop	{r4, r5, r6, r7, pc}
10006840:	1c39      	adds	r1, r7, #0
10006842:	2002      	movs	r0, #2
10006844:	4311      	orrs	r1, r2
10006846:	d1f5      	bne.n	10006834 <__ledf2+0x74>
10006848:	2c00      	cmp	r4, #0
1000684a:	d0d5      	beq.n	100067f8 <__ledf2+0x38>
1000684c:	459b      	cmp	fp, r3
1000684e:	d1ec      	bne.n	1000682a <__ledf2+0x6a>
10006850:	42ac      	cmp	r4, r5
10006852:	dcea      	bgt.n	1000682a <__ledf2+0x6a>
10006854:	db05      	blt.n	10006862 <__ledf2+0xa2>
10006856:	45bc      	cmp	ip, r7
10006858:	d8e7      	bhi.n	1000682a <__ledf2+0x6a>
1000685a:	d00f      	beq.n	1000687c <__ledf2+0xbc>
1000685c:	2000      	movs	r0, #0
1000685e:	45bc      	cmp	ip, r7
10006860:	d2e8      	bcs.n	10006834 <__ledf2+0x74>
10006862:	4658      	mov	r0, fp
10006864:	4241      	negs	r1, r0
10006866:	4148      	adcs	r0, r1
10006868:	4241      	negs	r1, r0
1000686a:	2001      	movs	r0, #1
1000686c:	4308      	orrs	r0, r1
1000686e:	e7e1      	b.n	10006834 <__ledf2+0x74>
10006870:	433a      	orrs	r2, r7
10006872:	d1c7      	bne.n	10006804 <__ledf2+0x44>
10006874:	2000      	movs	r0, #0
10006876:	2e00      	cmp	r6, #0
10006878:	d1dc      	bne.n	10006834 <__ledf2+0x74>
1000687a:	e7d6      	b.n	1000682a <__ledf2+0x6a>
1000687c:	45c8      	cmp	r8, r9
1000687e:	d8d4      	bhi.n	1000682a <__ledf2+0x6a>
10006880:	2000      	movs	r0, #0
10006882:	45c8      	cmp	r8, r9
10006884:	d3ed      	bcc.n	10006862 <__ledf2+0xa2>
10006886:	e7d5      	b.n	10006834 <__ledf2+0x74>
10006888:	000007ff 	.word	0x000007ff

1000688c <__aeabi_dmul>:
1000688c:	b5f0      	push	{r4, r5, r6, r7, lr}
1000688e:	465f      	mov	r7, fp
10006890:	4656      	mov	r6, sl
10006892:	464d      	mov	r5, r9
10006894:	4644      	mov	r4, r8
10006896:	b4f0      	push	{r4, r5, r6, r7}
10006898:	1c05      	adds	r5, r0, #0
1000689a:	1c06      	adds	r6, r0, #0
1000689c:	0308      	lsls	r0, r1, #12
1000689e:	b087      	sub	sp, #28
100068a0:	4699      	mov	r9, r3
100068a2:	004f      	lsls	r7, r1, #1
100068a4:	0b03      	lsrs	r3, r0, #12
100068a6:	0fcc      	lsrs	r4, r1, #31
100068a8:	4692      	mov	sl, r2
100068aa:	469b      	mov	fp, r3
100068ac:	0d7f      	lsrs	r7, r7, #21
100068ae:	9401      	str	r4, [sp, #4]
100068b0:	d067      	beq.n	10006982 <__aeabi_dmul+0xf6>
100068b2:	4b6c      	ldr	r3, [pc, #432]	; (10006a64 <__aeabi_dmul+0x1d8>)
100068b4:	429f      	cmp	r7, r3
100068b6:	d036      	beq.n	10006926 <__aeabi_dmul+0x9a>
100068b8:	2080      	movs	r0, #128	; 0x80
100068ba:	465b      	mov	r3, fp
100068bc:	0340      	lsls	r0, r0, #13
100068be:	4318      	orrs	r0, r3
100068c0:	00c0      	lsls	r0, r0, #3
100068c2:	0f6b      	lsrs	r3, r5, #29
100068c4:	4318      	orrs	r0, r3
100068c6:	4b68      	ldr	r3, [pc, #416]	; (10006a68 <__aeabi_dmul+0x1dc>)
100068c8:	4683      	mov	fp, r0
100068ca:	469c      	mov	ip, r3
100068cc:	2300      	movs	r3, #0
100068ce:	4698      	mov	r8, r3
100068d0:	00ee      	lsls	r6, r5, #3
100068d2:	4467      	add	r7, ip
100068d4:	9300      	str	r3, [sp, #0]
100068d6:	464b      	mov	r3, r9
100068d8:	4649      	mov	r1, r9
100068da:	031d      	lsls	r5, r3, #12
100068dc:	0fc9      	lsrs	r1, r1, #31
100068de:	005b      	lsls	r3, r3, #1
100068e0:	4652      	mov	r2, sl
100068e2:	0b2d      	lsrs	r5, r5, #12
100068e4:	0d5b      	lsrs	r3, r3, #21
100068e6:	4689      	mov	r9, r1
100068e8:	d100      	bne.n	100068ec <__aeabi_dmul+0x60>
100068ea:	e06e      	b.n	100069ca <__aeabi_dmul+0x13e>
100068ec:	495d      	ldr	r1, [pc, #372]	; (10006a64 <__aeabi_dmul+0x1d8>)
100068ee:	428b      	cmp	r3, r1
100068f0:	d064      	beq.n	100069bc <__aeabi_dmul+0x130>
100068f2:	2080      	movs	r0, #128	; 0x80
100068f4:	495c      	ldr	r1, [pc, #368]	; (10006a68 <__aeabi_dmul+0x1dc>)
100068f6:	0340      	lsls	r0, r0, #13
100068f8:	468c      	mov	ip, r1
100068fa:	2100      	movs	r1, #0
100068fc:	4305      	orrs	r5, r0
100068fe:	00ed      	lsls	r5, r5, #3
10006900:	0f50      	lsrs	r0, r2, #29
10006902:	4305      	orrs	r5, r0
10006904:	00d2      	lsls	r2, r2, #3
10006906:	4463      	add	r3, ip
10006908:	4648      	mov	r0, r9
1000690a:	18ff      	adds	r7, r7, r3
1000690c:	1c7b      	adds	r3, r7, #1
1000690e:	469a      	mov	sl, r3
10006910:	9b00      	ldr	r3, [sp, #0]
10006912:	4060      	eors	r0, r4
10006914:	9002      	str	r0, [sp, #8]
10006916:	430b      	orrs	r3, r1
10006918:	2b0f      	cmp	r3, #15
1000691a:	d900      	bls.n	1000691e <__aeabi_dmul+0x92>
1000691c:	e0ac      	b.n	10006a78 <__aeabi_dmul+0x1ec>
1000691e:	4853      	ldr	r0, [pc, #332]	; (10006a6c <__aeabi_dmul+0x1e0>)
10006920:	009b      	lsls	r3, r3, #2
10006922:	58c3      	ldr	r3, [r0, r3]
10006924:	469f      	mov	pc, r3
10006926:	465b      	mov	r3, fp
10006928:	431d      	orrs	r5, r3
1000692a:	d000      	beq.n	1000692e <__aeabi_dmul+0xa2>
1000692c:	e082      	b.n	10006a34 <__aeabi_dmul+0x1a8>
1000692e:	2308      	movs	r3, #8
10006930:	9300      	str	r3, [sp, #0]
10006932:	2300      	movs	r3, #0
10006934:	469b      	mov	fp, r3
10006936:	3302      	adds	r3, #2
10006938:	2600      	movs	r6, #0
1000693a:	4698      	mov	r8, r3
1000693c:	e7cb      	b.n	100068d6 <__aeabi_dmul+0x4a>
1000693e:	9b02      	ldr	r3, [sp, #8]
10006940:	9301      	str	r3, [sp, #4]
10006942:	4643      	mov	r3, r8
10006944:	2b02      	cmp	r3, #2
10006946:	d159      	bne.n	100069fc <__aeabi_dmul+0x170>
10006948:	2401      	movs	r4, #1
1000694a:	2500      	movs	r5, #0
1000694c:	2600      	movs	r6, #0
1000694e:	9b01      	ldr	r3, [sp, #4]
10006950:	401c      	ands	r4, r3
10006952:	4b44      	ldr	r3, [pc, #272]	; (10006a64 <__aeabi_dmul+0x1d8>)
10006954:	2100      	movs	r1, #0
10006956:	032d      	lsls	r5, r5, #12
10006958:	0d0a      	lsrs	r2, r1, #20
1000695a:	0512      	lsls	r2, r2, #20
1000695c:	0b2d      	lsrs	r5, r5, #12
1000695e:	4315      	orrs	r5, r2
10006960:	4a43      	ldr	r2, [pc, #268]	; (10006a70 <__aeabi_dmul+0x1e4>)
10006962:	051b      	lsls	r3, r3, #20
10006964:	4015      	ands	r5, r2
10006966:	431d      	orrs	r5, r3
10006968:	006d      	lsls	r5, r5, #1
1000696a:	07e4      	lsls	r4, r4, #31
1000696c:	086d      	lsrs	r5, r5, #1
1000696e:	4325      	orrs	r5, r4
10006970:	1c30      	adds	r0, r6, #0
10006972:	1c29      	adds	r1, r5, #0
10006974:	b007      	add	sp, #28
10006976:	bc3c      	pop	{r2, r3, r4, r5}
10006978:	4690      	mov	r8, r2
1000697a:	4699      	mov	r9, r3
1000697c:	46a2      	mov	sl, r4
1000697e:	46ab      	mov	fp, r5
10006980:	bdf0      	pop	{r4, r5, r6, r7, pc}
10006982:	432b      	orrs	r3, r5
10006984:	d04e      	beq.n	10006a24 <__aeabi_dmul+0x198>
10006986:	465b      	mov	r3, fp
10006988:	2b00      	cmp	r3, #0
1000698a:	d100      	bne.n	1000698e <__aeabi_dmul+0x102>
1000698c:	e185      	b.n	10006c9a <__aeabi_dmul+0x40e>
1000698e:	4658      	mov	r0, fp
10006990:	f7fc fee8 	bl	10003764 <__clzsi2>
10006994:	1c02      	adds	r2, r0, #0
10006996:	2328      	movs	r3, #40	; 0x28
10006998:	1c29      	adds	r1, r5, #0
1000699a:	1a9b      	subs	r3, r3, r2
1000699c:	1c16      	adds	r6, r2, #0
1000699e:	4658      	mov	r0, fp
100069a0:	40d9      	lsrs	r1, r3
100069a2:	3e08      	subs	r6, #8
100069a4:	40b0      	lsls	r0, r6
100069a6:	1c0b      	adds	r3, r1, #0
100069a8:	40b5      	lsls	r5, r6
100069aa:	4303      	orrs	r3, r0
100069ac:	469b      	mov	fp, r3
100069ae:	1c2e      	adds	r6, r5, #0
100069b0:	2300      	movs	r3, #0
100069b2:	4f30      	ldr	r7, [pc, #192]	; (10006a74 <__aeabi_dmul+0x1e8>)
100069b4:	9300      	str	r3, [sp, #0]
100069b6:	1abf      	subs	r7, r7, r2
100069b8:	4698      	mov	r8, r3
100069ba:	e78c      	b.n	100068d6 <__aeabi_dmul+0x4a>
100069bc:	4651      	mov	r1, sl
100069be:	4329      	orrs	r1, r5
100069c0:	d12e      	bne.n	10006a20 <__aeabi_dmul+0x194>
100069c2:	2500      	movs	r5, #0
100069c4:	2200      	movs	r2, #0
100069c6:	2102      	movs	r1, #2
100069c8:	e79e      	b.n	10006908 <__aeabi_dmul+0x7c>
100069ca:	4651      	mov	r1, sl
100069cc:	4329      	orrs	r1, r5
100069ce:	d023      	beq.n	10006a18 <__aeabi_dmul+0x18c>
100069d0:	2d00      	cmp	r5, #0
100069d2:	d100      	bne.n	100069d6 <__aeabi_dmul+0x14a>
100069d4:	e154      	b.n	10006c80 <__aeabi_dmul+0x3f4>
100069d6:	1c28      	adds	r0, r5, #0
100069d8:	f7fc fec4 	bl	10003764 <__clzsi2>
100069dc:	1c03      	adds	r3, r0, #0
100069de:	2128      	movs	r1, #40	; 0x28
100069e0:	4650      	mov	r0, sl
100069e2:	1ac9      	subs	r1, r1, r3
100069e4:	1c1a      	adds	r2, r3, #0
100069e6:	40c8      	lsrs	r0, r1
100069e8:	4651      	mov	r1, sl
100069ea:	3a08      	subs	r2, #8
100069ec:	4091      	lsls	r1, r2
100069ee:	4095      	lsls	r5, r2
100069f0:	1c0a      	adds	r2, r1, #0
100069f2:	4305      	orrs	r5, r0
100069f4:	481f      	ldr	r0, [pc, #124]	; (10006a74 <__aeabi_dmul+0x1e8>)
100069f6:	2100      	movs	r1, #0
100069f8:	1ac3      	subs	r3, r0, r3
100069fa:	e785      	b.n	10006908 <__aeabi_dmul+0x7c>
100069fc:	2b03      	cmp	r3, #3
100069fe:	d100      	bne.n	10006a02 <__aeabi_dmul+0x176>
10006a00:	e1c2      	b.n	10006d88 <__aeabi_dmul+0x4fc>
10006a02:	2b01      	cmp	r3, #1
10006a04:	d000      	beq.n	10006a08 <__aeabi_dmul+0x17c>
10006a06:	e16d      	b.n	10006ce4 <__aeabi_dmul+0x458>
10006a08:	4644      	mov	r4, r8
10006a0a:	9b01      	ldr	r3, [sp, #4]
10006a0c:	2500      	movs	r5, #0
10006a0e:	401c      	ands	r4, r3
10006a10:	b2e4      	uxtb	r4, r4
10006a12:	2300      	movs	r3, #0
10006a14:	2600      	movs	r6, #0
10006a16:	e79d      	b.n	10006954 <__aeabi_dmul+0xc8>
10006a18:	2500      	movs	r5, #0
10006a1a:	2200      	movs	r2, #0
10006a1c:	2101      	movs	r1, #1
10006a1e:	e773      	b.n	10006908 <__aeabi_dmul+0x7c>
10006a20:	2103      	movs	r1, #3
10006a22:	e771      	b.n	10006908 <__aeabi_dmul+0x7c>
10006a24:	2304      	movs	r3, #4
10006a26:	9300      	str	r3, [sp, #0]
10006a28:	2300      	movs	r3, #0
10006a2a:	469b      	mov	fp, r3
10006a2c:	3301      	adds	r3, #1
10006a2e:	2600      	movs	r6, #0
10006a30:	4698      	mov	r8, r3
10006a32:	e750      	b.n	100068d6 <__aeabi_dmul+0x4a>
10006a34:	230c      	movs	r3, #12
10006a36:	9300      	str	r3, [sp, #0]
10006a38:	3b09      	subs	r3, #9
10006a3a:	4698      	mov	r8, r3
10006a3c:	e74b      	b.n	100068d6 <__aeabi_dmul+0x4a>
10006a3e:	2580      	movs	r5, #128	; 0x80
10006a40:	2400      	movs	r4, #0
10006a42:	032d      	lsls	r5, r5, #12
10006a44:	2600      	movs	r6, #0
10006a46:	4b07      	ldr	r3, [pc, #28]	; (10006a64 <__aeabi_dmul+0x1d8>)
10006a48:	e784      	b.n	10006954 <__aeabi_dmul+0xc8>
10006a4a:	464b      	mov	r3, r9
10006a4c:	46ab      	mov	fp, r5
10006a4e:	1c16      	adds	r6, r2, #0
10006a50:	9301      	str	r3, [sp, #4]
10006a52:	4688      	mov	r8, r1
10006a54:	e775      	b.n	10006942 <__aeabi_dmul+0xb6>
10006a56:	9b02      	ldr	r3, [sp, #8]
10006a58:	46ab      	mov	fp, r5
10006a5a:	1c16      	adds	r6, r2, #0
10006a5c:	9301      	str	r3, [sp, #4]
10006a5e:	4688      	mov	r8, r1
10006a60:	e76f      	b.n	10006942 <__aeabi_dmul+0xb6>
10006a62:	46c0      	nop			; (mov r8, r8)
10006a64:	000007ff 	.word	0x000007ff
10006a68:	fffffc01 	.word	0xfffffc01
10006a6c:	10007a60 	.word	0x10007a60
10006a70:	800fffff 	.word	0x800fffff
10006a74:	fffffc0d 	.word	0xfffffc0d
10006a78:	0c33      	lsrs	r3, r6, #16
10006a7a:	0436      	lsls	r6, r6, #16
10006a7c:	0c36      	lsrs	r6, r6, #16
10006a7e:	469c      	mov	ip, r3
10006a80:	1c33      	adds	r3, r6, #0
10006a82:	0c14      	lsrs	r4, r2, #16
10006a84:	0412      	lsls	r2, r2, #16
10006a86:	0c12      	lsrs	r2, r2, #16
10006a88:	4353      	muls	r3, r2
10006a8a:	4698      	mov	r8, r3
10006a8c:	4663      	mov	r3, ip
10006a8e:	4353      	muls	r3, r2
10006a90:	4699      	mov	r9, r3
10006a92:	4663      	mov	r3, ip
10006a94:	4363      	muls	r3, r4
10006a96:	9301      	str	r3, [sp, #4]
10006a98:	1c33      	adds	r3, r6, #0
10006a9a:	4641      	mov	r1, r8
10006a9c:	4363      	muls	r3, r4
10006a9e:	0c09      	lsrs	r1, r1, #16
10006aa0:	444b      	add	r3, r9
10006aa2:	185b      	adds	r3, r3, r1
10006aa4:	4599      	cmp	r9, r3
10006aa6:	d905      	bls.n	10006ab4 <__aeabi_dmul+0x228>
10006aa8:	2080      	movs	r0, #128	; 0x80
10006aaa:	0240      	lsls	r0, r0, #9
10006aac:	4681      	mov	r9, r0
10006aae:	9901      	ldr	r1, [sp, #4]
10006ab0:	4449      	add	r1, r9
10006ab2:	9101      	str	r1, [sp, #4]
10006ab4:	0c19      	lsrs	r1, r3, #16
10006ab6:	9103      	str	r1, [sp, #12]
10006ab8:	4641      	mov	r1, r8
10006aba:	0409      	lsls	r1, r1, #16
10006abc:	0c09      	lsrs	r1, r1, #16
10006abe:	041b      	lsls	r3, r3, #16
10006ac0:	185b      	adds	r3, r3, r1
10006ac2:	9304      	str	r3, [sp, #16]
10006ac4:	0c2b      	lsrs	r3, r5, #16
10006ac6:	4698      	mov	r8, r3
10006ac8:	1c33      	adds	r3, r6, #0
10006aca:	042d      	lsls	r5, r5, #16
10006acc:	0c29      	lsrs	r1, r5, #16
10006ace:	434b      	muls	r3, r1
10006ad0:	4660      	mov	r0, ip
10006ad2:	9300      	str	r3, [sp, #0]
10006ad4:	4643      	mov	r3, r8
10006ad6:	4665      	mov	r5, ip
10006ad8:	4358      	muls	r0, r3
10006ada:	435e      	muls	r6, r3
10006adc:	9b00      	ldr	r3, [sp, #0]
10006ade:	434d      	muls	r5, r1
10006ae0:	0c1b      	lsrs	r3, r3, #16
10006ae2:	4699      	mov	r9, r3
10006ae4:	19ae      	adds	r6, r5, r6
10006ae6:	444e      	add	r6, r9
10006ae8:	4684      	mov	ip, r0
10006aea:	42b5      	cmp	r5, r6
10006aec:	d903      	bls.n	10006af6 <__aeabi_dmul+0x26a>
10006aee:	2380      	movs	r3, #128	; 0x80
10006af0:	025b      	lsls	r3, r3, #9
10006af2:	4699      	mov	r9, r3
10006af4:	44cc      	add	ip, r9
10006af6:	0c35      	lsrs	r5, r6, #16
10006af8:	1c2b      	adds	r3, r5, #0
10006afa:	9803      	ldr	r0, [sp, #12]
10006afc:	4463      	add	r3, ip
10006afe:	4684      	mov	ip, r0
10006b00:	9305      	str	r3, [sp, #20]
10006b02:	9b00      	ldr	r3, [sp, #0]
10006b04:	0436      	lsls	r6, r6, #16
10006b06:	041b      	lsls	r3, r3, #16
10006b08:	0c1b      	lsrs	r3, r3, #16
10006b0a:	18f3      	adds	r3, r6, r3
10006b0c:	449c      	add	ip, r3
10006b0e:	4660      	mov	r0, ip
10006b10:	9003      	str	r0, [sp, #12]
10006b12:	4658      	mov	r0, fp
10006b14:	0405      	lsls	r5, r0, #16
10006b16:	0c06      	lsrs	r6, r0, #16
10006b18:	0c28      	lsrs	r0, r5, #16
10006b1a:	4684      	mov	ip, r0
10006b1c:	4350      	muls	r0, r2
10006b1e:	1c35      	adds	r5, r6, #0
10006b20:	4681      	mov	r9, r0
10006b22:	4660      	mov	r0, ip
10006b24:	4365      	muls	r5, r4
10006b26:	4344      	muls	r4, r0
10006b28:	4648      	mov	r0, r9
10006b2a:	0c00      	lsrs	r0, r0, #16
10006b2c:	4683      	mov	fp, r0
10006b2e:	4372      	muls	r2, r6
10006b30:	1914      	adds	r4, r2, r4
10006b32:	445c      	add	r4, fp
10006b34:	42a2      	cmp	r2, r4
10006b36:	d903      	bls.n	10006b40 <__aeabi_dmul+0x2b4>
10006b38:	2280      	movs	r2, #128	; 0x80
10006b3a:	0252      	lsls	r2, r2, #9
10006b3c:	4693      	mov	fp, r2
10006b3e:	445d      	add	r5, fp
10006b40:	0c22      	lsrs	r2, r4, #16
10006b42:	18ad      	adds	r5, r5, r2
10006b44:	464a      	mov	r2, r9
10006b46:	0412      	lsls	r2, r2, #16
10006b48:	0c12      	lsrs	r2, r2, #16
10006b4a:	0424      	lsls	r4, r4, #16
10006b4c:	4640      	mov	r0, r8
10006b4e:	18a4      	adds	r4, r4, r2
10006b50:	4662      	mov	r2, ip
10006b52:	434a      	muls	r2, r1
10006b54:	4371      	muls	r1, r6
10006b56:	4346      	muls	r6, r0
10006b58:	4660      	mov	r0, ip
10006b5a:	9600      	str	r6, [sp, #0]
10006b5c:	4646      	mov	r6, r8
10006b5e:	4370      	muls	r0, r6
10006b60:	4680      	mov	r8, r0
10006b62:	0c10      	lsrs	r0, r2, #16
10006b64:	4684      	mov	ip, r0
10006b66:	4488      	add	r8, r1
10006b68:	44e0      	add	r8, ip
10006b6a:	4541      	cmp	r1, r8
10006b6c:	d905      	bls.n	10006b7a <__aeabi_dmul+0x2ee>
10006b6e:	2180      	movs	r1, #128	; 0x80
10006b70:	0249      	lsls	r1, r1, #9
10006b72:	468c      	mov	ip, r1
10006b74:	9900      	ldr	r1, [sp, #0]
10006b76:	4461      	add	r1, ip
10006b78:	9100      	str	r1, [sp, #0]
10006b7a:	9801      	ldr	r0, [sp, #4]
10006b7c:	9903      	ldr	r1, [sp, #12]
10006b7e:	4684      	mov	ip, r0
10006b80:	4461      	add	r1, ip
10006b82:	4299      	cmp	r1, r3
10006b84:	419b      	sbcs	r3, r3
10006b86:	425b      	negs	r3, r3
10006b88:	4699      	mov	r9, r3
10006b8a:	9805      	ldr	r0, [sp, #20]
10006b8c:	4643      	mov	r3, r8
10006b8e:	4684      	mov	ip, r0
10006b90:	0412      	lsls	r2, r2, #16
10006b92:	0c12      	lsrs	r2, r2, #16
10006b94:	041b      	lsls	r3, r3, #16
10006b96:	189b      	adds	r3, r3, r2
10006b98:	4463      	add	r3, ip
10006b9a:	469c      	mov	ip, r3
10006b9c:	46ab      	mov	fp, r5
10006b9e:	4283      	cmp	r3, r0
10006ba0:	419b      	sbcs	r3, r3
10006ba2:	4640      	mov	r0, r8
10006ba4:	190a      	adds	r2, r1, r4
10006ba6:	44cc      	add	ip, r9
10006ba8:	42a2      	cmp	r2, r4
10006baa:	4189      	sbcs	r1, r1
10006bac:	44e3      	add	fp, ip
10006bae:	45cc      	cmp	ip, r9
10006bb0:	41b6      	sbcs	r6, r6
10006bb2:	465c      	mov	r4, fp
10006bb4:	0c00      	lsrs	r0, r0, #16
10006bb6:	4680      	mov	r8, r0
10006bb8:	4249      	negs	r1, r1
10006bba:	4276      	negs	r6, r6
10006bbc:	425b      	negs	r3, r3
10006bbe:	1864      	adds	r4, r4, r1
10006bc0:	4333      	orrs	r3, r6
10006bc2:	4498      	add	r8, r3
10006bc4:	428c      	cmp	r4, r1
10006bc6:	4189      	sbcs	r1, r1
10006bc8:	45ab      	cmp	fp, r5
10006bca:	419b      	sbcs	r3, r3
10006bcc:	4249      	negs	r1, r1
10006bce:	425b      	negs	r3, r3
10006bd0:	4319      	orrs	r1, r3
10006bd2:	1c0d      	adds	r5, r1, #0
10006bd4:	9b00      	ldr	r3, [sp, #0]
10006bd6:	4445      	add	r5, r8
10006bd8:	18ee      	adds	r6, r5, r3
10006bda:	0276      	lsls	r6, r6, #9
10006bdc:	0de5      	lsrs	r5, r4, #23
10006bde:	432e      	orrs	r6, r5
10006be0:	46b3      	mov	fp, r6
10006be2:	9b04      	ldr	r3, [sp, #16]
10006be4:	0256      	lsls	r6, r2, #9
10006be6:	431e      	orrs	r6, r3
10006be8:	1e73      	subs	r3, r6, #1
10006bea:	419e      	sbcs	r6, r3
10006bec:	465b      	mov	r3, fp
10006bee:	0dd2      	lsrs	r2, r2, #23
10006bf0:	4332      	orrs	r2, r6
10006bf2:	0266      	lsls	r6, r4, #9
10006bf4:	4316      	orrs	r6, r2
10006bf6:	01db      	lsls	r3, r3, #7
10006bf8:	d50a      	bpl.n	10006c10 <__aeabi_dmul+0x384>
10006bfa:	2301      	movs	r3, #1
10006bfc:	4033      	ands	r3, r6
10006bfe:	0876      	lsrs	r6, r6, #1
10006c00:	431e      	orrs	r6, r3
10006c02:	465b      	mov	r3, fp
10006c04:	07db      	lsls	r3, r3, #31
10006c06:	431e      	orrs	r6, r3
10006c08:	465b      	mov	r3, fp
10006c0a:	085b      	lsrs	r3, r3, #1
10006c0c:	469b      	mov	fp, r3
10006c0e:	4657      	mov	r7, sl
10006c10:	4b63      	ldr	r3, [pc, #396]	; (10006da0 <__aeabi_dmul+0x514>)
10006c12:	18fb      	adds	r3, r7, r3
10006c14:	2b00      	cmp	r3, #0
10006c16:	dd5a      	ble.n	10006cce <__aeabi_dmul+0x442>
10006c18:	0772      	lsls	r2, r6, #29
10006c1a:	d009      	beq.n	10006c30 <__aeabi_dmul+0x3a4>
10006c1c:	220f      	movs	r2, #15
10006c1e:	4032      	ands	r2, r6
10006c20:	2a04      	cmp	r2, #4
10006c22:	d005      	beq.n	10006c30 <__aeabi_dmul+0x3a4>
10006c24:	1d32      	adds	r2, r6, #4
10006c26:	42b2      	cmp	r2, r6
10006c28:	41b6      	sbcs	r6, r6
10006c2a:	4276      	negs	r6, r6
10006c2c:	44b3      	add	fp, r6
10006c2e:	1c16      	adds	r6, r2, #0
10006c30:	465a      	mov	r2, fp
10006c32:	01d2      	lsls	r2, r2, #7
10006c34:	d506      	bpl.n	10006c44 <__aeabi_dmul+0x3b8>
10006c36:	465a      	mov	r2, fp
10006c38:	4b5a      	ldr	r3, [pc, #360]	; (10006da4 <__aeabi_dmul+0x518>)
10006c3a:	401a      	ands	r2, r3
10006c3c:	2380      	movs	r3, #128	; 0x80
10006c3e:	4693      	mov	fp, r2
10006c40:	00db      	lsls	r3, r3, #3
10006c42:	18fb      	adds	r3, r7, r3
10006c44:	4a58      	ldr	r2, [pc, #352]	; (10006da8 <__aeabi_dmul+0x51c>)
10006c46:	4293      	cmp	r3, r2
10006c48:	dd34      	ble.n	10006cb4 <__aeabi_dmul+0x428>
10006c4a:	2401      	movs	r4, #1
10006c4c:	9b02      	ldr	r3, [sp, #8]
10006c4e:	2500      	movs	r5, #0
10006c50:	401c      	ands	r4, r3
10006c52:	2600      	movs	r6, #0
10006c54:	4b55      	ldr	r3, [pc, #340]	; (10006dac <__aeabi_dmul+0x520>)
10006c56:	e67d      	b.n	10006954 <__aeabi_dmul+0xc8>
10006c58:	2080      	movs	r0, #128	; 0x80
10006c5a:	465b      	mov	r3, fp
10006c5c:	0300      	lsls	r0, r0, #12
10006c5e:	4203      	tst	r3, r0
10006c60:	d008      	beq.n	10006c74 <__aeabi_dmul+0x3e8>
10006c62:	4205      	tst	r5, r0
10006c64:	d106      	bne.n	10006c74 <__aeabi_dmul+0x3e8>
10006c66:	4305      	orrs	r5, r0
10006c68:	032d      	lsls	r5, r5, #12
10006c6a:	0b2d      	lsrs	r5, r5, #12
10006c6c:	464c      	mov	r4, r9
10006c6e:	1c16      	adds	r6, r2, #0
10006c70:	4b4e      	ldr	r3, [pc, #312]	; (10006dac <__aeabi_dmul+0x520>)
10006c72:	e66f      	b.n	10006954 <__aeabi_dmul+0xc8>
10006c74:	465d      	mov	r5, fp
10006c76:	4305      	orrs	r5, r0
10006c78:	032d      	lsls	r5, r5, #12
10006c7a:	0b2d      	lsrs	r5, r5, #12
10006c7c:	4b4b      	ldr	r3, [pc, #300]	; (10006dac <__aeabi_dmul+0x520>)
10006c7e:	e669      	b.n	10006954 <__aeabi_dmul+0xc8>
10006c80:	4650      	mov	r0, sl
10006c82:	f7fc fd6f 	bl	10003764 <__clzsi2>
10006c86:	1c03      	adds	r3, r0, #0
10006c88:	3320      	adds	r3, #32
10006c8a:	2b27      	cmp	r3, #39	; 0x27
10006c8c:	dc00      	bgt.n	10006c90 <__aeabi_dmul+0x404>
10006c8e:	e6a6      	b.n	100069de <__aeabi_dmul+0x152>
10006c90:	4655      	mov	r5, sl
10006c92:	3808      	subs	r0, #8
10006c94:	4085      	lsls	r5, r0
10006c96:	2200      	movs	r2, #0
10006c98:	e6ac      	b.n	100069f4 <__aeabi_dmul+0x168>
10006c9a:	1c28      	adds	r0, r5, #0
10006c9c:	f7fc fd62 	bl	10003764 <__clzsi2>
10006ca0:	1c02      	adds	r2, r0, #0
10006ca2:	3220      	adds	r2, #32
10006ca4:	2a27      	cmp	r2, #39	; 0x27
10006ca6:	dc00      	bgt.n	10006caa <__aeabi_dmul+0x41e>
10006ca8:	e675      	b.n	10006996 <__aeabi_dmul+0x10a>
10006caa:	3808      	subs	r0, #8
10006cac:	4085      	lsls	r5, r0
10006cae:	2600      	movs	r6, #0
10006cb0:	46ab      	mov	fp, r5
10006cb2:	e67d      	b.n	100069b0 <__aeabi_dmul+0x124>
10006cb4:	465a      	mov	r2, fp
10006cb6:	08f6      	lsrs	r6, r6, #3
10006cb8:	0752      	lsls	r2, r2, #29
10006cba:	4316      	orrs	r6, r2
10006cbc:	465a      	mov	r2, fp
10006cbe:	2401      	movs	r4, #1
10006cc0:	0255      	lsls	r5, r2, #9
10006cc2:	9a02      	ldr	r2, [sp, #8]
10006cc4:	055b      	lsls	r3, r3, #21
10006cc6:	0b2d      	lsrs	r5, r5, #12
10006cc8:	0d5b      	lsrs	r3, r3, #21
10006cca:	4014      	ands	r4, r2
10006ccc:	e642      	b.n	10006954 <__aeabi_dmul+0xc8>
10006cce:	4d38      	ldr	r5, [pc, #224]	; (10006db0 <__aeabi_dmul+0x524>)
10006cd0:	1bed      	subs	r5, r5, r7
10006cd2:	2d38      	cmp	r5, #56	; 0x38
10006cd4:	dd0a      	ble.n	10006cec <__aeabi_dmul+0x460>
10006cd6:	2401      	movs	r4, #1
10006cd8:	9b02      	ldr	r3, [sp, #8]
10006cda:	2500      	movs	r5, #0
10006cdc:	401c      	ands	r4, r3
10006cde:	2600      	movs	r6, #0
10006ce0:	2300      	movs	r3, #0
10006ce2:	e637      	b.n	10006954 <__aeabi_dmul+0xc8>
10006ce4:	9b01      	ldr	r3, [sp, #4]
10006ce6:	4657      	mov	r7, sl
10006ce8:	9302      	str	r3, [sp, #8]
10006cea:	e791      	b.n	10006c10 <__aeabi_dmul+0x384>
10006cec:	2d1f      	cmp	r5, #31
10006cee:	dc25      	bgt.n	10006d3c <__aeabi_dmul+0x4b0>
10006cf0:	4b30      	ldr	r3, [pc, #192]	; (10006db4 <__aeabi_dmul+0x528>)
10006cf2:	1c32      	adds	r2, r6, #0
10006cf4:	469c      	mov	ip, r3
10006cf6:	4467      	add	r7, ip
10006cf8:	40be      	lsls	r6, r7
10006cfa:	465b      	mov	r3, fp
10006cfc:	40bb      	lsls	r3, r7
10006cfe:	1c37      	adds	r7, r6, #0
10006d00:	40ea      	lsrs	r2, r5
10006d02:	1e7e      	subs	r6, r7, #1
10006d04:	41b7      	sbcs	r7, r6
10006d06:	4313      	orrs	r3, r2
10006d08:	433b      	orrs	r3, r7
10006d0a:	1c1e      	adds	r6, r3, #0
10006d0c:	465b      	mov	r3, fp
10006d0e:	40eb      	lsrs	r3, r5
10006d10:	1c1d      	adds	r5, r3, #0
10006d12:	0773      	lsls	r3, r6, #29
10006d14:	d009      	beq.n	10006d2a <__aeabi_dmul+0x49e>
10006d16:	230f      	movs	r3, #15
10006d18:	4033      	ands	r3, r6
10006d1a:	2b04      	cmp	r3, #4
10006d1c:	d005      	beq.n	10006d2a <__aeabi_dmul+0x49e>
10006d1e:	1d33      	adds	r3, r6, #4
10006d20:	42b3      	cmp	r3, r6
10006d22:	41b6      	sbcs	r6, r6
10006d24:	4276      	negs	r6, r6
10006d26:	19ad      	adds	r5, r5, r6
10006d28:	1c1e      	adds	r6, r3, #0
10006d2a:	022b      	lsls	r3, r5, #8
10006d2c:	d520      	bpl.n	10006d70 <__aeabi_dmul+0x4e4>
10006d2e:	2401      	movs	r4, #1
10006d30:	9b02      	ldr	r3, [sp, #8]
10006d32:	2500      	movs	r5, #0
10006d34:	401c      	ands	r4, r3
10006d36:	2600      	movs	r6, #0
10006d38:	2301      	movs	r3, #1
10006d3a:	e60b      	b.n	10006954 <__aeabi_dmul+0xc8>
10006d3c:	465a      	mov	r2, fp
10006d3e:	4b1e      	ldr	r3, [pc, #120]	; (10006db8 <__aeabi_dmul+0x52c>)
10006d40:	1bdb      	subs	r3, r3, r7
10006d42:	40da      	lsrs	r2, r3
10006d44:	1c13      	adds	r3, r2, #0
10006d46:	2d20      	cmp	r5, #32
10006d48:	d01c      	beq.n	10006d84 <__aeabi_dmul+0x4f8>
10006d4a:	4a1c      	ldr	r2, [pc, #112]	; (10006dbc <__aeabi_dmul+0x530>)
10006d4c:	4694      	mov	ip, r2
10006d4e:	465a      	mov	r2, fp
10006d50:	4467      	add	r7, ip
10006d52:	40ba      	lsls	r2, r7
10006d54:	1c17      	adds	r7, r2, #0
10006d56:	433e      	orrs	r6, r7
10006d58:	1e72      	subs	r2, r6, #1
10006d5a:	4196      	sbcs	r6, r2
10006d5c:	431e      	orrs	r6, r3
10006d5e:	2307      	movs	r3, #7
10006d60:	2500      	movs	r5, #0
10006d62:	4033      	ands	r3, r6
10006d64:	d007      	beq.n	10006d76 <__aeabi_dmul+0x4ea>
10006d66:	230f      	movs	r3, #15
10006d68:	2500      	movs	r5, #0
10006d6a:	4033      	ands	r3, r6
10006d6c:	2b04      	cmp	r3, #4
10006d6e:	d1d6      	bne.n	10006d1e <__aeabi_dmul+0x492>
10006d70:	076b      	lsls	r3, r5, #29
10006d72:	026d      	lsls	r5, r5, #9
10006d74:	0b2d      	lsrs	r5, r5, #12
10006d76:	2401      	movs	r4, #1
10006d78:	08f6      	lsrs	r6, r6, #3
10006d7a:	431e      	orrs	r6, r3
10006d7c:	9b02      	ldr	r3, [sp, #8]
10006d7e:	401c      	ands	r4, r3
10006d80:	2300      	movs	r3, #0
10006d82:	e5e7      	b.n	10006954 <__aeabi_dmul+0xc8>
10006d84:	2700      	movs	r7, #0
10006d86:	e7e6      	b.n	10006d56 <__aeabi_dmul+0x4ca>
10006d88:	2580      	movs	r5, #128	; 0x80
10006d8a:	465b      	mov	r3, fp
10006d8c:	2401      	movs	r4, #1
10006d8e:	032d      	lsls	r5, r5, #12
10006d90:	431d      	orrs	r5, r3
10006d92:	9b01      	ldr	r3, [sp, #4]
10006d94:	032d      	lsls	r5, r5, #12
10006d96:	4023      	ands	r3, r4
10006d98:	1c1c      	adds	r4, r3, #0
10006d9a:	0b2d      	lsrs	r5, r5, #12
10006d9c:	4b03      	ldr	r3, [pc, #12]	; (10006dac <__aeabi_dmul+0x520>)
10006d9e:	e5d9      	b.n	10006954 <__aeabi_dmul+0xc8>
10006da0:	000003ff 	.word	0x000003ff
10006da4:	feffffff 	.word	0xfeffffff
10006da8:	000007fe 	.word	0x000007fe
10006dac:	000007ff 	.word	0x000007ff
10006db0:	fffffc02 	.word	0xfffffc02
10006db4:	0000041e 	.word	0x0000041e
10006db8:	fffffbe2 	.word	0xfffffbe2
10006dbc:	0000043e 	.word	0x0000043e

10006dc0 <__aeabi_dsub>:
10006dc0:	b5f0      	push	{r4, r5, r6, r7, lr}
10006dc2:	464d      	mov	r5, r9
10006dc4:	4644      	mov	r4, r8
10006dc6:	465f      	mov	r7, fp
10006dc8:	4656      	mov	r6, sl
10006dca:	b4f0      	push	{r4, r5, r6, r7}
10006dcc:	1c0e      	adds	r6, r1, #0
10006dce:	1c11      	adds	r1, r2, #0
10006dd0:	0332      	lsls	r2, r6, #12
10006dd2:	0a52      	lsrs	r2, r2, #9
10006dd4:	0f47      	lsrs	r7, r0, #29
10006dd6:	4317      	orrs	r7, r2
10006dd8:	00c5      	lsls	r5, r0, #3
10006dda:	031a      	lsls	r2, r3, #12
10006ddc:	0058      	lsls	r0, r3, #1
10006dde:	0fdb      	lsrs	r3, r3, #31
10006de0:	4699      	mov	r9, r3
10006de2:	0a52      	lsrs	r2, r2, #9
10006de4:	0f4b      	lsrs	r3, r1, #29
10006de6:	b083      	sub	sp, #12
10006de8:	431a      	orrs	r2, r3
10006dea:	00cb      	lsls	r3, r1, #3
10006dec:	9301      	str	r3, [sp, #4]
10006dee:	4bcf      	ldr	r3, [pc, #828]	; (1000712c <__aeabi_dsub+0x36c>)
10006df0:	0074      	lsls	r4, r6, #1
10006df2:	0ff6      	lsrs	r6, r6, #31
10006df4:	0d64      	lsrs	r4, r4, #21
10006df6:	46b0      	mov	r8, r6
10006df8:	0d40      	lsrs	r0, r0, #21
10006dfa:	4298      	cmp	r0, r3
10006dfc:	d100      	bne.n	10006e00 <__aeabi_dsub+0x40>
10006dfe:	e0e8      	b.n	10006fd2 <__aeabi_dsub+0x212>
10006e00:	2301      	movs	r3, #1
10006e02:	4649      	mov	r1, r9
10006e04:	4059      	eors	r1, r3
10006e06:	1c0b      	adds	r3, r1, #0
10006e08:	429e      	cmp	r6, r3
10006e0a:	d100      	bne.n	10006e0e <__aeabi_dsub+0x4e>
10006e0c:	e0b1      	b.n	10006f72 <__aeabi_dsub+0x1b2>
10006e0e:	1a26      	subs	r6, r4, r0
10006e10:	2e00      	cmp	r6, #0
10006e12:	dc00      	bgt.n	10006e16 <__aeabi_dsub+0x56>
10006e14:	e11c      	b.n	10007050 <__aeabi_dsub+0x290>
10006e16:	2800      	cmp	r0, #0
10006e18:	d142      	bne.n	10006ea0 <__aeabi_dsub+0xe0>
10006e1a:	1c13      	adds	r3, r2, #0
10006e1c:	9901      	ldr	r1, [sp, #4]
10006e1e:	430b      	orrs	r3, r1
10006e20:	d000      	beq.n	10006e24 <__aeabi_dsub+0x64>
10006e22:	e0e6      	b.n	10006ff2 <__aeabi_dsub+0x232>
10006e24:	076b      	lsls	r3, r5, #29
10006e26:	d100      	bne.n	10006e2a <__aeabi_dsub+0x6a>
10006e28:	e08e      	b.n	10006f48 <__aeabi_dsub+0x188>
10006e2a:	230f      	movs	r3, #15
10006e2c:	402b      	ands	r3, r5
10006e2e:	2b04      	cmp	r3, #4
10006e30:	d100      	bne.n	10006e34 <__aeabi_dsub+0x74>
10006e32:	e089      	b.n	10006f48 <__aeabi_dsub+0x188>
10006e34:	1d2a      	adds	r2, r5, #4
10006e36:	42aa      	cmp	r2, r5
10006e38:	41ad      	sbcs	r5, r5
10006e3a:	2380      	movs	r3, #128	; 0x80
10006e3c:	2601      	movs	r6, #1
10006e3e:	4641      	mov	r1, r8
10006e40:	426d      	negs	r5, r5
10006e42:	197f      	adds	r7, r7, r5
10006e44:	041b      	lsls	r3, r3, #16
10006e46:	403b      	ands	r3, r7
10006e48:	400e      	ands	r6, r1
10006e4a:	1c15      	adds	r5, r2, #0
10006e4c:	2b00      	cmp	r3, #0
10006e4e:	d100      	bne.n	10006e52 <__aeabi_dsub+0x92>
10006e50:	e083      	b.n	10006f5a <__aeabi_dsub+0x19a>
10006e52:	4bb6      	ldr	r3, [pc, #728]	; (1000712c <__aeabi_dsub+0x36c>)
10006e54:	3401      	adds	r4, #1
10006e56:	429c      	cmp	r4, r3
10006e58:	d100      	bne.n	10006e5c <__aeabi_dsub+0x9c>
10006e5a:	e116      	b.n	1000708a <__aeabi_dsub+0x2ca>
10006e5c:	1c3a      	adds	r2, r7, #0
10006e5e:	4bb4      	ldr	r3, [pc, #720]	; (10007130 <__aeabi_dsub+0x370>)
10006e60:	08ed      	lsrs	r5, r5, #3
10006e62:	401a      	ands	r2, r3
10006e64:	0750      	lsls	r0, r2, #29
10006e66:	0564      	lsls	r4, r4, #21
10006e68:	0252      	lsls	r2, r2, #9
10006e6a:	4305      	orrs	r5, r0
10006e6c:	0b12      	lsrs	r2, r2, #12
10006e6e:	0d64      	lsrs	r4, r4, #21
10006e70:	2100      	movs	r1, #0
10006e72:	0312      	lsls	r2, r2, #12
10006e74:	0d0b      	lsrs	r3, r1, #20
10006e76:	051b      	lsls	r3, r3, #20
10006e78:	0564      	lsls	r4, r4, #21
10006e7a:	0b12      	lsrs	r2, r2, #12
10006e7c:	431a      	orrs	r2, r3
10006e7e:	0863      	lsrs	r3, r4, #1
10006e80:	4cac      	ldr	r4, [pc, #688]	; (10007134 <__aeabi_dsub+0x374>)
10006e82:	07f6      	lsls	r6, r6, #31
10006e84:	4014      	ands	r4, r2
10006e86:	431c      	orrs	r4, r3
10006e88:	0064      	lsls	r4, r4, #1
10006e8a:	0864      	lsrs	r4, r4, #1
10006e8c:	4334      	orrs	r4, r6
10006e8e:	1c28      	adds	r0, r5, #0
10006e90:	1c21      	adds	r1, r4, #0
10006e92:	b003      	add	sp, #12
10006e94:	bc3c      	pop	{r2, r3, r4, r5}
10006e96:	4690      	mov	r8, r2
10006e98:	4699      	mov	r9, r3
10006e9a:	46a2      	mov	sl, r4
10006e9c:	46ab      	mov	fp, r5
10006e9e:	bdf0      	pop	{r4, r5, r6, r7, pc}
10006ea0:	4ba2      	ldr	r3, [pc, #648]	; (1000712c <__aeabi_dsub+0x36c>)
10006ea2:	429c      	cmp	r4, r3
10006ea4:	d0be      	beq.n	10006e24 <__aeabi_dsub+0x64>
10006ea6:	2380      	movs	r3, #128	; 0x80
10006ea8:	041b      	lsls	r3, r3, #16
10006eaa:	431a      	orrs	r2, r3
10006eac:	2e38      	cmp	r6, #56	; 0x38
10006eae:	dd00      	ble.n	10006eb2 <__aeabi_dsub+0xf2>
10006eb0:	e103      	b.n	100070ba <__aeabi_dsub+0x2fa>
10006eb2:	2e1f      	cmp	r6, #31
10006eb4:	dd00      	ble.n	10006eb8 <__aeabi_dsub+0xf8>
10006eb6:	e13f      	b.n	10007138 <__aeabi_dsub+0x378>
10006eb8:	2020      	movs	r0, #32
10006eba:	1b83      	subs	r3, r0, r6
10006ebc:	4699      	mov	r9, r3
10006ebe:	1c13      	adds	r3, r2, #0
10006ec0:	4649      	mov	r1, r9
10006ec2:	408b      	lsls	r3, r1
10006ec4:	469c      	mov	ip, r3
10006ec6:	9b01      	ldr	r3, [sp, #4]
10006ec8:	4660      	mov	r0, ip
10006eca:	40f3      	lsrs	r3, r6
10006ecc:	4303      	orrs	r3, r0
10006ece:	9801      	ldr	r0, [sp, #4]
10006ed0:	40f2      	lsrs	r2, r6
10006ed2:	4088      	lsls	r0, r1
10006ed4:	1c01      	adds	r1, r0, #0
10006ed6:	1e48      	subs	r0, r1, #1
10006ed8:	4181      	sbcs	r1, r0
10006eda:	430b      	orrs	r3, r1
10006edc:	1aeb      	subs	r3, r5, r3
10006ede:	429d      	cmp	r5, r3
10006ee0:	4180      	sbcs	r0, r0
10006ee2:	1c1d      	adds	r5, r3, #0
10006ee4:	1aba      	subs	r2, r7, r2
10006ee6:	4240      	negs	r0, r0
10006ee8:	1a17      	subs	r7, r2, r0
10006eea:	023b      	lsls	r3, r7, #8
10006eec:	d400      	bmi.n	10006ef0 <__aeabi_dsub+0x130>
10006eee:	e0a8      	b.n	10007042 <__aeabi_dsub+0x282>
10006ef0:	027a      	lsls	r2, r7, #9
10006ef2:	0a56      	lsrs	r6, r2, #9
10006ef4:	2e00      	cmp	r6, #0
10006ef6:	d100      	bne.n	10006efa <__aeabi_dsub+0x13a>
10006ef8:	e0ca      	b.n	10007090 <__aeabi_dsub+0x2d0>
10006efa:	1c30      	adds	r0, r6, #0
10006efc:	f7fc fc32 	bl	10003764 <__clzsi2>
10006f00:	1c03      	adds	r3, r0, #0
10006f02:	3b08      	subs	r3, #8
10006f04:	2b1f      	cmp	r3, #31
10006f06:	dd00      	ble.n	10006f0a <__aeabi_dsub+0x14a>
10006f08:	e0cb      	b.n	100070a2 <__aeabi_dsub+0x2e2>
10006f0a:	2228      	movs	r2, #40	; 0x28
10006f0c:	1c29      	adds	r1, r5, #0
10006f0e:	1a12      	subs	r2, r2, r0
10006f10:	40d1      	lsrs	r1, r2
10006f12:	409e      	lsls	r6, r3
10006f14:	1c0a      	adds	r2, r1, #0
10006f16:	409d      	lsls	r5, r3
10006f18:	4332      	orrs	r2, r6
10006f1a:	429c      	cmp	r4, r3
10006f1c:	dd00      	ble.n	10006f20 <__aeabi_dsub+0x160>
10006f1e:	e0c8      	b.n	100070b2 <__aeabi_dsub+0x2f2>
10006f20:	1b1c      	subs	r4, r3, r4
10006f22:	1c67      	adds	r7, r4, #1
10006f24:	2f1f      	cmp	r7, #31
10006f26:	dd00      	ble.n	10006f2a <__aeabi_dsub+0x16a>
10006f28:	e0ed      	b.n	10007106 <__aeabi_dsub+0x346>
10006f2a:	231f      	movs	r3, #31
10006f2c:	1c29      	adds	r1, r5, #0
10006f2e:	1b1c      	subs	r4, r3, r4
10006f30:	1c13      	adds	r3, r2, #0
10006f32:	40a5      	lsls	r5, r4
10006f34:	40a3      	lsls	r3, r4
10006f36:	40f9      	lsrs	r1, r7
10006f38:	1e6c      	subs	r4, r5, #1
10006f3a:	41a5      	sbcs	r5, r4
10006f3c:	40fa      	lsrs	r2, r7
10006f3e:	4319      	orrs	r1, r3
10006f40:	430d      	orrs	r5, r1
10006f42:	1c17      	adds	r7, r2, #0
10006f44:	2400      	movs	r4, #0
10006f46:	e76d      	b.n	10006e24 <__aeabi_dsub+0x64>
10006f48:	2380      	movs	r3, #128	; 0x80
10006f4a:	2601      	movs	r6, #1
10006f4c:	4642      	mov	r2, r8
10006f4e:	041b      	lsls	r3, r3, #16
10006f50:	403b      	ands	r3, r7
10006f52:	4016      	ands	r6, r2
10006f54:	2b00      	cmp	r3, #0
10006f56:	d000      	beq.n	10006f5a <__aeabi_dsub+0x19a>
10006f58:	e77b      	b.n	10006e52 <__aeabi_dsub+0x92>
10006f5a:	4b74      	ldr	r3, [pc, #464]	; (1000712c <__aeabi_dsub+0x36c>)
10006f5c:	08ed      	lsrs	r5, r5, #3
10006f5e:	0778      	lsls	r0, r7, #29
10006f60:	4305      	orrs	r5, r0
10006f62:	08fa      	lsrs	r2, r7, #3
10006f64:	429c      	cmp	r4, r3
10006f66:	d03b      	beq.n	10006fe0 <__aeabi_dsub+0x220>
10006f68:	0312      	lsls	r2, r2, #12
10006f6a:	0564      	lsls	r4, r4, #21
10006f6c:	0b12      	lsrs	r2, r2, #12
10006f6e:	0d64      	lsrs	r4, r4, #21
10006f70:	e77e      	b.n	10006e70 <__aeabi_dsub+0xb0>
10006f72:	1a23      	subs	r3, r4, r0
10006f74:	469a      	mov	sl, r3
10006f76:	2b00      	cmp	r3, #0
10006f78:	dc00      	bgt.n	10006f7c <__aeabi_dsub+0x1bc>
10006f7a:	e0a5      	b.n	100070c8 <__aeabi_dsub+0x308>
10006f7c:	2800      	cmp	r0, #0
10006f7e:	d044      	beq.n	1000700a <__aeabi_dsub+0x24a>
10006f80:	486a      	ldr	r0, [pc, #424]	; (1000712c <__aeabi_dsub+0x36c>)
10006f82:	4284      	cmp	r4, r0
10006f84:	d100      	bne.n	10006f88 <__aeabi_dsub+0x1c8>
10006f86:	e74d      	b.n	10006e24 <__aeabi_dsub+0x64>
10006f88:	2080      	movs	r0, #128	; 0x80
10006f8a:	0400      	lsls	r0, r0, #16
10006f8c:	4302      	orrs	r2, r0
10006f8e:	4653      	mov	r3, sl
10006f90:	2b38      	cmp	r3, #56	; 0x38
10006f92:	dc00      	bgt.n	10006f96 <__aeabi_dsub+0x1d6>
10006f94:	e11c      	b.n	100071d0 <__aeabi_dsub+0x410>
10006f96:	9b01      	ldr	r3, [sp, #4]
10006f98:	431a      	orrs	r2, r3
10006f9a:	1e51      	subs	r1, r2, #1
10006f9c:	418a      	sbcs	r2, r1
10006f9e:	b2d1      	uxtb	r1, r2
10006fa0:	2200      	movs	r2, #0
10006fa2:	1949      	adds	r1, r1, r5
10006fa4:	42a9      	cmp	r1, r5
10006fa6:	4180      	sbcs	r0, r0
10006fa8:	1c0d      	adds	r5, r1, #0
10006faa:	19d2      	adds	r2, r2, r7
10006fac:	4240      	negs	r0, r0
10006fae:	1817      	adds	r7, r2, r0
10006fb0:	023b      	lsls	r3, r7, #8
10006fb2:	d546      	bpl.n	10007042 <__aeabi_dsub+0x282>
10006fb4:	4b5d      	ldr	r3, [pc, #372]	; (1000712c <__aeabi_dsub+0x36c>)
10006fb6:	3401      	adds	r4, #1
10006fb8:	429c      	cmp	r4, r3
10006fba:	d100      	bne.n	10006fbe <__aeabi_dsub+0x1fe>
10006fbc:	e169      	b.n	10007292 <__aeabi_dsub+0x4d2>
10006fbe:	2001      	movs	r0, #1
10006fc0:	4a5b      	ldr	r2, [pc, #364]	; (10007130 <__aeabi_dsub+0x370>)
10006fc2:	086b      	lsrs	r3, r5, #1
10006fc4:	403a      	ands	r2, r7
10006fc6:	4028      	ands	r0, r5
10006fc8:	4318      	orrs	r0, r3
10006fca:	07d5      	lsls	r5, r2, #31
10006fcc:	4305      	orrs	r5, r0
10006fce:	0857      	lsrs	r7, r2, #1
10006fd0:	e728      	b.n	10006e24 <__aeabi_dsub+0x64>
10006fd2:	1c13      	adds	r3, r2, #0
10006fd4:	9901      	ldr	r1, [sp, #4]
10006fd6:	430b      	orrs	r3, r1
10006fd8:	d100      	bne.n	10006fdc <__aeabi_dsub+0x21c>
10006fda:	e711      	b.n	10006e00 <__aeabi_dsub+0x40>
10006fdc:	464b      	mov	r3, r9
10006fde:	e713      	b.n	10006e08 <__aeabi_dsub+0x48>
10006fe0:	1c2b      	adds	r3, r5, #0
10006fe2:	4313      	orrs	r3, r2
10006fe4:	d051      	beq.n	1000708a <__aeabi_dsub+0x2ca>
10006fe6:	2380      	movs	r3, #128	; 0x80
10006fe8:	031b      	lsls	r3, r3, #12
10006fea:	431a      	orrs	r2, r3
10006fec:	0312      	lsls	r2, r2, #12
10006fee:	0b12      	lsrs	r2, r2, #12
10006ff0:	e73e      	b.n	10006e70 <__aeabi_dsub+0xb0>
10006ff2:	3e01      	subs	r6, #1
10006ff4:	2e00      	cmp	r6, #0
10006ff6:	d000      	beq.n	10006ffa <__aeabi_dsub+0x23a>
10006ff8:	e080      	b.n	100070fc <__aeabi_dsub+0x33c>
10006ffa:	1a69      	subs	r1, r5, r1
10006ffc:	428d      	cmp	r5, r1
10006ffe:	419b      	sbcs	r3, r3
10007000:	1aba      	subs	r2, r7, r2
10007002:	425b      	negs	r3, r3
10007004:	1ad7      	subs	r7, r2, r3
10007006:	1c0d      	adds	r5, r1, #0
10007008:	e76f      	b.n	10006eea <__aeabi_dsub+0x12a>
1000700a:	1c10      	adds	r0, r2, #0
1000700c:	9b01      	ldr	r3, [sp, #4]
1000700e:	4318      	orrs	r0, r3
10007010:	d100      	bne.n	10007014 <__aeabi_dsub+0x254>
10007012:	e707      	b.n	10006e24 <__aeabi_dsub+0x64>
10007014:	2301      	movs	r3, #1
10007016:	425b      	negs	r3, r3
10007018:	469c      	mov	ip, r3
1000701a:	44e2      	add	sl, ip
1000701c:	4653      	mov	r3, sl
1000701e:	2b00      	cmp	r3, #0
10007020:	d000      	beq.n	10007024 <__aeabi_dsub+0x264>
10007022:	e102      	b.n	1000722a <__aeabi_dsub+0x46a>
10007024:	9b01      	ldr	r3, [sp, #4]
10007026:	19d2      	adds	r2, r2, r7
10007028:	1959      	adds	r1, r3, r5
1000702a:	42a9      	cmp	r1, r5
1000702c:	419b      	sbcs	r3, r3
1000702e:	425b      	negs	r3, r3
10007030:	18d7      	adds	r7, r2, r3
10007032:	1c0d      	adds	r5, r1, #0
10007034:	e7bc      	b.n	10006fb0 <__aeabi_dsub+0x1f0>
10007036:	4663      	mov	r3, ip
10007038:	4303      	orrs	r3, r0
1000703a:	d100      	bne.n	1000703e <__aeabi_dsub+0x27e>
1000703c:	e128      	b.n	10007290 <__aeabi_dsub+0x4d0>
1000703e:	1c07      	adds	r7, r0, #0
10007040:	4665      	mov	r5, ip
10007042:	076b      	lsls	r3, r5, #29
10007044:	d000      	beq.n	10007048 <__aeabi_dsub+0x288>
10007046:	e6f0      	b.n	10006e2a <__aeabi_dsub+0x6a>
10007048:	2601      	movs	r6, #1
1000704a:	4643      	mov	r3, r8
1000704c:	401e      	ands	r6, r3
1000704e:	e784      	b.n	10006f5a <__aeabi_dsub+0x19a>
10007050:	2e00      	cmp	r6, #0
10007052:	d000      	beq.n	10007056 <__aeabi_dsub+0x296>
10007054:	e081      	b.n	1000715a <__aeabi_dsub+0x39a>
10007056:	1c60      	adds	r0, r4, #1
10007058:	0540      	lsls	r0, r0, #21
1000705a:	0d40      	lsrs	r0, r0, #21
1000705c:	2801      	cmp	r0, #1
1000705e:	dc00      	bgt.n	10007062 <__aeabi_dsub+0x2a2>
10007060:	e107      	b.n	10007272 <__aeabi_dsub+0x4b2>
10007062:	9901      	ldr	r1, [sp, #4]
10007064:	1a68      	subs	r0, r5, r1
10007066:	4684      	mov	ip, r0
10007068:	4565      	cmp	r5, ip
1000706a:	41b6      	sbcs	r6, r6
1000706c:	1ab8      	subs	r0, r7, r2
1000706e:	4276      	negs	r6, r6
10007070:	1b86      	subs	r6, r0, r6
10007072:	0230      	lsls	r0, r6, #8
10007074:	d400      	bmi.n	10007078 <__aeabi_dsub+0x2b8>
10007076:	e0a1      	b.n	100071bc <__aeabi_dsub+0x3fc>
10007078:	468c      	mov	ip, r1
1000707a:	1b4d      	subs	r5, r1, r5
1000707c:	45ac      	cmp	ip, r5
1000707e:	4189      	sbcs	r1, r1
10007080:	1bd2      	subs	r2, r2, r7
10007082:	4249      	negs	r1, r1
10007084:	1a56      	subs	r6, r2, r1
10007086:	4698      	mov	r8, r3
10007088:	e734      	b.n	10006ef4 <__aeabi_dsub+0x134>
1000708a:	2200      	movs	r2, #0
1000708c:	2500      	movs	r5, #0
1000708e:	e6ef      	b.n	10006e70 <__aeabi_dsub+0xb0>
10007090:	1c28      	adds	r0, r5, #0
10007092:	f7fc fb67 	bl	10003764 <__clzsi2>
10007096:	3020      	adds	r0, #32
10007098:	1c03      	adds	r3, r0, #0
1000709a:	3b08      	subs	r3, #8
1000709c:	2b1f      	cmp	r3, #31
1000709e:	dc00      	bgt.n	100070a2 <__aeabi_dsub+0x2e2>
100070a0:	e733      	b.n	10006f0a <__aeabi_dsub+0x14a>
100070a2:	1c02      	adds	r2, r0, #0
100070a4:	3a28      	subs	r2, #40	; 0x28
100070a6:	4095      	lsls	r5, r2
100070a8:	1c2a      	adds	r2, r5, #0
100070aa:	2500      	movs	r5, #0
100070ac:	429c      	cmp	r4, r3
100070ae:	dc00      	bgt.n	100070b2 <__aeabi_dsub+0x2f2>
100070b0:	e736      	b.n	10006f20 <__aeabi_dsub+0x160>
100070b2:	4f1f      	ldr	r7, [pc, #124]	; (10007130 <__aeabi_dsub+0x370>)
100070b4:	1ae4      	subs	r4, r4, r3
100070b6:	4017      	ands	r7, r2
100070b8:	e6b4      	b.n	10006e24 <__aeabi_dsub+0x64>
100070ba:	9b01      	ldr	r3, [sp, #4]
100070bc:	431a      	orrs	r2, r3
100070be:	1e51      	subs	r1, r2, #1
100070c0:	418a      	sbcs	r2, r1
100070c2:	b2d3      	uxtb	r3, r2
100070c4:	2200      	movs	r2, #0
100070c6:	e709      	b.n	10006edc <__aeabi_dsub+0x11c>
100070c8:	2b00      	cmp	r3, #0
100070ca:	d000      	beq.n	100070ce <__aeabi_dsub+0x30e>
100070cc:	e101      	b.n	100072d2 <__aeabi_dsub+0x512>
100070ce:	1c60      	adds	r0, r4, #1
100070d0:	0543      	lsls	r3, r0, #21
100070d2:	0d5b      	lsrs	r3, r3, #21
100070d4:	2b01      	cmp	r3, #1
100070d6:	dc00      	bgt.n	100070da <__aeabi_dsub+0x31a>
100070d8:	e0b0      	b.n	1000723c <__aeabi_dsub+0x47c>
100070da:	4b14      	ldr	r3, [pc, #80]	; (1000712c <__aeabi_dsub+0x36c>)
100070dc:	4298      	cmp	r0, r3
100070de:	d100      	bne.n	100070e2 <__aeabi_dsub+0x322>
100070e0:	e11e      	b.n	10007320 <__aeabi_dsub+0x560>
100070e2:	9b01      	ldr	r3, [sp, #4]
100070e4:	19d2      	adds	r2, r2, r7
100070e6:	1959      	adds	r1, r3, r5
100070e8:	42a9      	cmp	r1, r5
100070ea:	419b      	sbcs	r3, r3
100070ec:	425b      	negs	r3, r3
100070ee:	18d2      	adds	r2, r2, r3
100070f0:	0849      	lsrs	r1, r1, #1
100070f2:	07d5      	lsls	r5, r2, #31
100070f4:	430d      	orrs	r5, r1
100070f6:	0857      	lsrs	r7, r2, #1
100070f8:	1c04      	adds	r4, r0, #0
100070fa:	e693      	b.n	10006e24 <__aeabi_dsub+0x64>
100070fc:	4b0b      	ldr	r3, [pc, #44]	; (1000712c <__aeabi_dsub+0x36c>)
100070fe:	429c      	cmp	r4, r3
10007100:	d000      	beq.n	10007104 <__aeabi_dsub+0x344>
10007102:	e6d3      	b.n	10006eac <__aeabi_dsub+0xec>
10007104:	e68e      	b.n	10006e24 <__aeabi_dsub+0x64>
10007106:	1c21      	adds	r1, r4, #0
10007108:	1c13      	adds	r3, r2, #0
1000710a:	391f      	subs	r1, #31
1000710c:	40cb      	lsrs	r3, r1
1000710e:	1c19      	adds	r1, r3, #0
10007110:	2f20      	cmp	r7, #32
10007112:	d100      	bne.n	10007116 <__aeabi_dsub+0x356>
10007114:	e08e      	b.n	10007234 <__aeabi_dsub+0x474>
10007116:	233f      	movs	r3, #63	; 0x3f
10007118:	1b1c      	subs	r4, r3, r4
1000711a:	40a2      	lsls	r2, r4
1000711c:	4315      	orrs	r5, r2
1000711e:	1e6a      	subs	r2, r5, #1
10007120:	4195      	sbcs	r5, r2
10007122:	2700      	movs	r7, #0
10007124:	430d      	orrs	r5, r1
10007126:	2400      	movs	r4, #0
10007128:	e78b      	b.n	10007042 <__aeabi_dsub+0x282>
1000712a:	46c0      	nop			; (mov r8, r8)
1000712c:	000007ff 	.word	0x000007ff
10007130:	ff7fffff 	.word	0xff7fffff
10007134:	800fffff 	.word	0x800fffff
10007138:	1c33      	adds	r3, r6, #0
1000713a:	1c10      	adds	r0, r2, #0
1000713c:	3b20      	subs	r3, #32
1000713e:	40d8      	lsrs	r0, r3
10007140:	2e20      	cmp	r6, #32
10007142:	d079      	beq.n	10007238 <__aeabi_dsub+0x478>
10007144:	2340      	movs	r3, #64	; 0x40
10007146:	1b9b      	subs	r3, r3, r6
10007148:	409a      	lsls	r2, r3
1000714a:	1c13      	adds	r3, r2, #0
1000714c:	9a01      	ldr	r2, [sp, #4]
1000714e:	4313      	orrs	r3, r2
10007150:	1e59      	subs	r1, r3, #1
10007152:	418b      	sbcs	r3, r1
10007154:	2200      	movs	r2, #0
10007156:	4303      	orrs	r3, r0
10007158:	e6c0      	b.n	10006edc <__aeabi_dsub+0x11c>
1000715a:	2c00      	cmp	r4, #0
1000715c:	d053      	beq.n	10007206 <__aeabi_dsub+0x446>
1000715e:	4cc7      	ldr	r4, [pc, #796]	; (1000747c <__aeabi_dsub+0x6bc>)
10007160:	42a0      	cmp	r0, r4
10007162:	d100      	bne.n	10007166 <__aeabi_dsub+0x3a6>
10007164:	e0b0      	b.n	100072c8 <__aeabi_dsub+0x508>
10007166:	2480      	movs	r4, #128	; 0x80
10007168:	4271      	negs	r1, r6
1000716a:	4689      	mov	r9, r1
1000716c:	0424      	lsls	r4, r4, #16
1000716e:	4327      	orrs	r7, r4
10007170:	4649      	mov	r1, r9
10007172:	2938      	cmp	r1, #56	; 0x38
10007174:	dd00      	ble.n	10007178 <__aeabi_dsub+0x3b8>
10007176:	e0cd      	b.n	10007314 <__aeabi_dsub+0x554>
10007178:	291f      	cmp	r1, #31
1000717a:	dd00      	ble.n	1000717e <__aeabi_dsub+0x3be>
1000717c:	e159      	b.n	10007432 <__aeabi_dsub+0x672>
1000717e:	2420      	movs	r4, #32
10007180:	1c3e      	adds	r6, r7, #0
10007182:	1a61      	subs	r1, r4, r1
10007184:	408e      	lsls	r6, r1
10007186:	468a      	mov	sl, r1
10007188:	46b0      	mov	r8, r6
1000718a:	4649      	mov	r1, r9
1000718c:	1c2e      	adds	r6, r5, #0
1000718e:	40ce      	lsrs	r6, r1
10007190:	4651      	mov	r1, sl
10007192:	46b4      	mov	ip, r6
10007194:	408d      	lsls	r5, r1
10007196:	4664      	mov	r4, ip
10007198:	4646      	mov	r6, r8
1000719a:	4649      	mov	r1, r9
1000719c:	4326      	orrs	r6, r4
1000719e:	1e6c      	subs	r4, r5, #1
100071a0:	41a5      	sbcs	r5, r4
100071a2:	40cf      	lsrs	r7, r1
100071a4:	4335      	orrs	r5, r6
100071a6:	9901      	ldr	r1, [sp, #4]
100071a8:	1bd7      	subs	r7, r2, r7
100071aa:	468c      	mov	ip, r1
100071ac:	1b4d      	subs	r5, r1, r5
100071ae:	45ac      	cmp	ip, r5
100071b0:	4192      	sbcs	r2, r2
100071b2:	4252      	negs	r2, r2
100071b4:	1abf      	subs	r7, r7, r2
100071b6:	1c04      	adds	r4, r0, #0
100071b8:	4698      	mov	r8, r3
100071ba:	e696      	b.n	10006eea <__aeabi_dsub+0x12a>
100071bc:	4663      	mov	r3, ip
100071be:	4665      	mov	r5, ip
100071c0:	4333      	orrs	r3, r6
100071c2:	d000      	beq.n	100071c6 <__aeabi_dsub+0x406>
100071c4:	e696      	b.n	10006ef4 <__aeabi_dsub+0x134>
100071c6:	2600      	movs	r6, #0
100071c8:	2700      	movs	r7, #0
100071ca:	2400      	movs	r4, #0
100071cc:	2500      	movs	r5, #0
100071ce:	e6c4      	b.n	10006f5a <__aeabi_dsub+0x19a>
100071d0:	2b1f      	cmp	r3, #31
100071d2:	dc61      	bgt.n	10007298 <__aeabi_dsub+0x4d8>
100071d4:	2020      	movs	r0, #32
100071d6:	1ac3      	subs	r3, r0, r3
100071d8:	469b      	mov	fp, r3
100071da:	1c13      	adds	r3, r2, #0
100071dc:	4659      	mov	r1, fp
100071de:	408b      	lsls	r3, r1
100071e0:	4651      	mov	r1, sl
100071e2:	4699      	mov	r9, r3
100071e4:	9b01      	ldr	r3, [sp, #4]
100071e6:	40cb      	lsrs	r3, r1
100071e8:	469c      	mov	ip, r3
100071ea:	464b      	mov	r3, r9
100071ec:	4660      	mov	r0, ip
100071ee:	4303      	orrs	r3, r0
100071f0:	469c      	mov	ip, r3
100071f2:	465b      	mov	r3, fp
100071f4:	9901      	ldr	r1, [sp, #4]
100071f6:	4099      	lsls	r1, r3
100071f8:	4663      	mov	r3, ip
100071fa:	1e48      	subs	r0, r1, #1
100071fc:	4181      	sbcs	r1, r0
100071fe:	4319      	orrs	r1, r3
10007200:	4653      	mov	r3, sl
10007202:	40da      	lsrs	r2, r3
10007204:	e6cd      	b.n	10006fa2 <__aeabi_dsub+0x1e2>
10007206:	1c3c      	adds	r4, r7, #0
10007208:	432c      	orrs	r4, r5
1000720a:	d05d      	beq.n	100072c8 <__aeabi_dsub+0x508>
1000720c:	43f1      	mvns	r1, r6
1000720e:	4689      	mov	r9, r1
10007210:	2900      	cmp	r1, #0
10007212:	d155      	bne.n	100072c0 <__aeabi_dsub+0x500>
10007214:	9901      	ldr	r1, [sp, #4]
10007216:	1bd2      	subs	r2, r2, r7
10007218:	468c      	mov	ip, r1
1000721a:	1b4d      	subs	r5, r1, r5
1000721c:	45ac      	cmp	ip, r5
1000721e:	4189      	sbcs	r1, r1
10007220:	4249      	negs	r1, r1
10007222:	1a57      	subs	r7, r2, r1
10007224:	1c04      	adds	r4, r0, #0
10007226:	4698      	mov	r8, r3
10007228:	e65f      	b.n	10006eea <__aeabi_dsub+0x12a>
1000722a:	4894      	ldr	r0, [pc, #592]	; (1000747c <__aeabi_dsub+0x6bc>)
1000722c:	4284      	cmp	r4, r0
1000722e:	d000      	beq.n	10007232 <__aeabi_dsub+0x472>
10007230:	e6ad      	b.n	10006f8e <__aeabi_dsub+0x1ce>
10007232:	e5f7      	b.n	10006e24 <__aeabi_dsub+0x64>
10007234:	2200      	movs	r2, #0
10007236:	e771      	b.n	1000711c <__aeabi_dsub+0x35c>
10007238:	2300      	movs	r3, #0
1000723a:	e787      	b.n	1000714c <__aeabi_dsub+0x38c>
1000723c:	1c3b      	adds	r3, r7, #0
1000723e:	432b      	orrs	r3, r5
10007240:	2c00      	cmp	r4, #0
10007242:	d000      	beq.n	10007246 <__aeabi_dsub+0x486>
10007244:	e0da      	b.n	100073fc <__aeabi_dsub+0x63c>
10007246:	2b00      	cmp	r3, #0
10007248:	d100      	bne.n	1000724c <__aeabi_dsub+0x48c>
1000724a:	e113      	b.n	10007474 <__aeabi_dsub+0x6b4>
1000724c:	1c13      	adds	r3, r2, #0
1000724e:	9901      	ldr	r1, [sp, #4]
10007250:	430b      	orrs	r3, r1
10007252:	d100      	bne.n	10007256 <__aeabi_dsub+0x496>
10007254:	e5e6      	b.n	10006e24 <__aeabi_dsub+0x64>
10007256:	1949      	adds	r1, r1, r5
10007258:	42a9      	cmp	r1, r5
1000725a:	419b      	sbcs	r3, r3
1000725c:	19d2      	adds	r2, r2, r7
1000725e:	425b      	negs	r3, r3
10007260:	18d7      	adds	r7, r2, r3
10007262:	023b      	lsls	r3, r7, #8
10007264:	d400      	bmi.n	10007268 <__aeabi_dsub+0x4a8>
10007266:	e121      	b.n	100074ac <__aeabi_dsub+0x6ec>
10007268:	4b85      	ldr	r3, [pc, #532]	; (10007480 <__aeabi_dsub+0x6c0>)
1000726a:	1c0d      	adds	r5, r1, #0
1000726c:	401f      	ands	r7, r3
1000726e:	1c04      	adds	r4, r0, #0
10007270:	e5d8      	b.n	10006e24 <__aeabi_dsub+0x64>
10007272:	1c38      	adds	r0, r7, #0
10007274:	4328      	orrs	r0, r5
10007276:	2c00      	cmp	r4, #0
10007278:	d140      	bne.n	100072fc <__aeabi_dsub+0x53c>
1000727a:	2800      	cmp	r0, #0
1000727c:	d000      	beq.n	10007280 <__aeabi_dsub+0x4c0>
1000727e:	e083      	b.n	10007388 <__aeabi_dsub+0x5c8>
10007280:	1c10      	adds	r0, r2, #0
10007282:	9901      	ldr	r1, [sp, #4]
10007284:	4308      	orrs	r0, r1
10007286:	d003      	beq.n	10007290 <__aeabi_dsub+0x4d0>
10007288:	1c17      	adds	r7, r2, #0
1000728a:	1c0d      	adds	r5, r1, #0
1000728c:	4698      	mov	r8, r3
1000728e:	e5c9      	b.n	10006e24 <__aeabi_dsub+0x64>
10007290:	2600      	movs	r6, #0
10007292:	2700      	movs	r7, #0
10007294:	2500      	movs	r5, #0
10007296:	e660      	b.n	10006f5a <__aeabi_dsub+0x19a>
10007298:	4650      	mov	r0, sl
1000729a:	1c13      	adds	r3, r2, #0
1000729c:	3820      	subs	r0, #32
1000729e:	40c3      	lsrs	r3, r0
100072a0:	1c18      	adds	r0, r3, #0
100072a2:	4653      	mov	r3, sl
100072a4:	2b20      	cmp	r3, #32
100072a6:	d100      	bne.n	100072aa <__aeabi_dsub+0x4ea>
100072a8:	e0c1      	b.n	1000742e <__aeabi_dsub+0x66e>
100072aa:	2340      	movs	r3, #64	; 0x40
100072ac:	4651      	mov	r1, sl
100072ae:	1a5b      	subs	r3, r3, r1
100072b0:	409a      	lsls	r2, r3
100072b2:	9901      	ldr	r1, [sp, #4]
100072b4:	4311      	orrs	r1, r2
100072b6:	1e4a      	subs	r2, r1, #1
100072b8:	4191      	sbcs	r1, r2
100072ba:	2200      	movs	r2, #0
100072bc:	4301      	orrs	r1, r0
100072be:	e670      	b.n	10006fa2 <__aeabi_dsub+0x1e2>
100072c0:	4c6e      	ldr	r4, [pc, #440]	; (1000747c <__aeabi_dsub+0x6bc>)
100072c2:	42a0      	cmp	r0, r4
100072c4:	d000      	beq.n	100072c8 <__aeabi_dsub+0x508>
100072c6:	e753      	b.n	10007170 <__aeabi_dsub+0x3b0>
100072c8:	1c17      	adds	r7, r2, #0
100072ca:	9d01      	ldr	r5, [sp, #4]
100072cc:	1c04      	adds	r4, r0, #0
100072ce:	4698      	mov	r8, r3
100072d0:	e5a8      	b.n	10006e24 <__aeabi_dsub+0x64>
100072d2:	2c00      	cmp	r4, #0
100072d4:	d128      	bne.n	10007328 <__aeabi_dsub+0x568>
100072d6:	1c3c      	adds	r4, r7, #0
100072d8:	432c      	orrs	r4, r5
100072da:	d100      	bne.n	100072de <__aeabi_dsub+0x51e>
100072dc:	e08a      	b.n	100073f4 <__aeabi_dsub+0x634>
100072de:	43db      	mvns	r3, r3
100072e0:	469a      	mov	sl, r3
100072e2:	2b00      	cmp	r3, #0
100072e4:	d000      	beq.n	100072e8 <__aeabi_dsub+0x528>
100072e6:	e082      	b.n	100073ee <__aeabi_dsub+0x62e>
100072e8:	9b01      	ldr	r3, [sp, #4]
100072ea:	19d2      	adds	r2, r2, r7
100072ec:	469c      	mov	ip, r3
100072ee:	4465      	add	r5, ip
100072f0:	429d      	cmp	r5, r3
100072f2:	4189      	sbcs	r1, r1
100072f4:	4249      	negs	r1, r1
100072f6:	1857      	adds	r7, r2, r1
100072f8:	1c04      	adds	r4, r0, #0
100072fa:	e659      	b.n	10006fb0 <__aeabi_dsub+0x1f0>
100072fc:	2800      	cmp	r0, #0
100072fe:	d15b      	bne.n	100073b8 <__aeabi_dsub+0x5f8>
10007300:	1c10      	adds	r0, r2, #0
10007302:	9901      	ldr	r1, [sp, #4]
10007304:	4308      	orrs	r0, r1
10007306:	d100      	bne.n	1000730a <__aeabi_dsub+0x54a>
10007308:	e0a4      	b.n	10007454 <__aeabi_dsub+0x694>
1000730a:	1c17      	adds	r7, r2, #0
1000730c:	1c0d      	adds	r5, r1, #0
1000730e:	4698      	mov	r8, r3
10007310:	4c5a      	ldr	r4, [pc, #360]	; (1000747c <__aeabi_dsub+0x6bc>)
10007312:	e587      	b.n	10006e24 <__aeabi_dsub+0x64>
10007314:	433d      	orrs	r5, r7
10007316:	1e6f      	subs	r7, r5, #1
10007318:	41bd      	sbcs	r5, r7
1000731a:	2700      	movs	r7, #0
1000731c:	b2ed      	uxtb	r5, r5
1000731e:	e742      	b.n	100071a6 <__aeabi_dsub+0x3e6>
10007320:	1c04      	adds	r4, r0, #0
10007322:	2700      	movs	r7, #0
10007324:	2500      	movs	r5, #0
10007326:	e618      	b.n	10006f5a <__aeabi_dsub+0x19a>
10007328:	4c54      	ldr	r4, [pc, #336]	; (1000747c <__aeabi_dsub+0x6bc>)
1000732a:	42a0      	cmp	r0, r4
1000732c:	d062      	beq.n	100073f4 <__aeabi_dsub+0x634>
1000732e:	4653      	mov	r3, sl
10007330:	2480      	movs	r4, #128	; 0x80
10007332:	425b      	negs	r3, r3
10007334:	469a      	mov	sl, r3
10007336:	0424      	lsls	r4, r4, #16
10007338:	4327      	orrs	r7, r4
1000733a:	4653      	mov	r3, sl
1000733c:	2b38      	cmp	r3, #56	; 0x38
1000733e:	dd00      	ble.n	10007342 <__aeabi_dsub+0x582>
10007340:	e08e      	b.n	10007460 <__aeabi_dsub+0x6a0>
10007342:	2b1f      	cmp	r3, #31
10007344:	dd00      	ble.n	10007348 <__aeabi_dsub+0x588>
10007346:	e09d      	b.n	10007484 <__aeabi_dsub+0x6c4>
10007348:	2420      	movs	r4, #32
1000734a:	1ae3      	subs	r3, r4, r3
1000734c:	469b      	mov	fp, r3
1000734e:	1c3b      	adds	r3, r7, #0
10007350:	4659      	mov	r1, fp
10007352:	408b      	lsls	r3, r1
10007354:	4651      	mov	r1, sl
10007356:	4699      	mov	r9, r3
10007358:	1c2b      	adds	r3, r5, #0
1000735a:	40cb      	lsrs	r3, r1
1000735c:	469c      	mov	ip, r3
1000735e:	464b      	mov	r3, r9
10007360:	4664      	mov	r4, ip
10007362:	4323      	orrs	r3, r4
10007364:	469c      	mov	ip, r3
10007366:	465b      	mov	r3, fp
10007368:	409d      	lsls	r5, r3
1000736a:	4663      	mov	r3, ip
1000736c:	1e6c      	subs	r4, r5, #1
1000736e:	41a5      	sbcs	r5, r4
10007370:	40cf      	lsrs	r7, r1
10007372:	431d      	orrs	r5, r3
10007374:	9b01      	ldr	r3, [sp, #4]
10007376:	18bf      	adds	r7, r7, r2
10007378:	469c      	mov	ip, r3
1000737a:	4465      	add	r5, ip
1000737c:	429d      	cmp	r5, r3
1000737e:	4192      	sbcs	r2, r2
10007380:	4252      	negs	r2, r2
10007382:	18bf      	adds	r7, r7, r2
10007384:	1c04      	adds	r4, r0, #0
10007386:	e613      	b.n	10006fb0 <__aeabi_dsub+0x1f0>
10007388:	1c10      	adds	r0, r2, #0
1000738a:	9901      	ldr	r1, [sp, #4]
1000738c:	4308      	orrs	r0, r1
1000738e:	d100      	bne.n	10007392 <__aeabi_dsub+0x5d2>
10007390:	e548      	b.n	10006e24 <__aeabi_dsub+0x64>
10007392:	1a68      	subs	r0, r5, r1
10007394:	4684      	mov	ip, r0
10007396:	4285      	cmp	r5, r0
10007398:	4180      	sbcs	r0, r0
1000739a:	1abe      	subs	r6, r7, r2
1000739c:	4240      	negs	r0, r0
1000739e:	1a30      	subs	r0, r6, r0
100073a0:	0206      	lsls	r6, r0, #8
100073a2:	d400      	bmi.n	100073a6 <__aeabi_dsub+0x5e6>
100073a4:	e647      	b.n	10007036 <__aeabi_dsub+0x276>
100073a6:	468c      	mov	ip, r1
100073a8:	1b4d      	subs	r5, r1, r5
100073aa:	45ac      	cmp	ip, r5
100073ac:	4189      	sbcs	r1, r1
100073ae:	1bd2      	subs	r2, r2, r7
100073b0:	4249      	negs	r1, r1
100073b2:	1a57      	subs	r7, r2, r1
100073b4:	4698      	mov	r8, r3
100073b6:	e535      	b.n	10006e24 <__aeabi_dsub+0x64>
100073b8:	1c10      	adds	r0, r2, #0
100073ba:	9901      	ldr	r1, [sp, #4]
100073bc:	4308      	orrs	r0, r1
100073be:	d034      	beq.n	1000742a <__aeabi_dsub+0x66a>
100073c0:	2480      	movs	r4, #128	; 0x80
100073c2:	0778      	lsls	r0, r7, #29
100073c4:	08ed      	lsrs	r5, r5, #3
100073c6:	08ff      	lsrs	r7, r7, #3
100073c8:	0324      	lsls	r4, r4, #12
100073ca:	4328      	orrs	r0, r5
100073cc:	4227      	tst	r7, r4
100073ce:	d008      	beq.n	100073e2 <__aeabi_dsub+0x622>
100073d0:	08d6      	lsrs	r6, r2, #3
100073d2:	4226      	tst	r6, r4
100073d4:	d105      	bne.n	100073e2 <__aeabi_dsub+0x622>
100073d6:	08c9      	lsrs	r1, r1, #3
100073d8:	0752      	lsls	r2, r2, #29
100073da:	430a      	orrs	r2, r1
100073dc:	1c10      	adds	r0, r2, #0
100073de:	1c37      	adds	r7, r6, #0
100073e0:	4698      	mov	r8, r3
100073e2:	00ff      	lsls	r7, r7, #3
100073e4:	0f42      	lsrs	r2, r0, #29
100073e6:	4317      	orrs	r7, r2
100073e8:	00c5      	lsls	r5, r0, #3
100073ea:	4c24      	ldr	r4, [pc, #144]	; (1000747c <__aeabi_dsub+0x6bc>)
100073ec:	e51a      	b.n	10006e24 <__aeabi_dsub+0x64>
100073ee:	4c23      	ldr	r4, [pc, #140]	; (1000747c <__aeabi_dsub+0x6bc>)
100073f0:	42a0      	cmp	r0, r4
100073f2:	d1a2      	bne.n	1000733a <__aeabi_dsub+0x57a>
100073f4:	1c17      	adds	r7, r2, #0
100073f6:	9d01      	ldr	r5, [sp, #4]
100073f8:	1c04      	adds	r4, r0, #0
100073fa:	e513      	b.n	10006e24 <__aeabi_dsub+0x64>
100073fc:	2b00      	cmp	r3, #0
100073fe:	d035      	beq.n	1000746c <__aeabi_dsub+0x6ac>
10007400:	1c13      	adds	r3, r2, #0
10007402:	9901      	ldr	r1, [sp, #4]
10007404:	430b      	orrs	r3, r1
10007406:	d010      	beq.n	1000742a <__aeabi_dsub+0x66a>
10007408:	2480      	movs	r4, #128	; 0x80
1000740a:	0778      	lsls	r0, r7, #29
1000740c:	08ed      	lsrs	r5, r5, #3
1000740e:	08ff      	lsrs	r7, r7, #3
10007410:	0324      	lsls	r4, r4, #12
10007412:	4328      	orrs	r0, r5
10007414:	4227      	tst	r7, r4
10007416:	d0e4      	beq.n	100073e2 <__aeabi_dsub+0x622>
10007418:	08d3      	lsrs	r3, r2, #3
1000741a:	4223      	tst	r3, r4
1000741c:	d1e1      	bne.n	100073e2 <__aeabi_dsub+0x622>
1000741e:	08c9      	lsrs	r1, r1, #3
10007420:	0752      	lsls	r2, r2, #29
10007422:	430a      	orrs	r2, r1
10007424:	1c10      	adds	r0, r2, #0
10007426:	1c1f      	adds	r7, r3, #0
10007428:	e7db      	b.n	100073e2 <__aeabi_dsub+0x622>
1000742a:	4c14      	ldr	r4, [pc, #80]	; (1000747c <__aeabi_dsub+0x6bc>)
1000742c:	e4fa      	b.n	10006e24 <__aeabi_dsub+0x64>
1000742e:	2200      	movs	r2, #0
10007430:	e73f      	b.n	100072b2 <__aeabi_dsub+0x4f2>
10007432:	464c      	mov	r4, r9
10007434:	1c3e      	adds	r6, r7, #0
10007436:	3c20      	subs	r4, #32
10007438:	40e6      	lsrs	r6, r4
1000743a:	4649      	mov	r1, r9
1000743c:	1c34      	adds	r4, r6, #0
1000743e:	2920      	cmp	r1, #32
10007440:	d032      	beq.n	100074a8 <__aeabi_dsub+0x6e8>
10007442:	2640      	movs	r6, #64	; 0x40
10007444:	1a76      	subs	r6, r6, r1
10007446:	40b7      	lsls	r7, r6
10007448:	433d      	orrs	r5, r7
1000744a:	1e6f      	subs	r7, r5, #1
1000744c:	41bd      	sbcs	r5, r7
1000744e:	2700      	movs	r7, #0
10007450:	4325      	orrs	r5, r4
10007452:	e6a8      	b.n	100071a6 <__aeabi_dsub+0x3e6>
10007454:	2780      	movs	r7, #128	; 0x80
10007456:	2600      	movs	r6, #0
10007458:	03ff      	lsls	r7, r7, #15
1000745a:	4c08      	ldr	r4, [pc, #32]	; (1000747c <__aeabi_dsub+0x6bc>)
1000745c:	2500      	movs	r5, #0
1000745e:	e57c      	b.n	10006f5a <__aeabi_dsub+0x19a>
10007460:	433d      	orrs	r5, r7
10007462:	1e6f      	subs	r7, r5, #1
10007464:	41bd      	sbcs	r5, r7
10007466:	2700      	movs	r7, #0
10007468:	b2ed      	uxtb	r5, r5
1000746a:	e783      	b.n	10007374 <__aeabi_dsub+0x5b4>
1000746c:	1c17      	adds	r7, r2, #0
1000746e:	9d01      	ldr	r5, [sp, #4]
10007470:	4c02      	ldr	r4, [pc, #8]	; (1000747c <__aeabi_dsub+0x6bc>)
10007472:	e4d7      	b.n	10006e24 <__aeabi_dsub+0x64>
10007474:	1c17      	adds	r7, r2, #0
10007476:	9d01      	ldr	r5, [sp, #4]
10007478:	e4d4      	b.n	10006e24 <__aeabi_dsub+0x64>
1000747a:	46c0      	nop			; (mov r8, r8)
1000747c:	000007ff 	.word	0x000007ff
10007480:	ff7fffff 	.word	0xff7fffff
10007484:	4654      	mov	r4, sl
10007486:	1c3b      	adds	r3, r7, #0
10007488:	3c20      	subs	r4, #32
1000748a:	40e3      	lsrs	r3, r4
1000748c:	1c1c      	adds	r4, r3, #0
1000748e:	4653      	mov	r3, sl
10007490:	2b20      	cmp	r3, #32
10007492:	d00d      	beq.n	100074b0 <__aeabi_dsub+0x6f0>
10007494:	2340      	movs	r3, #64	; 0x40
10007496:	4651      	mov	r1, sl
10007498:	1a5b      	subs	r3, r3, r1
1000749a:	409f      	lsls	r7, r3
1000749c:	433d      	orrs	r5, r7
1000749e:	1e6f      	subs	r7, r5, #1
100074a0:	41bd      	sbcs	r5, r7
100074a2:	2700      	movs	r7, #0
100074a4:	4325      	orrs	r5, r4
100074a6:	e765      	b.n	10007374 <__aeabi_dsub+0x5b4>
100074a8:	2700      	movs	r7, #0
100074aa:	e7cd      	b.n	10007448 <__aeabi_dsub+0x688>
100074ac:	1c0d      	adds	r5, r1, #0
100074ae:	e5c8      	b.n	10007042 <__aeabi_dsub+0x282>
100074b0:	2700      	movs	r7, #0
100074b2:	e7f3      	b.n	1000749c <__aeabi_dsub+0x6dc>

100074b4 <__aeabi_d2iz>:
100074b4:	030b      	lsls	r3, r1, #12
100074b6:	b530      	push	{r4, r5, lr}
100074b8:	4c13      	ldr	r4, [pc, #76]	; (10007508 <__aeabi_d2iz+0x54>)
100074ba:	0b1a      	lsrs	r2, r3, #12
100074bc:	004b      	lsls	r3, r1, #1
100074be:	1c05      	adds	r5, r0, #0
100074c0:	0d5b      	lsrs	r3, r3, #21
100074c2:	0fc9      	lsrs	r1, r1, #31
100074c4:	2000      	movs	r0, #0
100074c6:	42a3      	cmp	r3, r4
100074c8:	dd10      	ble.n	100074ec <__aeabi_d2iz+0x38>
100074ca:	4810      	ldr	r0, [pc, #64]	; (1000750c <__aeabi_d2iz+0x58>)
100074cc:	4283      	cmp	r3, r0
100074ce:	dc0e      	bgt.n	100074ee <__aeabi_d2iz+0x3a>
100074d0:	2080      	movs	r0, #128	; 0x80
100074d2:	4c0f      	ldr	r4, [pc, #60]	; (10007510 <__aeabi_d2iz+0x5c>)
100074d4:	0340      	lsls	r0, r0, #13
100074d6:	4302      	orrs	r2, r0
100074d8:	1ae4      	subs	r4, r4, r3
100074da:	2c1f      	cmp	r4, #31
100074dc:	dd0a      	ble.n	100074f4 <__aeabi_d2iz+0x40>
100074de:	480d      	ldr	r0, [pc, #52]	; (10007514 <__aeabi_d2iz+0x60>)
100074e0:	1ac3      	subs	r3, r0, r3
100074e2:	40da      	lsrs	r2, r3
100074e4:	1c13      	adds	r3, r2, #0
100074e6:	4248      	negs	r0, r1
100074e8:	4043      	eors	r3, r0
100074ea:	1858      	adds	r0, r3, r1
100074ec:	bd30      	pop	{r4, r5, pc}
100074ee:	4b0a      	ldr	r3, [pc, #40]	; (10007518 <__aeabi_d2iz+0x64>)
100074f0:	18c8      	adds	r0, r1, r3
100074f2:	e7fb      	b.n	100074ec <__aeabi_d2iz+0x38>
100074f4:	1c28      	adds	r0, r5, #0
100074f6:	40e0      	lsrs	r0, r4
100074f8:	4c08      	ldr	r4, [pc, #32]	; (1000751c <__aeabi_d2iz+0x68>)
100074fa:	46a4      	mov	ip, r4
100074fc:	4463      	add	r3, ip
100074fe:	409a      	lsls	r2, r3
10007500:	1c13      	adds	r3, r2, #0
10007502:	4303      	orrs	r3, r0
10007504:	e7ef      	b.n	100074e6 <__aeabi_d2iz+0x32>
10007506:	46c0      	nop			; (mov r8, r8)
10007508:	000003fe 	.word	0x000003fe
1000750c:	0000041d 	.word	0x0000041d
10007510:	00000433 	.word	0x00000433
10007514:	00000413 	.word	0x00000413
10007518:	7fffffff 	.word	0x7fffffff
1000751c:	fffffbed 	.word	0xfffffbed

10007520 <__aeabi_i2d>:
10007520:	b538      	push	{r3, r4, r5, lr}
10007522:	1e04      	subs	r4, r0, #0
10007524:	d016      	beq.n	10007554 <__aeabi_i2d+0x34>
10007526:	0fc5      	lsrs	r5, r0, #31
10007528:	d000      	beq.n	1000752c <__aeabi_i2d+0xc>
1000752a:	4244      	negs	r4, r0
1000752c:	1c20      	adds	r0, r4, #0
1000752e:	f7fc f919 	bl	10003764 <__clzsi2>
10007532:	4b17      	ldr	r3, [pc, #92]	; (10007590 <__aeabi_i2d+0x70>)
10007534:	1a1b      	subs	r3, r3, r0
10007536:	280a      	cmp	r0, #10
10007538:	dc21      	bgt.n	1000757e <__aeabi_i2d+0x5e>
1000753a:	1c02      	adds	r2, r0, #0
1000753c:	1c21      	adds	r1, r4, #0
1000753e:	3215      	adds	r2, #21
10007540:	4091      	lsls	r1, r2
10007542:	1c0a      	adds	r2, r1, #0
10007544:	210b      	movs	r1, #11
10007546:	1a08      	subs	r0, r1, r0
10007548:	40c4      	lsrs	r4, r0
1000754a:	055b      	lsls	r3, r3, #21
1000754c:	0324      	lsls	r4, r4, #12
1000754e:	0b24      	lsrs	r4, r4, #12
10007550:	0d5b      	lsrs	r3, r3, #21
10007552:	e003      	b.n	1000755c <__aeabi_i2d+0x3c>
10007554:	2500      	movs	r5, #0
10007556:	2300      	movs	r3, #0
10007558:	2400      	movs	r4, #0
1000755a:	2200      	movs	r2, #0
1000755c:	2100      	movs	r1, #0
1000755e:	1c10      	adds	r0, r2, #0
10007560:	0324      	lsls	r4, r4, #12
10007562:	0d0a      	lsrs	r2, r1, #20
10007564:	0512      	lsls	r2, r2, #20
10007566:	0b24      	lsrs	r4, r4, #12
10007568:	4314      	orrs	r4, r2
1000756a:	4a0a      	ldr	r2, [pc, #40]	; (10007594 <__aeabi_i2d+0x74>)
1000756c:	051b      	lsls	r3, r3, #20
1000756e:	4014      	ands	r4, r2
10007570:	431c      	orrs	r4, r3
10007572:	0064      	lsls	r4, r4, #1
10007574:	07ed      	lsls	r5, r5, #31
10007576:	0864      	lsrs	r4, r4, #1
10007578:	432c      	orrs	r4, r5
1000757a:	1c21      	adds	r1, r4, #0
1000757c:	bd38      	pop	{r3, r4, r5, pc}
1000757e:	380b      	subs	r0, #11
10007580:	4084      	lsls	r4, r0
10007582:	055b      	lsls	r3, r3, #21
10007584:	0324      	lsls	r4, r4, #12
10007586:	0b24      	lsrs	r4, r4, #12
10007588:	0d5b      	lsrs	r3, r3, #21
1000758a:	2200      	movs	r2, #0
1000758c:	e7e6      	b.n	1000755c <__aeabi_i2d+0x3c>
1000758e:	46c0      	nop			; (mov r8, r8)
10007590:	0000041e 	.word	0x0000041e
10007594:	800fffff 	.word	0x800fffff

10007598 <__aeabi_ui2d>:
10007598:	b510      	push	{r4, lr}
1000759a:	1e04      	subs	r4, r0, #0
1000759c:	d010      	beq.n	100075c0 <__aeabi_ui2d+0x28>
1000759e:	f7fc f8e1 	bl	10003764 <__clzsi2>
100075a2:	4a14      	ldr	r2, [pc, #80]	; (100075f4 <__aeabi_ui2d+0x5c>)
100075a4:	1a12      	subs	r2, r2, r0
100075a6:	280a      	cmp	r0, #10
100075a8:	dc1a      	bgt.n	100075e0 <__aeabi_ui2d+0x48>
100075aa:	230b      	movs	r3, #11
100075ac:	1c21      	adds	r1, r4, #0
100075ae:	1a1b      	subs	r3, r3, r0
100075b0:	40d9      	lsrs	r1, r3
100075b2:	3015      	adds	r0, #21
100075b4:	030b      	lsls	r3, r1, #12
100075b6:	0552      	lsls	r2, r2, #21
100075b8:	4084      	lsls	r4, r0
100075ba:	0b1b      	lsrs	r3, r3, #12
100075bc:	0d52      	lsrs	r2, r2, #21
100075be:	e001      	b.n	100075c4 <__aeabi_ui2d+0x2c>
100075c0:	2200      	movs	r2, #0
100075c2:	2300      	movs	r3, #0
100075c4:	2100      	movs	r1, #0
100075c6:	031b      	lsls	r3, r3, #12
100075c8:	1c20      	adds	r0, r4, #0
100075ca:	0b1c      	lsrs	r4, r3, #12
100075cc:	0d0b      	lsrs	r3, r1, #20
100075ce:	051b      	lsls	r3, r3, #20
100075d0:	4323      	orrs	r3, r4
100075d2:	4c09      	ldr	r4, [pc, #36]	; (100075f8 <__aeabi_ui2d+0x60>)
100075d4:	0512      	lsls	r2, r2, #20
100075d6:	4023      	ands	r3, r4
100075d8:	4313      	orrs	r3, r2
100075da:	005b      	lsls	r3, r3, #1
100075dc:	0859      	lsrs	r1, r3, #1
100075de:	bd10      	pop	{r4, pc}
100075e0:	1c03      	adds	r3, r0, #0
100075e2:	3b0b      	subs	r3, #11
100075e4:	409c      	lsls	r4, r3
100075e6:	0552      	lsls	r2, r2, #21
100075e8:	0323      	lsls	r3, r4, #12
100075ea:	0b1b      	lsrs	r3, r3, #12
100075ec:	0d52      	lsrs	r2, r2, #21
100075ee:	2400      	movs	r4, #0
100075f0:	e7e8      	b.n	100075c4 <__aeabi_ui2d+0x2c>
100075f2:	46c0      	nop			; (mov r8, r8)
100075f4:	0000041e 	.word	0x0000041e
100075f8:	800fffff 	.word	0x800fffff

100075fc <CSWTCH.34>:
	...
10007604:	00000002 00000002 00000000 00000000     ................
	...
1000761c:	00000008 0000000a 0000000c 0000000c     ................

1000762c <CSWTCH.35>:
1000762c:	00000003 00000003 0000000c 0000000c     ................
	...
1000764c:	00000300 00000c00 00003000 00003000     .........0...0..

1000765c <CSWTCH.41>:
	...
10007664:	00000002 00000002 00000004 00000004     ................
	...
1000767c:	00000008 0000000a 0000000c 0000000c     ................

1000768c <CSWTCH.40>:
1000768c:	00000003 00000003 0000000c 0000000c     ................
1000769c:	00000030 00000030 00000000 00000000     0...0...........
100076ac:	00000300 00000c00 00003000 00003000     .........0...0..

100076bc <g_xmc_vadc_group_array>:
100076bc:	48030400 48030800                       ...H...H

100076c4 <UART_0_config>:
100076c4:	10007710 10001f79 00000000 1000343d     .w..y.......=4..
	...
100076e8:	100076fc 04000000 00000204              .v..........

100076f4 <UART_0_rx_pin_config>:
100076f4:	00000000 00000001                       ........

100076fc <UART_0_tx_pin>:
100076fc:	40040200 00000000 10007708              ...@.....w..

10007708 <UART_0_tx_pin_config>:
10007708:	000000b0 00000001                       ........

10007710 <UART_0_channel_config>:
10007710:	0001c200 01080800 00000010              ............

1000771c <PWM_CCU8_0_event1_config>:
1000771c:	00010000                                ....

10007720 <PWM_CCU8_0_timer_handle>:
10007720:	00000001 00000000 00000014 00000000     ................

10007730 <PWM_CCU8_0_event2_config>:
10007730:	00010000                                ....

10007734 <PWM_CCU8_0_ch1_out0_config>:
10007734:	000000a8 00010000                       ........

1000773c <PWM_CCU8_0_ch1_out1_config>:
1000773c:	000000a8 00010000                       ........

10007744 <PWM_CCU8_0_config_handle>:
10007744:	027f0000 013f01c0 00000000 00000000     ......?.........
	...
10007760:	100077e0 1000771c 10007730 02000000     .w...w..0w......
	...
1000777c:	00000001 08000000 100077d4 00000001     .........w......
1000778c:	10007720 00000001 40040000 00000007      w.........@....
1000779c:	10007734 00000001 40040000 00000006     4w.........@....
100077ac:	1000773c 00000000 00000000 00000000     <w..............
	...
100077d0:	200005d8                                ... 

100077d4 <PWM_CCU8_0_dt_config>:
100077d4:	0000000d 00000707 00000000              ............

100077e0 <PWM_CCU8_0_event0_config>:
100077e0:	00010000                                ....

100077e4 <ZOH_INTERRUPT>:
100077e4:	00010015                                ....

100077e8 <group_init_handle0>:
	...

100077fc <group_init_handle1>:
	...

10007810 <global_config>:
	...

10007828 <RELAY_OUT_8>:
10007828:	40040000 00000080 00010000 00000005     ...@............

10007838 <RELAY_IN_12>:
10007838:	40040000 00000080 00010000 00000009     ...@............
10007848:	00000100 00010000 00000000              ............

10007854 <ANALOG_IO_0>:
10007854:	00000000 200007b2 40040200 0000000a     ....... ...@....

10007864 <ANALOG_IO_1>:
10007864:	00000000 200007b0 40040200 0000000b     ....... ...@....

10007874 <ANALOG_IO_2>:
10007874:	00000000 200007b1 40040200 00000006     ....... ...@....

10007884 <backgnd_config>:
10007884:	00000005 00000000 00000000              ............

10007890 <global_iclass_config>:
10007890:	00000002 746e7552 20656d69 6425203d     ....Runtime = %d
100078a0:	56202c73 20746162 6425203d 6249202c     s, Vbat = %d, Ib
100078b0:	3d207461 2c642520 646f4d20 64252065     at = %d, Mode %d
100078c0:	00000a0d 4e490043 6e690046 414e0066     ....C.INF.inf.NA
100078d0:	616e004e 0030006e 33323130 37363534     N.nan.0.01234567
100078e0:	42413938 46454443 32313000 36353433     89ABCDEF.0123456
100078f0:	61393837 65646362 6e490066 696e6966     789abcdef.Infini
10007900:	4e007974 50004e61 5849534f 00002e00     ty.NaN.POSIX....

10007910 <__mprec_tens>:
10007910:	00000000 3ff00000 00000000 40240000     .......?......$@
10007920:	00000000 40590000 00000000 408f4000     ......Y@.....@.@
10007930:	00000000 40c38800 00000000 40f86a00     .......@.....j.@
10007940:	00000000 412e8480 00000000 416312d0     .......A......cA
10007950:	00000000 4197d784 00000000 41cdcd65     .......A....e..A
10007960:	20000000 4202a05f e8000000 42374876     ... _..B....vH7B
10007970:	a2000000 426d1a94 e5400000 42a2309c     ......mB..@..0.B
10007980:	1e900000 42d6bcc4 26340000 430c6bf5     .......B..4&.k.C
10007990:	37e08000 4341c379 85d8a000 43763457     ...7y.AC....W4vC
100079a0:	674ec800 43abc16d 60913d00 43e158e4     ..Ngm..C.=.`.X.C
100079b0:	78b58c40 4415af1d d6e2ef50 444b1ae4     @..x...DP.....KD
100079c0:	064dd592 4480f0cf c7e14af6 44b52d02     ..M....D.J...-.D
100079d0:	79d99db4 44ea7843                       ...yCx.D

100079d8 <__mprec_bigtens>:
100079d8:	37e08000 4341c379 b5056e17 4693b8b5     ...7y.AC.n.....F
100079e8:	e93ff9f5 4d384f03 f9301d32 5a827748     ..?..O8M2.0.Hw.Z
100079f8:	7f73bf3c 75154fdd                       <.s..O.u

10007a00 <p05.5277>:
10007a00:	00000005 00000019 0000007d 2b302d23     ........}...#-0+
10007a10:	6c680020 6665004c 47464567 00000000      .hlL.efgEFG....
10007a20:	100061e4 100060d2 100061b8 100060be     .a...`...a...`..
10007a30:	100061b8 100061c2 100061b8 100060be     .a...a...a...`..
10007a40:	100060d2 100060d2 100061c2 100060be     .`...`...a...`..
10007a50:	100060c8 100060c8 100060c8 1000642a     .`...`...`..*d..
10007a60:	10006a78 10006a56 10006a56 10006a4a     xj..Vj..Vj..Jj..
10007a70:	1000693e 1000693e 10006a3e 10006a4a     >i..>i..>j..Jj..
10007a80:	1000693e 10006a3e 1000693e 10006a4a     >i..>j..>i..Jj..
10007a90:	10006942 10006942 10006942 10006c58     Bi..Bi..Bi..Xl..

Disassembly of section .VENEER_Code:

2000000c <HardFault_Veneer>:
2000000c:	482c      	ldr	r0, [pc, #176]	; (200000c0 <BCCU0_0_Veneer+0x4>)
2000000e:	4687      	mov	pc, r0
	...

2000002c <SVC_Veneer>:
2000002c:	4825      	ldr	r0, [pc, #148]	; (200000c4 <BCCU0_0_Veneer+0x8>)
2000002e:	4687      	mov	pc, r0
	...

20000038 <PendSV_Veneer>:
20000038:	4823      	ldr	r0, [pc, #140]	; (200000c8 <BCCU0_0_Veneer+0xc>)
2000003a:	4687      	mov	pc, r0

2000003c <SysTick_Veneer>:
2000003c:	4823      	ldr	r0, [pc, #140]	; (200000cc <BCCU0_0_Veneer+0x10>)
2000003e:	4687      	mov	pc, r0

20000040 <SCU_0_Veneer>:
20000040:	4823      	ldr	r0, [pc, #140]	; (200000d0 <BCCU0_0_Veneer+0x14>)
20000042:	4687      	mov	pc, r0

20000044 <SCU_1_Veneer>:
20000044:	4823      	ldr	r0, [pc, #140]	; (200000d4 <BCCU0_0_Veneer+0x18>)
20000046:	4687      	mov	pc, r0

20000048 <SCU_2_Veneer>:
20000048:	4823      	ldr	r0, [pc, #140]	; (200000d8 <BCCU0_0_Veneer+0x1c>)
2000004a:	4687      	mov	pc, r0

2000004c <SCU_3_Veneer>:
2000004c:	4823      	ldr	r0, [pc, #140]	; (200000dc <BCCU0_0_Veneer+0x20>)
2000004e:	4687      	mov	pc, r0

20000050 <SCU_4_Veneer>:
20000050:	4823      	ldr	r0, [pc, #140]	; (200000e0 <BCCU0_0_Veneer+0x24>)
20000052:	4687      	mov	pc, r0

20000054 <SCU_5_Veneer>:
20000054:	4823      	ldr	r0, [pc, #140]	; (200000e4 <BCCU0_0_Veneer+0x28>)
20000056:	4687      	mov	pc, r0

20000058 <SCU_6_Veneer>:
20000058:	4823      	ldr	r0, [pc, #140]	; (200000e8 <BCCU0_0_Veneer+0x2c>)
2000005a:	4687      	mov	pc, r0

2000005c <MATH_Veneer>:
2000005c:	4823      	ldr	r0, [pc, #140]	; (200000ec <BCCU0_0_Veneer+0x30>)
2000005e:	4687      	mov	pc, r0
20000060:	00000000 	.word	0x00000000

20000064 <USIC0_0_Veneer>:
20000064:	4822      	ldr	r0, [pc, #136]	; (200000f0 <BCCU0_0_Veneer+0x34>)
20000066:	4687      	mov	pc, r0

20000068 <USIC0_1_Veneer>:
20000068:	4822      	ldr	r0, [pc, #136]	; (200000f4 <BCCU0_0_Veneer+0x38>)
2000006a:	4687      	mov	pc, r0

2000006c <USIC0_2_Veneer>:
2000006c:	4822      	ldr	r0, [pc, #136]	; (200000f8 <BCCU0_0_Veneer+0x3c>)
2000006e:	4687      	mov	pc, r0

20000070 <USIC0_3_Veneer>:
20000070:	4822      	ldr	r0, [pc, #136]	; (200000fc <BCCU0_0_Veneer+0x40>)
20000072:	4687      	mov	pc, r0

20000074 <USIC0_4_Veneer>:
20000074:	4822      	ldr	r0, [pc, #136]	; (20000100 <BCCU0_0_Veneer+0x44>)
20000076:	4687      	mov	pc, r0

20000078 <USIC0_5_Veneer>:
20000078:	4822      	ldr	r0, [pc, #136]	; (20000104 <BCCU0_0_Veneer+0x48>)
2000007a:	4687      	mov	pc, r0

2000007c <VADC0_C0_0_Veneer>:
2000007c:	4822      	ldr	r0, [pc, #136]	; (20000108 <BCCU0_0_Veneer+0x4c>)
2000007e:	4687      	mov	pc, r0

20000080 <VADC0_C0_1_Veneer>:
20000080:	4822      	ldr	r0, [pc, #136]	; (2000010c <BCCU0_0_Veneer+0x50>)
20000082:	4687      	mov	pc, r0

20000084 <VADC0_G0_0_Veneer>:
20000084:	4822      	ldr	r0, [pc, #136]	; (20000110 <BCCU0_0_Veneer+0x54>)
20000086:	4687      	mov	pc, r0

20000088 <VADC0_G0_1_Veneer>:
20000088:	4822      	ldr	r0, [pc, #136]	; (20000114 <BCCU0_0_Veneer+0x58>)
2000008a:	4687      	mov	pc, r0

2000008c <VADC0_G1_0_Veneer>:
2000008c:	4822      	ldr	r0, [pc, #136]	; (20000118 <BCCU0_0_Veneer+0x5c>)
2000008e:	4687      	mov	pc, r0

20000090 <VADC0_G1_1_Veneer>:
20000090:	4822      	ldr	r0, [pc, #136]	; (2000011c <BCCU0_0_Veneer+0x60>)
20000092:	4687      	mov	pc, r0

20000094 <CCU40_0_Veneer>:
20000094:	4822      	ldr	r0, [pc, #136]	; (20000120 <BCCU0_0_Veneer+0x64>)
20000096:	4687      	mov	pc, r0

20000098 <CCU40_1_Veneer>:
20000098:	4822      	ldr	r0, [pc, #136]	; (20000124 <BCCU0_0_Veneer+0x68>)
2000009a:	4687      	mov	pc, r0

2000009c <CCU40_2_Veneer>:
2000009c:	4822      	ldr	r0, [pc, #136]	; (20000128 <BCCU0_0_Veneer+0x6c>)
2000009e:	4687      	mov	pc, r0

200000a0 <CCU40_3_Veneer>:
200000a0:	4822      	ldr	r0, [pc, #136]	; (2000012c <BCCU0_0_Veneer+0x70>)
200000a2:	4687      	mov	pc, r0

200000a4 <CCU80_0_Veneer>:
200000a4:	4822      	ldr	r0, [pc, #136]	; (20000130 <BCCU0_0_Veneer+0x74>)
200000a6:	4687      	mov	pc, r0

200000a8 <CCU80_1_Veneer>:
200000a8:	4822      	ldr	r0, [pc, #136]	; (20000134 <BCCU0_0_Veneer+0x78>)
200000aa:	4687      	mov	pc, r0

200000ac <POSIF0_0_Veneer>:
200000ac:	4822      	ldr	r0, [pc, #136]	; (20000138 <BCCU0_0_Veneer+0x7c>)
200000ae:	4687      	mov	pc, r0

200000b0 <POSIF0_1_Veneer>:
200000b0:	4822      	ldr	r0, [pc, #136]	; (2000013c <BCCU0_0_Veneer+0x80>)
200000b2:	4687      	mov	pc, r0
	...

200000bc <BCCU0_0_Veneer>:
200000bc:	4820      	ldr	r0, [pc, #128]	; (20000140 <BCCU0_0_Veneer+0x84>)
200000be:	4687      	mov	pc, r0
200000c0:	10001099 	.word	0x10001099
200000c4:	10001099 	.word	0x10001099
200000c8:	10001099 	.word	0x10001099
200000cc:	10002111 	.word	0x10002111
200000d0:	10001099 	.word	0x10001099
200000d4:	10001099 	.word	0x10001099
200000d8:	10001099 	.word	0x10001099
200000dc:	10001099 	.word	0x10001099
200000e0:	10001099 	.word	0x10001099
200000e4:	10001099 	.word	0x10001099
200000e8:	10001099 	.word	0x10001099
200000ec:	10001099 	.word	0x10001099
200000f0:	10001099 	.word	0x10001099
200000f4:	10002065 	.word	0x10002065
200000f8:	10002055 	.word	0x10002055
200000fc:	10001099 	.word	0x10001099
20000100:	10001099 	.word	0x10001099
20000104:	10001099 	.word	0x10001099
20000108:	10001099 	.word	0x10001099
2000010c:	10001099 	.word	0x10001099
20000110:	10001099 	.word	0x10001099
20000114:	10001099 	.word	0x10001099
20000118:	10001099 	.word	0x10001099
2000011c:	10001099 	.word	0x10001099
20000120:	10003255 	.word	0x10003255
20000124:	10001099 	.word	0x10001099
20000128:	10001099 	.word	0x10001099
2000012c:	10001099 	.word	0x10001099
20000130:	10001099 	.word	0x10001099
20000134:	10001099 	.word	0x10001099
20000138:	10001099 	.word	0x10001099
2000013c:	10001099 	.word	0x10001099
20000140:	10001099 	.word	0x10001099
